GAS LISTING /tmp/ccRTOiio.s 			page 1


   1              		.file	"_new.cpp"
   2              		.option nopic
   3              		.option norelax
   4              		.attribute arch, "rv64i2p0_m2p0_a2p0"
   5              		.attribute unaligned_access, 0
   6              		.attribute stack_align, 16
   7              		.text
   8              	.Ltext0:
   9              		.align	2
  10              		.globl	_Znwm
  12              	_Znwm:
  13              	.LFB1:
  14              		.file 1 "src/_new.cpp"
   1:src/_new.cpp  **** //
   2:src/_new.cpp  **** // Created by marko on 20.4.22..
   3:src/_new.cpp  **** //
   4:src/_new.cpp  **** 
   5:src/_new.cpp  **** //#include "../lib/mem.h"
   6:src/_new.cpp  **** #include "../h/MemoryAllocator.h"
   7:src/_new.cpp  **** 
   8:src/_new.cpp  **** using size_t = decltype(sizeof(0));
   9:src/_new.cpp  **** 
  10:src/_new.cpp  **** void *operator new(size_t n)
  11:src/_new.cpp  **** {
  15              		.loc 1 11 1
  16              		.cfi_startproc
  17              	.LVL0:
  18 0000 130101FF 		addi	sp,sp,-16
  19              		.cfi_def_cfa_offset 16
  20 0004 23341100 		sd	ra,8(sp)
  21 0008 23308100 		sd	s0,0(sp)
  22              		.cfi_offset 1, -8
  23              		.cfi_offset 8, -16
  24 000c 13040101 		addi	s0,sp,16
  25              		.cfi_def_cfa 8, 0
  12:src/_new.cpp  ****     //return __mem_alloc(n);
  13:src/_new.cpp  ****     return MemoryAllocator::mem_alloc(n);
  26              		.loc 1 13 5
  27              		.loc 1 13 38 is_stmt 0
  28 0010 97000000 		call	_ZN15MemoryAllocator9mem_allocEm
  28      E7800000 
  29              	.LVL1:
  14:src/_new.cpp  **** }
  30              		.loc 1 14 1
  31 0018 83308100 		ld	ra,8(sp)
  32              		.cfi_restore 1
  33 001c 03340100 		ld	s0,0(sp)
  34              		.cfi_restore 8
  35              		.cfi_def_cfa 2, 16
  36 0020 13010101 		addi	sp,sp,16
  37              		.cfi_def_cfa_offset 0
  38 0024 67800000 		jr	ra
  39              		.cfi_endproc
  40              	.LFE1:
  42              		.align	2
  43              		.globl	_Znam
  45              	_Znam:
GAS LISTING /tmp/ccRTOiio.s 			page 2


  46              	.LFB2:
  15:src/_new.cpp  **** 
  16:src/_new.cpp  **** void *operator new[](size_t n)
  17:src/_new.cpp  **** {
  47              		.loc 1 17 1 is_stmt 1
  48              		.cfi_startproc
  49              	.LVL2:
  50 0028 130101FF 		addi	sp,sp,-16
  51              		.cfi_def_cfa_offset 16
  52 002c 23341100 		sd	ra,8(sp)
  53 0030 23308100 		sd	s0,0(sp)
  54              		.cfi_offset 1, -8
  55              		.cfi_offset 8, -16
  56 0034 13040101 		addi	s0,sp,16
  57              		.cfi_def_cfa 8, 0
  18:src/_new.cpp  ****     //return __mem_alloc(n);
  19:src/_new.cpp  ****     return MemoryAllocator::mem_alloc(n);
  58              		.loc 1 19 5
  59              		.loc 1 19 38 is_stmt 0
  60 0038 97000000 		call	_ZN15MemoryAllocator9mem_allocEm
  60      E7800000 
  61              	.LVL3:
  20:src/_new.cpp  **** }
  62              		.loc 1 20 1
  63 0040 83308100 		ld	ra,8(sp)
  64              		.cfi_restore 1
  65 0044 03340100 		ld	s0,0(sp)
  66              		.cfi_restore 8
  67              		.cfi_def_cfa 2, 16
  68 0048 13010101 		addi	sp,sp,16
  69              		.cfi_def_cfa_offset 0
  70 004c 67800000 		jr	ra
  71              		.cfi_endproc
  72              	.LFE2:
  74              		.align	2
  75              		.globl	_ZdlPv
  77              	_ZdlPv:
  78              	.LFB3:
  21:src/_new.cpp  **** 
  22:src/_new.cpp  **** void operator delete(void *p) noexcept
  23:src/_new.cpp  **** {
  79              		.loc 1 23 1 is_stmt 1
  80              		.cfi_startproc
  81              		.cfi_personality 0x9b,DW.ref.__gxx_personality_v0
  82              		.cfi_lsda 0x1b,.LLSDA3
  83              	.LVL4:
  84 0050 130101FF 		addi	sp,sp,-16
  85              		.cfi_def_cfa_offset 16
  86 0054 23341100 		sd	ra,8(sp)
  87 0058 23308100 		sd	s0,0(sp)
  88              		.cfi_offset 1, -8
  89              		.cfi_offset 8, -16
  90 005c 13040101 		addi	s0,sp,16
  91              		.cfi_def_cfa 8, 0
  24:src/_new.cpp  ****     //__mem_free(p);
  25:src/_new.cpp  ****     MemoryAllocator::mem_free(p);
  92              		.loc 1 25 5
GAS LISTING /tmp/ccRTOiio.s 			page 3


  93              		.loc 1 25 30 is_stmt 0
  94 0060 97000000 		call	_ZN15MemoryAllocator8mem_freeEPv
  94      E7800000 
  95              	.LVL5:
  26:src/_new.cpp  **** }
  96              		.loc 1 26 1
  97 0068 83308100 		ld	ra,8(sp)
  98              		.cfi_restore 1
  99 006c 03340100 		ld	s0,0(sp)
 100              		.cfi_restore 8
 101              		.cfi_def_cfa 2, 16
 102 0070 13010101 		addi	sp,sp,16
 103              		.cfi_def_cfa_offset 0
 104 0074 67800000 		jr	ra
 105              		.cfi_endproc
 106              	.LFE3:
 107              		.globl	__gxx_personality_v0
 108              		.section	.gcc_except_table,"aw",@progbits
 109              	.LLSDA3:
 110 0000 FF       		.byte	0xff
 111 0001 FF       		.byte	0xff
 112 0002 03       		.byte	0x3
 113 0003 00       		.byte	0
 114              		.text
 116              		.align	2
 117              		.globl	_ZdaPv
 119              	_ZdaPv:
 120              	.LFB4:
  27:src/_new.cpp  **** 
  28:src/_new.cpp  **** void operator delete[](void *p) noexcept
  29:src/_new.cpp  **** {
 121              		.loc 1 29 1 is_stmt 1
 122              		.cfi_startproc
 123              		.cfi_personality 0x9b,DW.ref.__gxx_personality_v0
 124              		.cfi_lsda 0x1b,.LLSDA4
 125              	.LVL6:
 126 0078 130101FF 		addi	sp,sp,-16
 127              		.cfi_def_cfa_offset 16
 128 007c 23341100 		sd	ra,8(sp)
 129 0080 23308100 		sd	s0,0(sp)
 130              		.cfi_offset 1, -8
 131              		.cfi_offset 8, -16
 132 0084 13040101 		addi	s0,sp,16
 133              		.cfi_def_cfa 8, 0
  30:src/_new.cpp  ****     //__mem_free(p);
  31:src/_new.cpp  ****     MemoryAllocator::mem_free(p);
 134              		.loc 1 31 5
 135              		.loc 1 31 30 is_stmt 0
 136 0088 97000000 		call	_ZN15MemoryAllocator8mem_freeEPv
 136      E7800000 
 137              	.LVL7:
  32:src/_new.cpp  **** }...
 138              		.loc 1 32 1
 139 0090 83308100 		ld	ra,8(sp)
 140              		.cfi_restore 1
 141 0094 03340100 		ld	s0,0(sp)
 142              		.cfi_restore 8
GAS LISTING /tmp/ccRTOiio.s 			page 4


 143              		.cfi_def_cfa 2, 16
 144 0098 13010101 		addi	sp,sp,16
 145              		.cfi_def_cfa_offset 0
 146 009c 67800000 		jr	ra
 147              		.cfi_endproc
 148              	.LFE4:
 149              		.section	.gcc_except_table
 150              	.LLSDA4:
 151 0004 FF       		.byte	0xff
 152 0005 FF       		.byte	0xff
 153 0006 03       		.byte	0x3
 154 0007 00       		.byte	0
 155              		.text
 157              	.Letext0:
 158              		.file 2 "src/../h/../lib/hw.h"
 159              		.file 3 "src/../h/MemoryAllocator.h"
 1024              		.align	3
 1027              	DW.ref.__gxx_personality_v0:
 1028 0000 00000000 		.dword	__gxx_personality_v0
 1028      00000000 
 1029              		.ident	"GCC: () 9.3.0"
GAS LISTING /tmp/ccRTOiio.s 			page 5


DEFINED SYMBOLS
                            *ABS*:0000000000000000 _new.cpp
     /tmp/ccRTOiio.s:12     .text:0000000000000000 _Znwm
     /tmp/ccRTOiio.s:16     .text:0000000000000000 .L0 
     /tmp/ccRTOiio.s:18     .text:0000000000000000 .L0 
     /tmp/ccRTOiio.s:19     .text:0000000000000004 .L0 
     /tmp/ccRTOiio.s:22     .text:000000000000000c .L0 
     /tmp/ccRTOiio.s:23     .text:000000000000000c .L0 
     /tmp/ccRTOiio.s:25     .text:0000000000000010 .L0 
     /tmp/ccRTOiio.s:27     .text:0000000000000010 .L0 
     /tmp/ccRTOiio.s:28     .text:0000000000000010 .L0 
     /tmp/ccRTOiio.s:31     .text:0000000000000018 .L0 
     /tmp/ccRTOiio.s:32     .text:000000000000001c .L0 
     /tmp/ccRTOiio.s:34     .text:0000000000000020 .L0 
     /tmp/ccRTOiio.s:35     .text:0000000000000020 .L0 
     /tmp/ccRTOiio.s:37     .text:0000000000000024 .L0 
     /tmp/ccRTOiio.s:39     .text:0000000000000028 .L0 
     /tmp/ccRTOiio.s:45     .text:0000000000000028 _Znam
     /tmp/ccRTOiio.s:48     .text:0000000000000028 .L0 
     /tmp/ccRTOiio.s:50     .text:0000000000000028 .L0 
     /tmp/ccRTOiio.s:51     .text:000000000000002c .L0 
     /tmp/ccRTOiio.s:54     .text:0000000000000034 .L0 
     /tmp/ccRTOiio.s:55     .text:0000000000000034 .L0 
     /tmp/ccRTOiio.s:57     .text:0000000000000038 .L0 
     /tmp/ccRTOiio.s:59     .text:0000000000000038 .L0 
     /tmp/ccRTOiio.s:60     .text:0000000000000038 .L0 
     /tmp/ccRTOiio.s:63     .text:0000000000000040 .L0 
     /tmp/ccRTOiio.s:64     .text:0000000000000044 .L0 
     /tmp/ccRTOiio.s:66     .text:0000000000000048 .L0 
     /tmp/ccRTOiio.s:67     .text:0000000000000048 .L0 
     /tmp/ccRTOiio.s:69     .text:000000000000004c .L0 
     /tmp/ccRTOiio.s:71     .text:0000000000000050 .L0 
     /tmp/ccRTOiio.s:77     .text:0000000000000050 _ZdlPv
     /tmp/ccRTOiio.s:80     .text:0000000000000050 .L0 
     /tmp/ccRTOiio.s:1027   .sdata.DW.ref.__gxx_personality_v0:0000000000000000 DW.ref.__gxx_personality_v0
     /tmp/ccRTOiio.s:84     .text:0000000000000050 .L0 
     /tmp/ccRTOiio.s:85     .text:0000000000000054 .L0 
     /tmp/ccRTOiio.s:88     .text:000000000000005c .L0 
     /tmp/ccRTOiio.s:89     .text:000000000000005c .L0 
     /tmp/ccRTOiio.s:91     .text:0000000000000060 .L0 
     /tmp/ccRTOiio.s:93     .text:0000000000000060 .L0 
     /tmp/ccRTOiio.s:94     .text:0000000000000060 .L0 
     /tmp/ccRTOiio.s:97     .text:0000000000000068 .L0 
     /tmp/ccRTOiio.s:98     .text:000000000000006c .L0 
     /tmp/ccRTOiio.s:100    .text:0000000000000070 .L0 
     /tmp/ccRTOiio.s:101    .text:0000000000000070 .L0 
     /tmp/ccRTOiio.s:103    .text:0000000000000074 .L0 
     /tmp/ccRTOiio.s:105    .text:0000000000000078 .L0 
     /tmp/ccRTOiio.s:119    .text:0000000000000078 _ZdaPv
     /tmp/ccRTOiio.s:122    .text:0000000000000078 .L0 
     /tmp/ccRTOiio.s:126    .text:0000000000000078 .L0 
     /tmp/ccRTOiio.s:127    .text:000000000000007c .L0 
     /tmp/ccRTOiio.s:130    .text:0000000000000084 .L0 
     /tmp/ccRTOiio.s:131    .text:0000000000000084 .L0 
     /tmp/ccRTOiio.s:133    .text:0000000000000088 .L0 
     /tmp/ccRTOiio.s:135    .text:0000000000000088 .L0 
     /tmp/ccRTOiio.s:136    .text:0000000000000088 .L0 
GAS LISTING /tmp/ccRTOiio.s 			page 6


     /tmp/ccRTOiio.s:139    .text:0000000000000090 .L0 
     /tmp/ccRTOiio.s:140    .text:0000000000000094 .L0 
     /tmp/ccRTOiio.s:142    .text:0000000000000098 .L0 
     /tmp/ccRTOiio.s:143    .text:0000000000000098 .L0 
     /tmp/ccRTOiio.s:145    .text:000000000000009c .L0 
     /tmp/ccRTOiio.s:147    .text:00000000000000a0 .L0 
     /tmp/ccRTOiio.s:160    .text:00000000000000a0 .L0 
     /tmp/ccRTOiio.s:488    .debug_abbrev:0000000000000000 .Ldebug_abbrev0
     /tmp/ccRTOiio.s:953    .debug_str:0000000000000056 .LASF30
     /tmp/ccRTOiio.s:961    .debug_str:0000000000000145 .LASF31
     /tmp/ccRTOiio.s:997    .debug_str:000000000000025e .LASF32
     /tmp/ccRTOiio.s:8      .text:0000000000000000 .Ltext0
     /tmp/ccRTOiio.s:157    .text:00000000000000a0 .Letext0
     /tmp/ccRTOiio.s:939    .debug_line:0000000000000000 .Ldebug_line0
     /tmp/ccRTOiio.s:981    .debug_str:00000000000001e5 .LASF0
     /tmp/ccRTOiio.s:975    .debug_str:00000000000001bb .LASF1
     /tmp/ccRTOiio.s:969    .debug_str:0000000000000195 .LASF2
     /tmp/ccRTOiio.s:957    .debug_str:0000000000000128 .LASF4
     /tmp/ccRTOiio.s:973    .debug_str:00000000000001a9 .LASF3
     /tmp/ccRTOiio.s:947    .debug_str:000000000000002a .LASF5
     /tmp/ccRTOiio.s:941    .debug_str:0000000000000000 .LASF6
     /tmp/ccRTOiio.s:963    .debug_str:0000000000000152 .LASF7
     /tmp/ccRTOiio.s:985    .debug_str:0000000000000202 .LASF8
     /tmp/ccRTOiio.s:955    .debug_str:000000000000011a .LASF9
     /tmp/ccRTOiio.s:1019   .debug_str:0000000000000301 .LASF10
     /tmp/ccRTOiio.s:965    .debug_str:0000000000000165 .LASF11
     /tmp/ccRTOiio.s:1001   .debug_str:00000000000002aa .LASF12
     /tmp/ccRTOiio.s:989    .debug_str:0000000000000228 .LASF13
     /tmp/ccRTOiio.s:977    .debug_str:00000000000001ce .LASF14
     /tmp/ccRTOiio.s:959    .debug_str:000000000000012f .LASF15
     /tmp/ccRTOiio.s:987    .debug_str:0000000000000212 .LASF16
     /tmp/ccRTOiio.s:993    .debug_str:0000000000000241 .LASF33
     /tmp/ccRTOiio.s:949    .debug_str:0000000000000031 .LASF17
     /tmp/ccRTOiio.s:1017   .debug_str:00000000000002fc .LASF18
     /tmp/ccRTOiio.s:1013   .debug_str:00000000000002f1 .LASF19
     /tmp/ccRTOiio.s:945    .debug_str:000000000000001a .LASF34
     /tmp/ccRTOiio.s:1007   .debug_str:00000000000002ce .LASF20
     /tmp/ccRTOiio.s:999    .debug_str:0000000000000289 .LASF22
     /tmp/ccRTOiio.s:991    .debug_str:0000000000000238 .LASF21
     /tmp/ccRTOiio.s:967    .debug_str:0000000000000174 .LASF23
     /tmp/ccRTOiio.s:1009   .debug_str:00000000000002d8 .LASF35
     /tmp/ccRTOiio.s:951    .debug_str:0000000000000036 .LASF36
     /tmp/ccRTOiio.s:979    .debug_str:00000000000001da .LASF37
     /tmp/ccRTOiio.s:995    .debug_str:000000000000024b .LASF24
     /tmp/ccRTOiio.s:943    .debug_str:0000000000000013 .LASF26
     /tmp/ccRTOiio.s:120    .text:0000000000000078 .LFB4
     /tmp/ccRTOiio.s:148    .text:00000000000000a0 .LFE4
     /tmp/ccRTOiio.s:870    .debug_loc:0000000000000000 .LLST3
     /tmp/ccRTOiio.s:137    .text:0000000000000090 .LVL7
     /tmp/ccRTOiio.s:983    .debug_str:00000000000001f2 .LASF25
     /tmp/ccRTOiio.s:1003   .debug_str:00000000000002ba .LASF27
     /tmp/ccRTOiio.s:78     .text:0000000000000050 .LFB3
     /tmp/ccRTOiio.s:106    .text:0000000000000078 .LFE3
     /tmp/ccRTOiio.s:884    .debug_loc:0000000000000039 .LLST2
     /tmp/ccRTOiio.s:95     .text:0000000000000068 .LVL5
     /tmp/ccRTOiio.s:1011   .debug_str:00000000000002e1 .LASF38
     /tmp/ccRTOiio.s:971    .debug_str:00000000000001a3 .LASF39
GAS LISTING /tmp/ccRTOiio.s 			page 7


     /tmp/ccRTOiio.s:46     .text:0000000000000028 .LFB2
     /tmp/ccRTOiio.s:72     .text:0000000000000050 .LFE2
     /tmp/ccRTOiio.s:898    .debug_loc:0000000000000072 .LLST1
     /tmp/ccRTOiio.s:61     .text:0000000000000040 .LVL3
     /tmp/ccRTOiio.s:1005   .debug_str:00000000000002c1 .LASF28
     /tmp/ccRTOiio.s:1015   .debug_str:00000000000002f6 .LASF29
     /tmp/ccRTOiio.s:13     .text:0000000000000000 .LFB1
     /tmp/ccRTOiio.s:40     .text:0000000000000028 .LFE1
     /tmp/ccRTOiio.s:912    .debug_loc:00000000000000ab .LLST0
     /tmp/ccRTOiio.s:29     .text:0000000000000018 .LVL1
     /tmp/ccRTOiio.s:125    .text:0000000000000078 .LVL6
     /tmp/ccRTOiio.s:83     .text:0000000000000050 .LVL4
     /tmp/ccRTOiio.s:49     .text:0000000000000028 .LVL2
     /tmp/ccRTOiio.s:17     .text:0000000000000000 .LVL0
     /tmp/ccRTOiio.s:161    .debug_info:0000000000000000 .Ldebug_info0
     /tmp/ccRTOiio.s:109    .gcc_except_table:0000000000000000 .LLSDA3
     /tmp/ccRTOiio.s:150    .gcc_except_table:0000000000000004 .LLSDA4

UNDEFINED SYMBOLS
_ZN15MemoryAllocator9mem_allocEm
_ZN15MemoryAllocator8mem_freeEPv
__gxx_personality_v0
