GAS LISTING /tmp/ccj5YIot.s 			page 1


   1              		.file	"_thread.cpp"
   2              		.option nopic
   3              		.option norelax
   4              		.attribute arch, "rv64i2p0_m2p0_a2p0"
   5              		.attribute unaligned_access, 0
   6              		.attribute stack_align, 16
   7              		.text
   8              	.Ltext0:
   9              		.align	2
  10              		.globl	_ZN7_thread5yieldEv
  12              	_ZN7_thread5yieldEv:
  13              	.LFB32:
  14              		.file 1 "src/_thread.cpp"
   1:src/_thread.cpp **** //
   2:src/_thread.cpp **** // Created by basara on 20.6.24..
   3:src/_thread.cpp **** //
   4:src/_thread.cpp **** 
   5:src/_thread.cpp **** #include "../h/_thread.hpp"
   6:src/_thread.cpp **** #include "../h/riscv.hpp"
   7:src/_thread.cpp **** 
   8:src/_thread.cpp **** _thread* _thread::running = nullptr;
   9:src/_thread.cpp **** 
  10:src/_thread.cpp **** void _thread::yield(){
  15              		.loc 1 10 22
  16              		.cfi_startproc
  17 0000 130101FF 		addi	sp,sp,-16
  18              		.cfi_def_cfa_offset 16
  19 0004 23348100 		sd	s0,8(sp)
  20              		.cfi_offset 8, -8
  21 0008 13040101 		addi	s0,sp,16
  22              		.cfi_def_cfa 8, 0
  11:src/_thread.cpp ****     uint64 fcode = 0x13;
  23              		.loc 1 11 5
  24              	.LVL0:
  12:src/_thread.cpp ****     asm volatile("mv a0, %0" : : "r" (fcode));  //a0 <- 13
  25              		.loc 1 12 5
  26              		.loc 1 12 46 is_stmt 0
  27 000c 93073001 		li	a5,19
  28              	 #APP
  29              	# 12 "src/_thread.cpp" 1
  13              	    asm volatile("ecall");
  30              		mv a0, a5
  31              	# 0 "" 2
  32              		.loc 1 13 5 is_stmt 1
  33              		.loc 1 13 26 is_stmt 0
  34              	# 13 "src/_thread.cpp" 1
  14              	}
  35              		ecall
  36              	# 0 "" 2
  37              		.loc 1 14 1
  38              	 #NO_APP
  39 0018 03348100 		ld	s0,8(sp)
  40              		.cfi_restore 8
  41              		.cfi_def_cfa 2, 16
  42 001c 13010101 		addi	sp,sp,16
  43              		.cfi_def_cfa_offset 0
  44 0020 67800000 		jr	ra
GAS LISTING /tmp/ccj5YIot.s 			page 2


  45              		.cfi_endproc
  46              	.LFE32:
  48              		.align	2
  49              		.globl	_ZN7_thread13threadWrapperEv
  51              	_ZN7_thread13threadWrapperEv:
  52              	.LFB36:
  15:src/_thread.cpp **** 
  16:src/_thread.cpp **** int _thread::create_thread(thread_t* handle, Body body, void* arg, void* stack_space){
  17:src/_thread.cpp **** 
  18:src/_thread.cpp ****     *handle = new _thread(body, arg, stack_space);
  19:src/_thread.cpp ****     if(*handle != nullptr) return 0;//mozda treba !=nullptr
  20:src/_thread.cpp ****     return -1;
  21:src/_thread.cpp **** }
  22:src/_thread.cpp **** 
  23:src/_thread.cpp **** 
  24:src/_thread.cpp **** void _thread::thread_dispatch(){
  25:src/_thread.cpp ****     _thread *old = running;
  26:src/_thread.cpp ****     if(!old->isFinished()){ Scheduler::put(old);}//ako se menja a nije gotova stavljam u skedzuler
  27:src/_thread.cpp ****     running = Scheduler::get();
  28:src/_thread.cpp **** 
  29:src/_thread.cpp ****     //trenutni ra cuvam u old->context, a novi ra uzimam iz running->context i stavljam u ra regist
  30:src/_thread.cpp ****     _thread::contextSwitch(&old->context, &running->context);
  31:src/_thread.cpp **** }
  32:src/_thread.cpp **** 
  33:src/_thread.cpp **** int _thread::thread_exit() {
  34:src/_thread.cpp ****     _thread::running->setFinished(true);
  35:src/_thread.cpp ****     delete _thread::running;
  36:src/_thread.cpp ****     _thread::yield();
  37:src/_thread.cpp ****     return 0;
  38:src/_thread.cpp **** }
  39:src/_thread.cpp **** 
  40:src/_thread.cpp **** void _thread::threadWrapper() {
  53              		.loc 1 40 31 is_stmt 1
  54              		.cfi_startproc
  55 0024 130101FE 		addi	sp,sp,-32
  56              		.cfi_def_cfa_offset 32
  57 0028 233C1100 		sd	ra,24(sp)
  58 002c 23388100 		sd	s0,16(sp)
  59 0030 23349100 		sd	s1,8(sp)
  60              		.cfi_offset 1, -8
  61              		.cfi_offset 8, -16
  62              		.cfi_offset 9, -24
  63 0034 13040102 		addi	s0,sp,32
  64              		.cfi_def_cfa 8, 0
  41:src/_thread.cpp ****     Riscv::popSppSpie();
  65              		.loc 1 41 5
  66              		.loc 1 41 22 is_stmt 0
  67 0038 97000000 		call	_ZN5Riscv10popSppSpieEv
  67      E7800000 
  68              	.LVL1:
  42:src/_thread.cpp ****     running->body(running->arg);
  69              		.loc 1 42 5 is_stmt 1
  70              		.loc 1 42 14 is_stmt 0
  71 0040 97040000 		lla	s1,_ZN7_thread7runningE
  71      93840400 
  72 0048 83B70400 		ld	a5,0(s1)
  73 004c 03B70700 		ld	a4,0(a5)
GAS LISTING /tmp/ccj5YIot.s 			page 3


  74              		.loc 1 42 18
  75 0050 03B50702 		ld	a0,32(a5)
  76 0054 E7000700 		jalr	a4
  77              	.LVL2:
  43:src/_thread.cpp ****     running->setFinished(true);//kada se sve zavrsi postavi da je kraj
  78              		.loc 1 43 5 is_stmt 1
  79              		.loc 1 43 25 is_stmt 0
  80 0058 83B70400 		ld	a5,0(s1)
  81              	.LVL3:
  82              	.LBB14:
  83              	.LBB15:
  84              		.file 2 "src/../h/_thread.hpp"
   1:src/../h/_thread.hpp **** //
   2:src/../h/_thread.hpp **** // Created by basara on 19.6.24..
   3:src/../h/_thread.hpp **** //
   4:src/../h/_thread.hpp **** 
   5:src/../h/_thread.hpp **** #ifndef PROJECT_BASE_HPP
   6:src/../h/_thread.hpp **** #define PROJECT_BASE_HPP
   7:src/../h/_thread.hpp **** 
   8:src/../h/_thread.hpp **** #include "../lib/hw.h"
   9:src/../h/_thread.hpp **** #include "scheduler.hpp"
  10:src/../h/_thread.hpp **** 
  11:src/../h/_thread.hpp **** typedef _thread* thread_t;
  12:src/../h/_thread.hpp **** class _thread{
  13:src/../h/_thread.hpp **** public:
  14:src/../h/_thread.hpp ****     static _thread *running;
  15:src/../h/_thread.hpp **** 
  16:src/../h/_thread.hpp ****     ~_thread() {delete[] stack;}
  17:src/../h/_thread.hpp **** 
  18:src/../h/_thread.hpp ****     bool isFinished() const { return finished; }
  19:src/../h/_thread.hpp **** 
  20:src/../h/_thread.hpp ****     void setFinished(bool fin) { _thread::finished = fin; }
  85              		.loc 2 20 34 is_stmt 1
  86              		.loc 2 20 52 is_stmt 0
  87 005c 13071000 		li	a4,1
  88 0060 2384E702 		sb	a4,40(a5)
  89              	.LVL4:
  90              	.LBE15:
  91              	.LBE14:
  44:src/_thread.cpp ****     _thread::yield();
  92              		.loc 1 44 5 is_stmt 1
  93              		.loc 1 44 19 is_stmt 0
  94 0064 97000000 		call	_ZN7_thread5yieldEv
  94      E7800000 
  95              	.LVL5:
  45:src/_thread.cpp **** }
  96              		.loc 1 45 1
  97 006c 83308101 		ld	ra,24(sp)
  98              		.cfi_restore 1
  99 0070 03340101 		ld	s0,16(sp)
 100              		.cfi_restore 8
 101              		.cfi_def_cfa 2, 32
 102 0074 83348100 		ld	s1,8(sp)
 103              		.cfi_restore 9
 104 0078 13010102 		addi	sp,sp,32
 105              		.cfi_def_cfa_offset 0
 106 007c 67800000 		jr	ra
GAS LISTING /tmp/ccj5YIot.s 			page 4


 107              		.cfi_endproc
 108              	.LFE36:
 110              		.align	2
 111              		.globl	_ZN7_thread13create_threadEPPS_PFvPvES2_S2_
 113              	_ZN7_thread13create_threadEPPS_PFvPvES2_S2_:
 114              	.LFB33:
  16:src/_thread.cpp **** 
 115              		.loc 1 16 86 is_stmt 1
 116              		.cfi_startproc
 117              		.cfi_personality 0x9b,DW.ref.__gxx_personality_v0
 118              		.cfi_lsda 0x1b,.LLSDA33
 119              	.LVL6:
 120 0080 130101FC 		addi	sp,sp,-64
 121              		.cfi_def_cfa_offset 64
 122 0084 233C1102 		sd	ra,56(sp)
 123 0088 23388102 		sd	s0,48(sp)
 124 008c 23349102 		sd	s1,40(sp)
 125 0090 23302103 		sd	s2,32(sp)
 126 0094 233C3101 		sd	s3,24(sp)
 127 0098 23384101 		sd	s4,16(sp)
 128 009c 23345101 		sd	s5,8(sp)
 129              		.cfi_offset 1, -8
 130              		.cfi_offset 8, -16
 131              		.cfi_offset 9, -24
 132              		.cfi_offset 18, -32
 133              		.cfi_offset 19, -40
 134              		.cfi_offset 20, -48
 135              		.cfi_offset 21, -56
 136 00a0 13040104 		addi	s0,sp,64
 137              		.cfi_def_cfa 8, 0
 138 00a4 130A0500 		mv	s4,a0
 139 00a8 93890500 		mv	s3,a1
 140 00ac 930A0600 		mv	s5,a2
 141 00b0 13890600 		mv	s2,a3
  18:src/_thread.cpp ****     if(*handle != nullptr) return 0;//mozda treba !=nullptr
 142              		.loc 1 18 5
  18:src/_thread.cpp ****     if(*handle != nullptr) return 0;//mozda treba !=nullptr
 143              		.loc 1 18 49 is_stmt 0
 144 00b4 13050003 		li	a0,48
 145              	.LVL7:
 146              	.LEHB0:
 147 00b8 97000000 		call	_Znwm
 147      E7800000 
 148              	.LVL8:
 149              	.LEHE0:
 150 00c0 93040500 		mv	s1,a0
 151              	.LVL9:
 152              	.LBB16:
 153              	.LBB17:
  21:src/../h/_thread.hpp **** 
  22:src/../h/_thread.hpp ****     using Body = void (*)(void(*)); //pokazivac na funkciju koja nema argumente ni povratnu vrednos
  23:src/../h/_thread.hpp **** 
  24:src/../h/_thread.hpp ****     static int create_thread(thread_t* handle, Body body, void* arg, void* stack_space);
  25:src/../h/_thread.hpp **** 
  26:src/../h/_thread.hpp ****     static void yield();
  27:src/../h/_thread.hpp **** 
  28:src/../h/_thread.hpp ****     static int thread_exit();
GAS LISTING /tmp/ccj5YIot.s 			page 5


  29:src/../h/_thread.hpp **** 
  30:src/../h/_thread.hpp **** private:
  31:src/../h/_thread.hpp ****     _thread(Body body, void* arg, void* stack_space):
  32:src/../h/_thread.hpp ****         body(body),
  33:src/../h/_thread.hpp ****         stack(static_cast<uint64 *>(body != nullptr ? stack_space : nullptr)),
  34:src/../h/_thread.hpp ****         context({
  35:src/../h/_thread.hpp ****             (uint64) &threadWrapper,//uvek izvrsavanje krece od tredVrepera kada zapocne neka nit
  36:src/../h/_thread.hpp ****                                         // da se izvrsava treba da krene u kontekst svicu, tako sto
  37:src/../h/_thread.hpp ****             stack != nullptr ? (uint64) &stack[DEFAULT_STACK_SIZE] : 0
  38:src/../h/_thread.hpp ****         }),
  39:src/../h/_thread.hpp ****         arg(arg),
  40:src/../h/_thread.hpp ****         finished(false) {
 154              		.loc 2 40 23
 155 00c4 23303501 		sd	s3,0(a0)
  33:src/../h/_thread.hpp ****         context({
 156              		.loc 2 33 15
 157 00c8 63800904 		beqz	s3,.L17
 158              	.LVL10:
 159              	.L6:
 160              		.loc 2 40 23
 161 00cc 23B42401 		sd	s2,8(s1)
 162 00d0 97070000 		lla	a5,_ZN7_thread13threadWrapperEv
 162      93870700 
 163 00d8 23B8F400 		sd	a5,16(s1)
  37:src/../h/_thread.hpp ****         }),
 164              		.loc 2 37 30
 165 00dc 630A0902 		beqz	s2,.L12
  37:src/../h/_thread.hpp ****         }),
 166              		.loc 2 37 41
 167 00e0 B7860000 		li	a3,32768
 168 00e4 3309D900 		add	s2,s2,a3
 169              	.L7:
 170              		.loc 2 40 23
 171 00e8 23BC2401 		sd	s2,24(s1)
 172 00ec 23B05403 		sd	s5,32(s1)
 173 00f0 23840402 		sb	zero,40(s1)
  41:src/../h/_thread.hpp ****         if (body != nullptr) { Scheduler::put(this); } //zbog maina da ne bi opet ubaciovao u skedz
 174              		.loc 2 41 9 is_stmt 1
 175 00f4 63820902 		beqz	s3,.L8
 176              		.loc 2 41 32
 177              		.loc 2 41 46 is_stmt 0
 178 00f8 13850400 		mv	a0,s1
 179              	.LEHB1:
 180 00fc 97000000 		call	_ZN9Scheduler3putEP7_thread
 180      E7800000 
 181              	.LVL11:
 182              	.LEHE1:
 183 0104 6F004001 		j	.L8
 184              	.LVL12:
 185              	.L17:
  33:src/../h/_thread.hpp ****         context({
 186              		.loc 2 33 15
 187 0108 13090000 		li	s2,0
 188              	.LVL13:
 189 010c 6FF01FFC 		j	.L6
 190              	.L12:
  37:src/../h/_thread.hpp ****         }),
GAS LISTING /tmp/ccj5YIot.s 			page 6


 191              		.loc 2 37 30
 192 0110 13090000 		li	s2,0
 193 0114 6FF05FFD 		j	.L7
 194              	.L8:
 195              	.LVL14:
 196              	.LBE17:
 197              	.LBE16:
  18:src/_thread.cpp ****     if(*handle != nullptr) return 0;//mozda treba !=nullptr
 198              		.loc 1 18 13
 199 0118 23309A00 		sd	s1,0(s4)
  19:src/_thread.cpp ****     return -1;
 200              		.loc 1 19 5 is_stmt 1
 201 011c 63860402 		beqz	s1,.L18
  19:src/_thread.cpp ****     return -1;
 202              		.loc 1 19 35 is_stmt 0
 203 0120 13050000 		li	a0,0
 204              	.L15:
  21:src/_thread.cpp **** 
 205              		.loc 1 21 1
 206 0124 83308103 		ld	ra,56(sp)
 207              		.cfi_remember_state
 208              		.cfi_restore 1
 209 0128 03340103 		ld	s0,48(sp)
 210              		.cfi_restore 8
 211              		.cfi_def_cfa 2, 64
 212 012c 83348102 		ld	s1,40(sp)
 213              		.cfi_restore 9
 214 0130 03390102 		ld	s2,32(sp)
 215              		.cfi_restore 18
 216 0134 83398101 		ld	s3,24(sp)
 217              		.cfi_restore 19
 218              	.LVL15:
 219 0138 033A0101 		ld	s4,16(sp)
 220              		.cfi_restore 20
 221              	.LVL16:
 222 013c 833A8100 		ld	s5,8(sp)
 223              		.cfi_restore 21
 224              	.LVL17:
 225 0140 13010104 		addi	sp,sp,64
 226              		.cfi_def_cfa_offset 0
 227 0144 67800000 		jr	ra
 228              	.LVL18:
 229              	.L18:
 230              		.cfi_restore_state
  20:src/_thread.cpp **** }
 231              		.loc 1 20 13
 232 0148 1305F0FF 		li	a0,-1
 233 014c 6FF09FFD 		j	.L15
 234              	.LVL19:
 235              	.L14:
 236 0150 13090500 		mv	s2,a0
  18:src/_thread.cpp ****     if(*handle != nullptr) return 0;//mozda treba !=nullptr
 237              		.loc 1 18 49
 238 0154 13850400 		mv	a0,s1
 239 0158 97000000 		call	_ZdlPv
 239      E7800000 
 240              	.LVL20:
GAS LISTING /tmp/ccj5YIot.s 			page 7


 241 0160 13050900 		mv	a0,s2
 242              	.LEHB2:
 243 0164 97000000 		call	_Unwind_Resume
 243      E7800000 
 244              	.LVL21:
 245              	.LEHE2:
 246              		.cfi_endproc
 247              	.LFE33:
 248              		.globl	__gxx_personality_v0
 249              		.section	.gcc_except_table,"aw",@progbits
 250              	.LLSDA33:
 251 0000 FF       		.byte	0xff
 252 0001 FF       		.byte	0xff
 253 0002 03       		.byte	0x3
 254 0003 27       		.byte	0x27
 255 0004 00000000 		.4byte	.LEHB0-.LFB33
 256 0008 00000000 		.4byte	.LEHE0-.LEHB0
 257 000c 00000000 		.4byte	0
 258 0010 00       		.byte	0
 259 0011 00000000 		.4byte	.LEHB1-.LFB33
 260 0015 00000000 		.4byte	.LEHE1-.LEHB1
 261 0019 00000000 		.4byte	.L14-.LFB33
 262 001d 00       		.byte	0
 263 001e 00000000 		.4byte	.LEHB2-.LFB33
 264 0022 00000000 		.4byte	.LEHE2-.LEHB2
 265 0026 00000000 		.4byte	0
 266 002a 00       		.byte	0
 267              		.text
 269              		.align	2
 270              		.globl	_ZN7_thread15thread_dispatchEv
 272              	_ZN7_thread15thread_dispatchEv:
 273              	.LFB34:
  24:src/_thread.cpp ****     _thread *old = running;
 274              		.loc 1 24 32 is_stmt 1
 275              		.cfi_startproc
 276 016c 130101FE 		addi	sp,sp,-32
 277              		.cfi_def_cfa_offset 32
 278 0170 233C1100 		sd	ra,24(sp)
 279 0174 23388100 		sd	s0,16(sp)
 280 0178 23349100 		sd	s1,8(sp)
 281              		.cfi_offset 1, -8
 282              		.cfi_offset 8, -16
 283              		.cfi_offset 9, -24
 284 017c 13040102 		addi	s0,sp,32
 285              		.cfi_def_cfa 8, 0
  25:src/_thread.cpp ****     if(!old->isFinished()){ Scheduler::put(old);}//ako se menja a nije gotova stavljam u skedzuler
 286              		.loc 1 25 5
  25:src/_thread.cpp ****     if(!old->isFinished()){ Scheduler::put(old);}//ako se menja a nije gotova stavljam u skedzuler
 287              		.loc 1 25 14 is_stmt 0
 288 0180 97040000 		ld	s1,_ZN7_thread7runningE
 288      83B40400 
 289              	.LVL22:
  26:src/_thread.cpp ****     running = Scheduler::get();
 290              		.loc 1 26 5 is_stmt 1
 291              	.LBB18:
 292              	.LBB19:
  18:src/../h/_thread.hpp **** 
GAS LISTING /tmp/ccj5YIot.s 			page 8


 293              		.loc 2 18 31
  18:src/../h/_thread.hpp **** 
 294              		.loc 2 18 38 is_stmt 0
 295 0188 83C78402 		lbu	a5,40(s1)
 296              	.LVL23:
 297              	.LBE19:
 298              	.LBE18:
  26:src/_thread.cpp ****     running = Scheduler::get();
 299              		.loc 1 26 5
 300 018c 638C0702 		beqz	a5,.L22
 301              	.L20:
  27:src/_thread.cpp **** 
 302              		.loc 1 27 5 is_stmt 1
  27:src/_thread.cpp **** 
 303              		.loc 1 27 29 is_stmt 0
 304 0190 97000000 		call	_ZN9Scheduler3getEv
 304      E7800000 
 305              	.LVL24:
  27:src/_thread.cpp **** 
 306              		.loc 1 27 13
 307 0198 97070000 		sd	a0,_ZN7_thread7runningE,a5
 307      23B0A700 
  30:src/_thread.cpp **** }
 308              		.loc 1 30 5 is_stmt 1
  30:src/_thread.cpp **** }
 309              		.loc 1 30 27 is_stmt 0
 310 01a0 93050501 		addi	a1,a0,16
 311 01a4 13850401 		addi	a0,s1,16
 312 01a8 97000000 		call	_ZN7_thread13contextSwitchEPNS_7ContextES1_
 312      E7800000 
 313              	.LVL25:
  31:src/_thread.cpp **** 
 314              		.loc 1 31 1
 315 01b0 83308101 		ld	ra,24(sp)
 316              		.cfi_remember_state
 317              		.cfi_restore 1
 318 01b4 03340101 		ld	s0,16(sp)
 319              		.cfi_restore 8
 320              		.cfi_def_cfa 2, 32
 321 01b8 83348100 		ld	s1,8(sp)
 322              		.cfi_restore 9
 323              	.LVL26:
 324 01bc 13010102 		addi	sp,sp,32
 325              		.cfi_def_cfa_offset 0
 326 01c0 67800000 		jr	ra
 327              	.LVL27:
 328              	.L22:
 329              		.cfi_restore_state
  26:src/_thread.cpp ****     running = Scheduler::get();
 330              		.loc 1 26 29 is_stmt 1 discriminator 1
  26:src/_thread.cpp ****     running = Scheduler::get();
 331              		.loc 1 26 43 is_stmt 0 discriminator 1
 332 01c4 13850400 		mv	a0,s1
 333 01c8 97000000 		call	_ZN9Scheduler3putEP7_thread
 333      E7800000 
 334              	.LVL28:
 335 01d0 6FF01FFC 		j	.L20
GAS LISTING /tmp/ccj5YIot.s 			page 9


 336              		.cfi_endproc
 337              	.LFE34:
 339              		.align	2
 340              		.globl	_ZN7_thread11thread_exitEv
 342              	_ZN7_thread11thread_exitEv:
 343              	.LFB35:
  33:src/_thread.cpp ****     _thread::running->setFinished(true);
 344              		.loc 1 33 28 is_stmt 1
 345              		.cfi_startproc
 346 01d4 130101FE 		addi	sp,sp,-32
 347              		.cfi_def_cfa_offset 32
 348 01d8 233C1100 		sd	ra,24(sp)
 349 01dc 23388100 		sd	s0,16(sp)
 350 01e0 23349100 		sd	s1,8(sp)
 351              		.cfi_offset 1, -8
 352              		.cfi_offset 8, -16
 353              		.cfi_offset 9, -24
 354 01e4 13040102 		addi	s0,sp,32
 355              		.cfi_def_cfa 8, 0
  34:src/_thread.cpp ****     delete _thread::running;
 356              		.loc 1 34 5
  34:src/_thread.cpp ****     delete _thread::running;
 357              		.loc 1 34 34 is_stmt 0
 358 01e8 97040000 		ld	s1,_ZN7_thread7runningE
 358      83B40400 
 359              	.LVL29:
 360              	.LBB20:
 361              	.LBB21:
  20:src/../h/_thread.hpp **** 
 362              		.loc 2 20 34 is_stmt 1
  20:src/../h/_thread.hpp **** 
 363              		.loc 2 20 52 is_stmt 0
 364 01f0 93071000 		li	a5,1
 365 01f4 2384F402 		sb	a5,40(s1)
 366              	.LVL30:
 367              	.LBE21:
 368              	.LBE20:
  35:src/_thread.cpp ****     _thread::yield();
 369              		.loc 1 35 5 is_stmt 1
  35:src/_thread.cpp ****     _thread::yield();
 370              		.loc 1 35 28 is_stmt 0
 371 01f8 63800402 		beqz	s1,.L24
 372              	.LVL31:
 373              	.LBB22:
 374              	.LBB23:
  16:src/../h/_thread.hpp **** 
 375              		.loc 2 16 17 is_stmt 1
  16:src/../h/_thread.hpp **** 
 376              		.loc 2 16 26 is_stmt 0
 377 01fc 03B58400 		ld	a0,8(s1)
  16:src/../h/_thread.hpp **** 
 378              		.loc 2 16 31
 379 0200 63060500 		beqz	a0,.L25
  16:src/../h/_thread.hpp **** 
 380              		.loc 2 16 26
 381 0204 97000000 		call	_ZdaPv
 381      E7800000 
GAS LISTING /tmp/ccj5YIot.s 			page 10


 382              	.LVL32:
 383              	.L25:
 384              	.LBE23:
 385              	.LBE22:
  35:src/_thread.cpp ****     _thread::yield();
 386              		.loc 1 35 21
 387 020c 13850400 		mv	a0,s1
 388 0210 97000000 		call	_ZdlPv
 388      E7800000 
 389              	.LVL33:
 390              	.L24:
  36:src/_thread.cpp ****     return 0;
 391              		.loc 1 36 5 is_stmt 1
  36:src/_thread.cpp ****     return 0;
 392              		.loc 1 36 19 is_stmt 0
 393 0218 97000000 		call	_ZN7_thread5yieldEv
 393      E7800000 
 394              	.LVL34:
  37:src/_thread.cpp **** }
 395              		.loc 1 37 5 is_stmt 1
  38:src/_thread.cpp **** 
 396              		.loc 1 38 1 is_stmt 0
 397 0220 13050000 		li	a0,0
 398 0224 83308101 		ld	ra,24(sp)
 399              		.cfi_restore 1
 400 0228 03340101 		ld	s0,16(sp)
 401              		.cfi_restore 8
 402              		.cfi_def_cfa 2, 32
 403 022c 83348100 		ld	s1,8(sp)
 404              		.cfi_restore 9
 405 0230 13010102 		addi	sp,sp,32
 406              		.cfi_def_cfa_offset 0
 407 0234 67800000 		jr	ra
 408              		.cfi_endproc
 409              	.LFE35:
 411              		.globl	_ZN7_thread7runningE
 412              		.section	.sbss,"aw",@nobits
 413              		.align	3
 416              	_ZN7_thread7runningE:
 417 0000 00000000 		.zero	8
 417      00000000 
 418              		.text
 419              	.Letext0:
 420              		.file 3 "src/../h/../lib/hw.h"
 421              		.file 4 "src/../h/scheduler.hpp"
 422              		.file 5 "src/../h/riscv.hpp"
 2664              		.align	3
 2667              	DW.ref.__gxx_personality_v0:
 2668 0000 00000000 		.dword	__gxx_personality_v0
 2668      00000000 
 2669              		.ident	"GCC: () 9.3.0"
GAS LISTING /tmp/ccj5YIot.s 			page 11

