GAS LISTING /tmp/ccCD5d1Y.s 			page 1


   1              		.file	"_thread.cpp"
   2              		.option nopic
   3              		.option norelax
   4              		.attribute arch, "rv64i2p0_m2p0_a2p0"
   5              		.attribute unaligned_access, 0
   6              		.attribute stack_align, 16
   7              		.text
   8              	.Ltext0:
   9              		.align	2
  10              		.globl	_ZN7_thread13create_threadEPPS_PFvPvES2_S2_
  12              	_ZN7_thread13create_threadEPPS_PFvPvES2_S2_:
  13              	.LFB32:
  14              		.file 1 "src/_thread.cpp"
   1:src/_thread.cpp **** //
   2:src/_thread.cpp **** // Created by basara on 20.6.24..
   3:src/_thread.cpp **** //
   4:src/_thread.cpp **** 
   5:src/_thread.cpp **** #include "../h/_thread.hpp"
   6:src/_thread.cpp **** #include "../h/riscv.hpp"
   7:src/_thread.cpp **** 
   8:src/_thread.cpp **** _thread* _thread::running = nullptr;
   9:src/_thread.cpp **** 
  10:src/_thread.cpp **** int _thread::create_thread(thread_t* handle, Body body, void* arg, void* stack_space){
  15              		.loc 1 10 86
  16              		.cfi_startproc
  17              		.cfi_personality 0x9b,DW.ref.__gxx_personality_v0
  18              		.cfi_lsda 0x1b,.LLSDA32
  19              	.LVL0:
  20 0000 130101FC 		addi	sp,sp,-64
  21              		.cfi_def_cfa_offset 64
  22 0004 233C1102 		sd	ra,56(sp)
  23 0008 23388102 		sd	s0,48(sp)
  24 000c 23349102 		sd	s1,40(sp)
  25 0010 23302103 		sd	s2,32(sp)
  26 0014 233C3101 		sd	s3,24(sp)
  27 0018 23384101 		sd	s4,16(sp)
  28 001c 23345101 		sd	s5,8(sp)
  29              		.cfi_offset 1, -8
  30              		.cfi_offset 8, -16
  31              		.cfi_offset 9, -24
  32              		.cfi_offset 18, -32
  33              		.cfi_offset 19, -40
  34              		.cfi_offset 20, -48
  35              		.cfi_offset 21, -56
  36 0020 13040104 		addi	s0,sp,64
  37              		.cfi_def_cfa 8, 0
  38 0024 130A0500 		mv	s4,a0
  39 0028 93890500 		mv	s3,a1
  40 002c 930A0600 		mv	s5,a2
  41 0030 13890600 		mv	s2,a3
  11:src/_thread.cpp **** 
  12:src/_thread.cpp ****     *handle = new _thread(body, arg, stack_space);
  42              		.loc 1 12 5
  43              		.loc 1 12 49 is_stmt 0
  44 0034 13050003 		li	a0,48
  45              	.LVL1:
  46              	.LEHB0:
GAS LISTING /tmp/ccCD5d1Y.s 			page 2


  47 0038 97000000 		call	_Znwm
  47      E7800000 
  48              	.LVL2:
  49              	.LEHE0:
  50 0040 93040500 		mv	s1,a0
  51              	.LVL3:
  52              	.LBB13:
  53              	.LBB14:
  54              		.file 2 "src/../h/_thread.hpp"
   1:src/../h/_thread.hpp **** //
   2:src/../h/_thread.hpp **** // Created by basara on 19.6.24..
   3:src/../h/_thread.hpp **** //
   4:src/../h/_thread.hpp **** 
   5:src/../h/_thread.hpp **** #ifndef PROJECT_BASE_HPP
   6:src/../h/_thread.hpp **** #define PROJECT_BASE_HPP
   7:src/../h/_thread.hpp **** 
   8:src/../h/_thread.hpp **** #include "../lib/hw.h"
   9:src/../h/_thread.hpp **** #include "scheduler.hpp"
  10:src/../h/_thread.hpp **** 
  11:src/../h/_thread.hpp **** typedef _thread* thread_t;
  12:src/../h/_thread.hpp **** class _thread{
  13:src/../h/_thread.hpp **** public:
  14:src/../h/_thread.hpp ****     static _thread *running;
  15:src/../h/_thread.hpp **** 
  16:src/../h/_thread.hpp ****     using Body = void (*)(void(*)); //pokazivac na funkciju koja nema argumente ni povratnu vrednos
  17:src/../h/_thread.hpp **** 
  18:src/../h/_thread.hpp ****     ~_thread() {delete[] stack;}
  19:src/../h/_thread.hpp **** 
  20:src/../h/_thread.hpp ****     bool isFinished() const { return finished; }
  21:src/../h/_thread.hpp **** 
  22:src/../h/_thread.hpp ****     void setFinished(bool fin) { _thread::finished = fin; }
  23:src/../h/_thread.hpp **** 
  24:src/../h/_thread.hpp ****     static int create_thread(thread_t* handle, Body body, void* arg, void* stack_space);
  25:src/../h/_thread.hpp **** 
  26:src/../h/_thread.hpp ****     static int thread_exit();
  27:src/../h/_thread.hpp **** 
  28:src/../h/_thread.hpp **** private:
  29:src/../h/_thread.hpp ****     _thread(Body body, void* arg, void* stack_space):
  30:src/../h/_thread.hpp ****         body(body),
  31:src/../h/_thread.hpp ****         stack(static_cast<uint64 *>(body != nullptr ? stack_space : nullptr)),
  32:src/../h/_thread.hpp ****         context({
  33:src/../h/_thread.hpp ****             (uint64) &threadWrapper,//uvek izvrsavanje krece od tredVrepera kada zapocne neka nit
  34:src/../h/_thread.hpp ****                                         // da se izvrsava treba da krene u kontekst svicu, tako sto
  35:src/../h/_thread.hpp ****             stack != nullptr ? (uint64) &stack[DEFAULT_STACK_SIZE] : 0
  36:src/../h/_thread.hpp ****         }),
  37:src/../h/_thread.hpp ****         arg(arg),
  38:src/../h/_thread.hpp ****         finished(false){
  55              		.loc 2 38 23
  56 0044 23303501 		sd	s3,0(a0)
  31:src/../h/_thread.hpp ****         context({
  57              		.loc 2 31 15
  58 0048 63800904 		beqz	s3,.L13
  59              	.LVL4:
  60              	.L2:
  61              		.loc 2 38 23
  62 004c 23B42401 		sd	s2,8(s1)
  63 0050 97070000 		lla	a5,_ZN7_thread13threadWrapperEv
GAS LISTING /tmp/ccCD5d1Y.s 			page 3


  63      93870700 
  64 0058 23B8F400 		sd	a5,16(s1)
  35:src/../h/_thread.hpp ****         }),
  65              		.loc 2 35 30
  66 005c 630A0902 		beqz	s2,.L8
  35:src/../h/_thread.hpp ****         }),
  67              		.loc 2 35 41
  68 0060 B7860000 		li	a3,32768
  69 0064 3309D900 		add	s2,s2,a3
  70              	.L3:
  71              		.loc 2 38 23
  72 0068 23BC2401 		sd	s2,24(s1)
  73 006c 23B05403 		sd	s5,32(s1)
  74 0070 23840402 		sb	zero,40(s1)
  39:src/../h/_thread.hpp ****         if (body != nullptr) { Scheduler::put(this); } //zbog maina da ne bi opet ubaciovao u skedz
  75              		.loc 2 39 9 is_stmt 1
  76 0074 63820902 		beqz	s3,.L4
  77              		.loc 2 39 32
  78              		.loc 2 39 46 is_stmt 0
  79 0078 13850400 		mv	a0,s1
  80              	.LEHB1:
  81 007c 97000000 		call	_ZN9Scheduler3putEP7_thread
  81      E7800000 
  82              	.LVL5:
  83              	.LEHE1:
  84 0084 6F004001 		j	.L4
  85              	.LVL6:
  86              	.L13:
  31:src/../h/_thread.hpp ****         context({
  87              		.loc 2 31 15
  88 0088 13090000 		li	s2,0
  89              	.LVL7:
  90 008c 6FF01FFC 		j	.L2
  91              	.L8:
  35:src/../h/_thread.hpp ****         }),
  92              		.loc 2 35 30
  93 0090 13090000 		li	s2,0
  94 0094 6FF05FFD 		j	.L3
  95              	.L4:
  96              	.LVL8:
  97              	.LBE14:
  98              	.LBE13:
  99              		.loc 1 12 13
 100 0098 23309A00 		sd	s1,0(s4)
  13:src/_thread.cpp ****     if(*handle != nullptr) return 0;
 101              		.loc 1 13 5 is_stmt 1
 102 009c 63860402 		beqz	s1,.L14
 103              		.loc 1 13 35 is_stmt 0
 104 00a0 13050000 		li	a0,0
 105              	.L11:
  14:src/_thread.cpp ****     return -1;
  15:src/_thread.cpp **** }
 106              		.loc 1 15 1
 107 00a4 83308103 		ld	ra,56(sp)
 108              		.cfi_remember_state
 109              		.cfi_restore 1
 110 00a8 03340103 		ld	s0,48(sp)
GAS LISTING /tmp/ccCD5d1Y.s 			page 4


 111              		.cfi_restore 8
 112              		.cfi_def_cfa 2, 64
 113 00ac 83348102 		ld	s1,40(sp)
 114              		.cfi_restore 9
 115 00b0 03390102 		ld	s2,32(sp)
 116              		.cfi_restore 18
 117 00b4 83398101 		ld	s3,24(sp)
 118              		.cfi_restore 19
 119              	.LVL9:
 120 00b8 033A0101 		ld	s4,16(sp)
 121              		.cfi_restore 20
 122              	.LVL10:
 123 00bc 833A8100 		ld	s5,8(sp)
 124              		.cfi_restore 21
 125              	.LVL11:
 126 00c0 13010104 		addi	sp,sp,64
 127              		.cfi_def_cfa_offset 0
 128 00c4 67800000 		jr	ra
 129              	.LVL12:
 130              	.L14:
 131              		.cfi_restore_state
  14:src/_thread.cpp ****     return -1;
 132              		.loc 1 14 13
 133 00c8 1305F0FF 		li	a0,-1
 134 00cc 6FF09FFD 		j	.L11
 135              	.LVL13:
 136              	.L10:
 137 00d0 13090500 		mv	s2,a0
  12:src/_thread.cpp ****     if(*handle != nullptr) return 0;
 138              		.loc 1 12 49
 139 00d4 13850400 		mv	a0,s1
 140 00d8 97000000 		call	_ZdlPv
 140      E7800000 
 141              	.LVL14:
 142 00e0 13050900 		mv	a0,s2
 143              	.LEHB2:
 144 00e4 97000000 		call	_Unwind_Resume
 144      E7800000 
 145              	.LVL15:
 146              	.LEHE2:
 147              		.cfi_endproc
 148              	.LFE32:
 149              		.globl	__gxx_personality_v0
 150              		.section	.gcc_except_table,"aw",@progbits
 151              	.LLSDA32:
 152 0000 FF       		.byte	0xff
 153 0001 FF       		.byte	0xff
 154 0002 03       		.byte	0x3
 155 0003 27       		.byte	0x27
 156 0004 00000000 		.4byte	.LEHB0-.LFB32
 157 0008 00000000 		.4byte	.LEHE0-.LEHB0
 158 000c 00000000 		.4byte	0
 159 0010 00       		.byte	0
 160 0011 00000000 		.4byte	.LEHB1-.LFB32
 161 0015 00000000 		.4byte	.LEHE1-.LEHB1
 162 0019 00000000 		.4byte	.L10-.LFB32
 163 001d 00       		.byte	0
GAS LISTING /tmp/ccCD5d1Y.s 			page 5


 164 001e 00000000 		.4byte	.LEHB2-.LFB32
 165 0022 00000000 		.4byte	.LEHE2-.LEHB2
 166 0026 00000000 		.4byte	0
 167 002a 00       		.byte	0
 168              		.text
 170              		.align	2
 171              		.globl	_ZN7_thread15thread_dispatchEv
 173              	_ZN7_thread15thread_dispatchEv:
 174              	.LFB33:
  16:src/_thread.cpp **** 
  17:src/_thread.cpp **** 
  18:src/_thread.cpp **** void _thread::thread_dispatch(){
 175              		.loc 1 18 32 is_stmt 1
 176              		.cfi_startproc
 177 00ec 130101FE 		addi	sp,sp,-32
 178              		.cfi_def_cfa_offset 32
 179 00f0 233C1100 		sd	ra,24(sp)
 180 00f4 23388100 		sd	s0,16(sp)
 181 00f8 23349100 		sd	s1,8(sp)
 182              		.cfi_offset 1, -8
 183              		.cfi_offset 8, -16
 184              		.cfi_offset 9, -24
 185 00fc 13040102 		addi	s0,sp,32
 186              		.cfi_def_cfa 8, 0
  19:src/_thread.cpp ****     _thread *old = running;
 187              		.loc 1 19 5
 188              		.loc 1 19 14 is_stmt 0
 189 0100 97040000 		ld	s1,_ZN7_thread7runningE
 189      83B40400 
 190              	.LVL16:
  20:src/_thread.cpp ****     if(!old->isFinished() ){ Scheduler::put(old);}//ako se menja a nije gotova stavljam u skedzuler
 191              		.loc 1 20 5 is_stmt 1
 192              	.LBB15:
 193              	.LBB16:
  20:src/../h/_thread.hpp **** 
 194              		.loc 2 20 31
  20:src/../h/_thread.hpp **** 
 195              		.loc 2 20 38 is_stmt 0
 196 0108 83C78402 		lbu	a5,40(s1)
 197              	.LVL17:
 198              	.LBE16:
 199              	.LBE15:
 200              		.loc 1 20 5
 201 010c 638C0702 		beqz	a5,.L18
 202              	.L16:
  21:src/_thread.cpp ****     running = Scheduler::get();
 203              		.loc 1 21 5 is_stmt 1
 204              		.loc 1 21 29 is_stmt 0
 205 0110 97000000 		call	_ZN9Scheduler3getEv
 205      E7800000 
 206              	.LVL18:
 207              		.loc 1 21 13
 208 0118 97070000 		sd	a0,_ZN7_thread7runningE,a5
 208      23B0A700 
  22:src/_thread.cpp **** 
  23:src/_thread.cpp ****     //trenutni ra cuvam u old->context, a novi ra uzimam iz running->context i stavljam u ra regist
  24:src/_thread.cpp ****     _thread::contextSwitch(&old->context, &running->context);
GAS LISTING /tmp/ccCD5d1Y.s 			page 6


 209              		.loc 1 24 5 is_stmt 1
 210              		.loc 1 24 27 is_stmt 0
 211 0120 93050501 		addi	a1,a0,16
 212 0124 13850401 		addi	a0,s1,16
 213 0128 97000000 		call	_ZN7_thread13contextSwitchEPNS_7ContextES1_
 213      E7800000 
 214              	.LVL19:
  25:src/_thread.cpp **** }
 215              		.loc 1 25 1
 216 0130 83308101 		ld	ra,24(sp)
 217              		.cfi_remember_state
 218              		.cfi_restore 1
 219 0134 03340101 		ld	s0,16(sp)
 220              		.cfi_restore 8
 221              		.cfi_def_cfa 2, 32
 222 0138 83348100 		ld	s1,8(sp)
 223              		.cfi_restore 9
 224              	.LVL20:
 225 013c 13010102 		addi	sp,sp,32
 226              		.cfi_def_cfa_offset 0
 227 0140 67800000 		jr	ra
 228              	.LVL21:
 229              	.L18:
 230              		.cfi_restore_state
  20:src/_thread.cpp ****     running = Scheduler::get();
 231              		.loc 1 20 30 is_stmt 1 discriminator 1
  20:src/_thread.cpp ****     running = Scheduler::get();
 232              		.loc 1 20 44 is_stmt 0 discriminator 1
 233 0144 13850400 		mv	a0,s1
 234 0148 97000000 		call	_ZN9Scheduler3putEP7_thread
 234      E7800000 
 235              	.LVL22:
 236 0150 6FF01FFC 		j	.L16
 237              		.cfi_endproc
 238              	.LFE33:
 240              		.align	2
 241              		.globl	_ZN7_thread13threadWrapperEv
 243              	_ZN7_thread13threadWrapperEv:
 244              	.LFB35:
  26:src/_thread.cpp **** 
  27:src/_thread.cpp **** int _thread::thread_exit() {
  28:src/_thread.cpp ****     _thread::running->setFinished(true);
  29:src/_thread.cpp ****     if(running->isFinished()) return -1;
  30:src/_thread.cpp ****     //delete _thread::running;
  31:src/_thread.cpp ****     _thread::thread_dispatch();
  32:src/_thread.cpp ****     return 1;
  33:src/_thread.cpp **** }
  34:src/_thread.cpp **** 
  35:src/_thread.cpp **** void _thread::threadWrapper() {
 245              		.loc 1 35 31 is_stmt 1
 246              		.cfi_startproc
 247 0154 130101FE 		addi	sp,sp,-32
 248              		.cfi_def_cfa_offset 32
 249 0158 233C1100 		sd	ra,24(sp)
 250 015c 23388100 		sd	s0,16(sp)
 251 0160 23349100 		sd	s1,8(sp)
 252              		.cfi_offset 1, -8
GAS LISTING /tmp/ccCD5d1Y.s 			page 7


 253              		.cfi_offset 8, -16
 254              		.cfi_offset 9, -24
 255 0164 13040102 		addi	s0,sp,32
 256              		.cfi_def_cfa 8, 0
  36:src/_thread.cpp ****     Riscv::popSppSpie();
 257              		.loc 1 36 5
 258              		.loc 1 36 22 is_stmt 0
 259 0168 97000000 		call	_ZN5Riscv10popSppSpieEv
 259      E7800000 
 260              	.LVL23:
  37:src/_thread.cpp ****     running->body(running->arg);
 261              		.loc 1 37 5 is_stmt 1
 262              		.loc 1 37 14 is_stmt 0
 263 0170 97040000 		lla	s1,_ZN7_thread7runningE
 263      93840400 
 264 0178 83B70400 		ld	a5,0(s1)
 265 017c 03B70700 		ld	a4,0(a5)
 266              		.loc 1 37 18
 267 0180 03B50702 		ld	a0,32(a5)
 268 0184 E7000700 		jalr	a4
 269              	.LVL24:
  38:src/_thread.cpp ****     running->setFinished(true);//kada se sve zavrsi postavi da je kraj
 270              		.loc 1 38 5 is_stmt 1
 271              		.loc 1 38 25 is_stmt 0
 272 0188 83B70400 		ld	a5,0(s1)
 273              	.LVL25:
 274              	.LBB17:
 275              	.LBB18:
  22:src/../h/_thread.hpp **** 
 276              		.loc 2 22 34 is_stmt 1
  22:src/../h/_thread.hpp **** 
 277              		.loc 2 22 52 is_stmt 0
 278 018c 13071000 		li	a4,1
 279 0190 2384E702 		sb	a4,40(a5)
 280              	.LVL26:
 281              	.LBE18:
 282              	.LBE17:
  39:src/_thread.cpp ****     _thread::thread_dispatch();
 283              		.loc 1 39 5 is_stmt 1
 284              		.loc 1 39 29 is_stmt 0
 285 0194 97000000 		call	_ZN7_thread15thread_dispatchEv
 285      E7800000 
 286              	.LVL27:
  40:src/_thread.cpp **** }
 287              		.loc 1 40 1
 288 019c 83308101 		ld	ra,24(sp)
 289              		.cfi_restore 1
 290 01a0 03340101 		ld	s0,16(sp)
 291              		.cfi_restore 8
 292              		.cfi_def_cfa 2, 32
 293 01a4 83348100 		ld	s1,8(sp)
 294              		.cfi_restore 9
 295 01a8 13010102 		addi	sp,sp,32
 296              		.cfi_def_cfa_offset 0
 297 01ac 67800000 		jr	ra
 298              		.cfi_endproc
 299              	.LFE35:
GAS LISTING /tmp/ccCD5d1Y.s 			page 8


 301              		.align	2
 302              		.globl	_ZN7_thread11thread_exitEv
 304              	_ZN7_thread11thread_exitEv:
 305              	.LFB34:
  27:src/_thread.cpp ****     _thread::running->setFinished(true);
 306              		.loc 1 27 28 is_stmt 1
 307              		.cfi_startproc
 308 01b0 130101FF 		addi	sp,sp,-16
 309              		.cfi_def_cfa_offset 16
 310 01b4 23348100 		sd	s0,8(sp)
 311              		.cfi_offset 8, -8
 312 01b8 13040101 		addi	s0,sp,16
 313              		.cfi_def_cfa 8, 0
  28:src/_thread.cpp ****     if(running->isFinished()) return -1;
 314              		.loc 1 28 5
 315              	.LVL28:
 316              	.LBB19:
 317              	.LBB20:
  22:src/../h/_thread.hpp **** 
 318              		.loc 2 22 34
  22:src/../h/_thread.hpp **** 
 319              		.loc 2 22 52 is_stmt 0
 320 01bc 97070000 		ld	a5,_ZN7_thread7runningE
 320      83B70700 
 321 01c4 13071000 		li	a4,1
 322 01c8 2384E702 		sb	a4,40(a5)
 323              	.LVL29:
 324              	.LBE20:
 325              	.LBE19:
  29:src/_thread.cpp ****     //delete _thread::running;
 326              		.loc 1 29 5 is_stmt 1
  20:src/../h/_thread.hpp **** 
 327              		.loc 2 20 31
  29:src/_thread.cpp ****     //delete _thread::running;
 328              		.loc 1 29 31
  33:src/_thread.cpp **** 
 329              		.loc 1 33 1 is_stmt 0
 330 01cc 1305F0FF 		li	a0,-1
 331 01d0 03348100 		ld	s0,8(sp)
 332              		.cfi_restore 8
 333              		.cfi_def_cfa 2, 16
 334 01d4 13010101 		addi	sp,sp,16
 335              		.cfi_def_cfa_offset 0
 336 01d8 67800000 		jr	ra
 337              		.cfi_endproc
 338              	.LFE34:
 340              		.globl	_ZN7_thread7runningE
 341              		.section	.sbss,"aw",@nobits
 342              		.align	3
 345              	_ZN7_thread7runningE:
 346 0000 00000000 		.zero	8
 346      00000000 
 347              		.text
 348              	.Letext0:
 349              		.file 3 "src/../h/../lib/hw.h"
 350              		.file 4 "src/../h/scheduler.hpp"
 351              		.file 5 "src/../h/riscv.hpp"
GAS LISTING /tmp/ccCD5d1Y.s 			page 9


 2510              		.align	3
 2513              	DW.ref.__gxx_personality_v0:
 2514 0000 00000000 		.dword	__gxx_personality_v0
 2514      00000000 
 2515              		.ident	"GCC: () 9.3.0"
GAS LISTING /tmp/ccCD5d1Y.s 			page 10


DEFINED SYMBOLS
                            *ABS*:0000000000000000 _thread.cpp
     /tmp/ccCD5d1Y.s:12     .text:0000000000000000 _ZN7_thread13create_threadEPPS_PFvPvES2_S2_
     /tmp/ccCD5d1Y.s:16     .text:0000000000000000 .L0 
     /tmp/ccCD5d1Y.s:2513   .sdata.DW.ref.__gxx_personality_v0:0000000000000000 DW.ref.__gxx_personality_v0
     /tmp/ccCD5d1Y.s:20     .text:0000000000000000 .L0 
     /tmp/ccCD5d1Y.s:21     .text:0000000000000004 .L0 
     /tmp/ccCD5d1Y.s:29     .text:0000000000000020 .L0 
     /tmp/ccCD5d1Y.s:30     .text:0000000000000020 .L0 
     /tmp/ccCD5d1Y.s:31     .text:0000000000000020 .L0 
     /tmp/ccCD5d1Y.s:32     .text:0000000000000020 .L0 
     /tmp/ccCD5d1Y.s:33     .text:0000000000000020 .L0 
     /tmp/ccCD5d1Y.s:34     .text:0000000000000020 .L0 
     /tmp/ccCD5d1Y.s:35     .text:0000000000000020 .L0 
     /tmp/ccCD5d1Y.s:37     .text:0000000000000024 .L0 
     /tmp/ccCD5d1Y.s:43     .text:0000000000000034 .L0 
     /tmp/ccCD5d1Y.s:44     .text:0000000000000034 .L0 
     /tmp/ccCD5d1Y.s:56     .text:0000000000000044 .L0 
     /tmp/ccCD5d1Y.s:58     .text:0000000000000048 .L0 
     /tmp/ccCD5d1Y.s:62     .text:000000000000004c .L0 
     /tmp/ccCD5d1Y.s:243    .text:0000000000000154 _ZN7_thread13threadWrapperEv
     /tmp/ccCD5d1Y.s:66     .text:000000000000005c .L0 
     /tmp/ccCD5d1Y.s:68     .text:0000000000000060 .L0 
     /tmp/ccCD5d1Y.s:72     .text:0000000000000068 .L0 
     /tmp/ccCD5d1Y.s:76     .text:0000000000000074 .L0 
     /tmp/ccCD5d1Y.s:78     .text:0000000000000078 .L0 
     /tmp/ccCD5d1Y.s:79     .text:0000000000000078 .L0 
     /tmp/ccCD5d1Y.s:88     .text:0000000000000088 .L0 
     /tmp/ccCD5d1Y.s:93     .text:0000000000000090 .L0 
     /tmp/ccCD5d1Y.s:100    .text:0000000000000098 .L0 
     /tmp/ccCD5d1Y.s:102    .text:000000000000009c .L0 
     /tmp/ccCD5d1Y.s:104    .text:00000000000000a0 .L0 
     /tmp/ccCD5d1Y.s:107    .text:00000000000000a4 .L0 
     /tmp/ccCD5d1Y.s:108    .text:00000000000000a8 .L0 
     /tmp/ccCD5d1Y.s:109    .text:00000000000000a8 .L0 
     /tmp/ccCD5d1Y.s:111    .text:00000000000000ac .L0 
     /tmp/ccCD5d1Y.s:112    .text:00000000000000ac .L0 
     /tmp/ccCD5d1Y.s:114    .text:00000000000000b0 .L0 
     /tmp/ccCD5d1Y.s:116    .text:00000000000000b4 .L0 
     /tmp/ccCD5d1Y.s:118    .text:00000000000000b8 .L0 
     /tmp/ccCD5d1Y.s:121    .text:00000000000000bc .L0 
     /tmp/ccCD5d1Y.s:124    .text:00000000000000c0 .L0 
     /tmp/ccCD5d1Y.s:127    .text:00000000000000c4 .L0 
     /tmp/ccCD5d1Y.s:131    .text:00000000000000c8 .L0 
     /tmp/ccCD5d1Y.s:133    .text:00000000000000c8 .L0 
     /tmp/ccCD5d1Y.s:139    .text:00000000000000d4 .L0 
     /tmp/ccCD5d1Y.s:147    .text:00000000000000ec .L0 
     /tmp/ccCD5d1Y.s:173    .text:00000000000000ec _ZN7_thread15thread_dispatchEv
     /tmp/ccCD5d1Y.s:176    .text:00000000000000ec .L0 
     /tmp/ccCD5d1Y.s:177    .text:00000000000000ec .L0 
     /tmp/ccCD5d1Y.s:178    .text:00000000000000f0 .L0 
     /tmp/ccCD5d1Y.s:182    .text:00000000000000fc .L0 
     /tmp/ccCD5d1Y.s:183    .text:00000000000000fc .L0 
     /tmp/ccCD5d1Y.s:184    .text:00000000000000fc .L0 
     /tmp/ccCD5d1Y.s:186    .text:0000000000000100 .L0 
     /tmp/ccCD5d1Y.s:188    .text:0000000000000100 .L0 
     /tmp/ccCD5d1Y.s:345    .sbss:0000000000000000 _ZN7_thread7runningE
GAS LISTING /tmp/ccCD5d1Y.s 			page 11


     /tmp/ccCD5d1Y.s:189    .text:0000000000000100 .L0 
     /tmp/ccCD5d1Y.s:194    .text:0000000000000108 .L0 
     /tmp/ccCD5d1Y.s:195    .text:0000000000000108 .L0 
     /tmp/ccCD5d1Y.s:196    .text:0000000000000108 .L0 
     /tmp/ccCD5d1Y.s:201    .text:000000000000010c .L0 
     /tmp/ccCD5d1Y.s:204    .text:0000000000000110 .L0 
     /tmp/ccCD5d1Y.s:205    .text:0000000000000110 .L0 
     /tmp/ccCD5d1Y.s:208    .text:0000000000000118 .L0 
     /tmp/ccCD5d1Y.s:210    .text:0000000000000120 .L0 
     /tmp/ccCD5d1Y.s:211    .text:0000000000000120 .L0 
     /tmp/ccCD5d1Y.s:216    .text:0000000000000130 .L0 
     /tmp/ccCD5d1Y.s:217    .text:0000000000000134 .L0 
     /tmp/ccCD5d1Y.s:218    .text:0000000000000134 .L0 
     /tmp/ccCD5d1Y.s:220    .text:0000000000000138 .L0 
     /tmp/ccCD5d1Y.s:221    .text:0000000000000138 .L0 
     /tmp/ccCD5d1Y.s:223    .text:000000000000013c .L0 
     /tmp/ccCD5d1Y.s:226    .text:0000000000000140 .L0 
     /tmp/ccCD5d1Y.s:230    .text:0000000000000144 .L0 
     /tmp/ccCD5d1Y.s:232    .text:0000000000000144 .L0 
     /tmp/ccCD5d1Y.s:233    .text:0000000000000144 .L0 
     /tmp/ccCD5d1Y.s:237    .text:0000000000000154 .L0 
     /tmp/ccCD5d1Y.s:246    .text:0000000000000154 .L0 
     /tmp/ccCD5d1Y.s:247    .text:0000000000000154 .L0 
     /tmp/ccCD5d1Y.s:248    .text:0000000000000158 .L0 
     /tmp/ccCD5d1Y.s:252    .text:0000000000000164 .L0 
     /tmp/ccCD5d1Y.s:253    .text:0000000000000164 .L0 
     /tmp/ccCD5d1Y.s:254    .text:0000000000000164 .L0 
     /tmp/ccCD5d1Y.s:256    .text:0000000000000168 .L0 
     /tmp/ccCD5d1Y.s:258    .text:0000000000000168 .L0 
     /tmp/ccCD5d1Y.s:259    .text:0000000000000168 .L0 
     /tmp/ccCD5d1Y.s:262    .text:0000000000000170 .L0 
     /tmp/ccCD5d1Y.s:263    .text:0000000000000170 .L0 
     /tmp/ccCD5d1Y.s:267    .text:0000000000000180 .L0 
     /tmp/ccCD5d1Y.s:271    .text:0000000000000188 .L0 
     /tmp/ccCD5d1Y.s:272    .text:0000000000000188 .L0 
     /tmp/ccCD5d1Y.s:277    .text:000000000000018c .L0 
     /tmp/ccCD5d1Y.s:278    .text:000000000000018c .L0 
     /tmp/ccCD5d1Y.s:284    .text:0000000000000194 .L0 
     /tmp/ccCD5d1Y.s:285    .text:0000000000000194 .L0 
     /tmp/ccCD5d1Y.s:288    .text:000000000000019c .L0 
     /tmp/ccCD5d1Y.s:289    .text:00000000000001a0 .L0 
     /tmp/ccCD5d1Y.s:291    .text:00000000000001a4 .L0 
     /tmp/ccCD5d1Y.s:292    .text:00000000000001a4 .L0 
     /tmp/ccCD5d1Y.s:294    .text:00000000000001a8 .L0 
     /tmp/ccCD5d1Y.s:296    .text:00000000000001ac .L0 
     /tmp/ccCD5d1Y.s:298    .text:00000000000001b0 .L0 
     /tmp/ccCD5d1Y.s:304    .text:00000000000001b0 _ZN7_thread11thread_exitEv
     /tmp/ccCD5d1Y.s:307    .text:00000000000001b0 .L0 
     /tmp/ccCD5d1Y.s:308    .text:00000000000001b0 .L0 
     /tmp/ccCD5d1Y.s:309    .text:00000000000001b4 .L0 
     /tmp/ccCD5d1Y.s:311    .text:00000000000001b8 .L0 
     /tmp/ccCD5d1Y.s:313    .text:00000000000001bc .L0 
     /tmp/ccCD5d1Y.s:318    .text:00000000000001bc .L0 
     /tmp/ccCD5d1Y.s:319    .text:00000000000001bc .L0 
     /tmp/ccCD5d1Y.s:320    .text:00000000000001bc .L0 
     /tmp/ccCD5d1Y.s:327    .text:00000000000001cc .L0 
     /tmp/ccCD5d1Y.s:328    .text:00000000000001cc .L0 
GAS LISTING /tmp/ccCD5d1Y.s 			page 12


     /tmp/ccCD5d1Y.s:329    .text:00000000000001cc .L0 
     /tmp/ccCD5d1Y.s:330    .text:00000000000001cc .L0 
     /tmp/ccCD5d1Y.s:332    .text:00000000000001d4 .L0 
     /tmp/ccCD5d1Y.s:333    .text:00000000000001d4 .L0 
     /tmp/ccCD5d1Y.s:335    .text:00000000000001d8 .L0 
     /tmp/ccCD5d1Y.s:337    .text:00000000000001dc .L0 
     /tmp/ccCD5d1Y.s:352    .text:00000000000001dc .L0 
     /tmp/ccCD5d1Y.s:63     .text:0000000000000050 .L0 
     /tmp/ccCD5d1Y.s:189    .text:0000000000000100 .L0 
     /tmp/ccCD5d1Y.s:208    .text:0000000000000118 .L0 
     /tmp/ccCD5d1Y.s:263    .text:0000000000000170 .L0 
     /tmp/ccCD5d1Y.s:320    .text:00000000000001bc .L0 
     /tmp/ccCD5d1Y.s:86     .text:0000000000000088 .L13
     /tmp/ccCD5d1Y.s:91     .text:0000000000000090 .L8
     /tmp/ccCD5d1Y.s:95     .text:0000000000000098 .L4
     /tmp/ccCD5d1Y.s:60     .text:000000000000004c .L2
     /tmp/ccCD5d1Y.s:70     .text:0000000000000068 .L3
     /tmp/ccCD5d1Y.s:130    .text:00000000000000c8 .L14
     /tmp/ccCD5d1Y.s:105    .text:00000000000000a4 .L11
     /tmp/ccCD5d1Y.s:229    .text:0000000000000144 .L18
     /tmp/ccCD5d1Y.s:202    .text:0000000000000110 .L16
     /tmp/ccCD5d1Y.s:46     .text:0000000000000038 .LEHB0
     /tmp/ccCD5d1Y.s:13     .text:0000000000000000 .LFB32
     /tmp/ccCD5d1Y.s:49     .text:0000000000000040 .LEHE0
     /tmp/ccCD5d1Y.s:80     .text:000000000000007c .LEHB1
     /tmp/ccCD5d1Y.s:83     .text:0000000000000084 .LEHE1
     /tmp/ccCD5d1Y.s:136    .text:00000000000000d0 .L10
     /tmp/ccCD5d1Y.s:143    .text:00000000000000e4 .LEHB2
     /tmp/ccCD5d1Y.s:146    .text:00000000000000ec .LEHE2
     /tmp/ccCD5d1Y.s:1238   .debug_abbrev:0000000000000000 .Ldebug_abbrev0
     /tmp/ccCD5d1Y.s:2317   .debug_str:000000000000008e .LASF91
     /tmp/ccCD5d1Y.s:2485   .debug_str:00000000000006c8 .LASF92
     /tmp/ccCD5d1Y.s:2361   .debug_str:0000000000000294 .LASF93
     /tmp/ccCD5d1Y.s:8      .text:0000000000000000 .Ltext0
     /tmp/ccCD5d1Y.s:348    .text:00000000000001dc .Letext0
     /tmp/ccCD5d1Y.s:2293   .debug_line:0000000000000000 .Ldebug_line0
     /tmp/ccCD5d1Y.s:2409   .debug_str:0000000000000445 .LASF0
     /tmp/ccCD5d1Y.s:2421   .debug_str:0000000000000496 .LASF1
     /tmp/ccCD5d1Y.s:2399   .debug_str:0000000000000407 .LASF2
     /tmp/ccCD5d1Y.s:2375   .debug_str:0000000000000333 .LASF4
     /tmp/ccCD5d1Y.s:2447   .debug_str:000000000000056e .LASF3
     /tmp/ccCD5d1Y.s:2319   .debug_str:0000000000000152 .LASF5
     /tmp/ccCD5d1Y.s:2423   .debug_str:00000000000004a9 .LASF6
     /tmp/ccCD5d1Y.s:2407   .debug_str:0000000000000432 .LASF7
     /tmp/ccCD5d1Y.s:2479   .debug_str:0000000000000692 .LASF8
     /tmp/ccCD5d1Y.s:2359   .debug_str:0000000000000286 .LASF9
     /tmp/ccCD5d1Y.s:2433   .debug_str:00000000000004ff .LASF10
     /tmp/ccCD5d1Y.s:2467   .debug_str:0000000000000618 .LASF11
     /tmp/ccCD5d1Y.s:2321   .debug_str:0000000000000159 .LASF12
     /tmp/ccCD5d1Y.s:2301   .debug_str:000000000000002b .LASF13
     /tmp/ccCD5d1Y.s:2327   .debug_str:0000000000000187 .LASF14
     /tmp/ccCD5d1Y.s:2441   .debug_str:0000000000000531 .LASF15
     /tmp/ccCD5d1Y.s:2335   .debug_str:00000000000001e7 .LASF16
     /tmp/ccCD5d1Y.s:2429   .debug_str:00000000000004d7 .LASF17
     /tmp/ccCD5d1Y.s:2487   .debug_str:00000000000006d8 .LASF94
     /tmp/ccCD5d1Y.s:2371   .debug_str:0000000000000317 .LASF95
     /tmp/ccCD5d1Y.s:2475   .debug_str:000000000000065e .LASF96
GAS LISTING /tmp/ccCD5d1Y.s 			page 13


     /tmp/ccCD5d1Y.s:2379   .debug_str:0000000000000343 .LASF97
     /tmp/ccCD5d1Y.s:2373   .debug_str:000000000000032b .LASF18
     /tmp/ccCD5d1Y.s:2305   .debug_str:0000000000000044 .LASF98
     /tmp/ccCD5d1Y.s:2345   .debug_str:0000000000000234 .LASF99
     /tmp/ccCD5d1Y.s:2471   .debug_str:000000000000063a .LASF19
     /tmp/ccCD5d1Y.s:2427   .debug_str:00000000000004c7 .LASF21
     /tmp/ccCD5d1Y.s:2425   .debug_str:00000000000004bc .LASF100
     /tmp/ccCD5d1Y.s:2395   .debug_str:00000000000003d7 .LASF101
     /tmp/ccCD5d1Y.s:2401   .debug_str:0000000000000415 .LASF20
     /tmp/ccCD5d1Y.s:2393   .debug_str:00000000000003bc .LASF22
     /tmp/ccCD5d1Y.s:2483   .debug_str:00000000000006ba .LASF23
     /tmp/ccCD5d1Y.s:2449   .debug_str:0000000000000580 .LASF24
     /tmp/ccCD5d1Y.s:2437   .debug_str:0000000000000521 .LASF102
     /tmp/ccCD5d1Y.s:2309   .debug_str:0000000000000067 .LASF25
     /tmp/ccCD5d1Y.s:2353   .debug_str:000000000000025d .LASF47
     /tmp/ccCD5d1Y.s:2417   .debug_str:0000000000000475 .LASF50
     /tmp/ccCD5d1Y.s:2343   .debug_str:000000000000022f .LASF26
     /tmp/ccCD5d1Y.s:2415   .debug_str:000000000000046f .LASF27
     /tmp/ccCD5d1Y.s:2383   .debug_str:000000000000035c .LASF28
     /tmp/ccCD5d1Y.s:2377   .debug_str:000000000000033a .LASF29
     /tmp/ccCD5d1Y.s:2489   .debug_str:00000000000006ec .LASF30
     /tmp/ccCD5d1Y.s:2391   .debug_str:0000000000000390 .LASF103
     /tmp/ccCD5d1Y.s:2331   .debug_str:00000000000001b8 .LASF31
     /tmp/ccCD5d1Y.s:2333   .debug_str:00000000000001c8 .LASF33
     /tmp/ccCD5d1Y.s:2385   .debug_str:0000000000000364 .LASF32
     /tmp/ccCD5d1Y.s:2365   .debug_str:00000000000002d5 .LASF34
     /tmp/ccCD5d1Y.s:2295   .debug_str:0000000000000000 .LASF35
     /tmp/ccCD5d1Y.s:2351   .debug_str:0000000000000258 .LASF36
     /tmp/ccCD5d1Y.s:2419   .debug_str:0000000000000490 .LASF37
     /tmp/ccCD5d1Y.s:2439   .debug_str:0000000000000526 .LASF38
     /tmp/ccCD5d1Y.s:2497   .debug_str:000000000000071f .LASF40
     /tmp/ccCD5d1Y.s:2369   .debug_str:0000000000000306 .LASF39
     /tmp/ccCD5d1Y.s:2431   .debug_str:00000000000004e1 .LASF41
     /tmp/ccCD5d1Y.s:2315   .debug_str:0000000000000080 .LASF42
     /tmp/ccCD5d1Y.s:2307   .debug_str:000000000000004c .LASF43
     /tmp/ccCD5d1Y.s:2457   .debug_str:00000000000005d8 .LASF44
     /tmp/ccCD5d1Y.s:2299   .debug_str:0000000000000011 .LASF45
     /tmp/ccCD5d1Y.s:2303   .debug_str:000000000000003b .LASF46
     /tmp/ccCD5d1Y.s:2455   .debug_str:00000000000005c3 .LASF48
     /tmp/ccCD5d1Y.s:2341   .debug_str:0000000000000226 .LASF49
     /tmp/ccCD5d1Y.s:2339   .debug_str:0000000000000211 .LASF51
     /tmp/ccCD5d1Y.s:2451   .debug_str:00000000000005ac .LASF52
     /tmp/ccCD5d1Y.s:2435   .debug_str:000000000000050e .LASF53
     /tmp/ccCD5d1Y.s:2465   .debug_str:0000000000000611 .LASF54
     /tmp/ccCD5d1Y.s:2461   .debug_str:00000000000005ec .LASF55
     /tmp/ccCD5d1Y.s:2355   .debug_str:0000000000000278 .LASF56
     /tmp/ccCD5d1Y.s:2337   .debug_str:00000000000001fd .LASF57
     /tmp/ccCD5d1Y.s:2297   .debug_str:0000000000000009 .LASF58
     /tmp/ccCD5d1Y.s:2367   .debug_str:00000000000002f2 .LASF59
     /tmp/ccCD5d1Y.s:2347   .debug_str:000000000000023c .LASF60
     /tmp/ccCD5d1Y.s:2323   .debug_str:0000000000000169 .LASF61
     /tmp/ccCD5d1Y.s:2501   .debug_str:0000000000000742 .LASF62
     /tmp/ccCD5d1Y.s:2349   .debug_str:0000000000000244 .LASF63
     /tmp/ccCD5d1Y.s:2411   .debug_str:0000000000000452 .LASF64
     /tmp/ccCD5d1Y.s:2493   .debug_str:0000000000000707 .LASF65
     /tmp/ccCD5d1Y.s:2313   .debug_str:0000000000000079 .LASF66
     /tmp/ccCD5d1Y.s:2469   .debug_str:0000000000000627 .LASF67
GAS LISTING /tmp/ccCD5d1Y.s 			page 14


     /tmp/ccCD5d1Y.s:2357   .debug_str:0000000000000280 .LASF68
     /tmp/ccCD5d1Y.s:2463   .debug_str:00000000000005ff .LASF69
     /tmp/ccCD5d1Y.s:2311   .debug_str:0000000000000073 .LASF70
     /tmp/ccCD5d1Y.s:2505   .debug_str:0000000000000756 .LASF71
     /tmp/ccCD5d1Y.s:2499   .debug_str:0000000000000737 .LASF72
     /tmp/ccCD5d1Y.s:2445   .debug_str:0000000000000556 .LASF73
     /tmp/ccCD5d1Y.s:2381   .debug_str:0000000000000351 .LASF74
     /tmp/ccCD5d1Y.s:2387   .debug_str:0000000000000372 .LASF75
     /tmp/ccCD5d1Y.s:2325   .debug_str:000000000000017d .LASF76
     /tmp/ccCD5d1Y.s:2413   .debug_str:0000000000000459 .LASF77
     /tmp/ccCD5d1Y.s:2403   .debug_str:0000000000000421 .LASF78
     /tmp/ccCD5d1Y.s:2363   .debug_str:00000000000002bf .LASF79
     /tmp/ccCD5d1Y.s:2477   .debug_str:000000000000067a .LASF80
     /tmp/ccCD5d1Y.s:2329   .debug_str:0000000000000193 .LASF81
     /tmp/ccCD5d1Y.s:2397   .debug_str:00000000000003f2 .LASF104
     /tmp/ccCD5d1Y.s:244    .text:0000000000000154 .LFB35
     /tmp/ccCD5d1Y.s:299    .text:00000000000001b0 .LFE35
     /tmp/ccCD5d1Y.s:274    .text:000000000000018c .LBB17
     /tmp/ccCD5d1Y.s:282    .text:0000000000000194 .LBE17
     /tmp/ccCD5d1Y.s:2071   .debug_loc:0000000000000000 .LLST10
     /tmp/ccCD5d1Y.s:2079   .debug_loc:0000000000000024 .LLST11
     /tmp/ccCD5d1Y.s:260    .text:0000000000000170 .LVL23
     /tmp/ccCD5d1Y.s:286    .text:000000000000019c .LVL27
     /tmp/ccCD5d1Y.s:305    .text:00000000000001b0 .LFB34
     /tmp/ccCD5d1Y.s:338    .text:00000000000001dc .LFE34
     /tmp/ccCD5d1Y.s:316    .text:00000000000001bc .LBB19
     /tmp/ccCD5d1Y.s:325    .text:00000000000001cc .LBE19
     /tmp/ccCD5d1Y.s:2086   .debug_loc:0000000000000047 .LLST12
     /tmp/ccCD5d1Y.s:2094   .debug_loc:000000000000006b .LLST13
     /tmp/ccCD5d1Y.s:174    .text:00000000000000ec .LFB33
     /tmp/ccCD5d1Y.s:238    .text:0000000000000154 .LFE33
     /tmp/ccCD5d1Y.s:2102   .debug_loc:0000000000000096 .LLST8
     /tmp/ccCD5d1Y.s:192    .text:0000000000000108 .LBB15
     /tmp/ccCD5d1Y.s:199    .text:000000000000010c .LBE15
     /tmp/ccCD5d1Y.s:2113   .debug_loc:00000000000000cc .LLST9
     /tmp/ccCD5d1Y.s:206    .text:0000000000000118 .LVL18
     /tmp/ccCD5d1Y.s:214    .text:0000000000000130 .LVL19
     /tmp/ccCD5d1Y.s:235    .text:0000000000000150 .LVL22
     /tmp/ccCD5d1Y.s:148    .text:00000000000000ec .LFE32
     /tmp/ccCD5d1Y.s:2459   .debug_str:00000000000005e5 .LASF82
     /tmp/ccCD5d1Y.s:2120   .debug_loc:00000000000000ef .LLST0
     /tmp/ccCD5d1Y.s:2142   .debug_loc:000000000000014e .LLST1
     /tmp/ccCD5d1Y.s:2164   .debug_loc:00000000000001ad .LLST2
     /tmp/ccCD5d1Y.s:2503   .debug_str:000000000000074a .LASF83
     /tmp/ccCD5d1Y.s:2186   .debug_loc:000000000000020c .LLST3
     /tmp/ccCD5d1Y.s:52     .text:0000000000000044 .LBB13
     /tmp/ccCD5d1Y.s:98     .text:0000000000000098 .LBE13
     /tmp/ccCD5d1Y.s:2215   .debug_loc:0000000000000281 .LLST4
     /tmp/ccCD5d1Y.s:2247   .debug_loc:00000000000002f9 .LLST5
     /tmp/ccCD5d1Y.s:2258   .debug_loc:000000000000032f .LLST6
     /tmp/ccCD5d1Y.s:2269   .debug_loc:0000000000000365 .LLST7
     /tmp/ccCD5d1Y.s:82     .text:0000000000000084 .LVL5
     /tmp/ccCD5d1Y.s:48     .text:0000000000000040 .LVL2
     /tmp/ccCD5d1Y.s:141    .text:00000000000000e0 .LVL14
     /tmp/ccCD5d1Y.s:145    .text:00000000000000ec .LVL15
     /tmp/ccCD5d1Y.s:2495   .debug_str:000000000000071a .LASF84
     /tmp/ccCD5d1Y.s:2473   .debug_str:0000000000000643 .LASF105
GAS LISTING /tmp/ccCD5d1Y.s 			page 15


     /tmp/ccCD5d1Y.s:2389   .debug_str:000000000000038a .LASF85
     /tmp/ccCD5d1Y.s:2491   .debug_str:00000000000006fa .LASF87
     /tmp/ccCD5d1Y.s:2405   .debug_str:000000000000042b .LASF86
     /tmp/ccCD5d1Y.s:2453   .debug_str:00000000000005b3 .LASF88
     /tmp/ccCD5d1Y.s:2443   .debug_str:0000000000000547 .LASF89
     /tmp/ccCD5d1Y.s:2481   .debug_str:00000000000006a2 .LASF90
     /tmp/ccCD5d1Y.s:273    .text:000000000000018c .LVL25
     /tmp/ccCD5d1Y.s:280    .text:0000000000000194 .LVL26
     /tmp/ccCD5d1Y.s:315    .text:00000000000001bc .LVL28
     /tmp/ccCD5d1Y.s:323    .text:00000000000001cc .LVL29
     /tmp/ccCD5d1Y.s:190    .text:0000000000000108 .LVL16
     /tmp/ccCD5d1Y.s:224    .text:000000000000013c .LVL20
     /tmp/ccCD5d1Y.s:228    .text:0000000000000144 .LVL21
     /tmp/ccCD5d1Y.s:197    .text:000000000000010c .LVL17
     /tmp/ccCD5d1Y.s:19     .text:0000000000000000 .LVL0
     /tmp/ccCD5d1Y.s:45     .text:0000000000000038 .LVL1
     /tmp/ccCD5d1Y.s:122    .text:00000000000000bc .LVL10
     /tmp/ccCD5d1Y.s:129    .text:00000000000000c8 .LVL12
     /tmp/ccCD5d1Y.s:119    .text:00000000000000b8 .LVL9
     /tmp/ccCD5d1Y.s:125    .text:00000000000000c0 .LVL11
     /tmp/ccCD5d1Y.s:59     .text:000000000000004c .LVL4
     /tmp/ccCD5d1Y.s:85     .text:0000000000000088 .LVL6
     /tmp/ccCD5d1Y.s:89     .text:000000000000008c .LVL7
     /tmp/ccCD5d1Y.s:51     .text:0000000000000044 .LVL3
     /tmp/ccCD5d1Y.s:96     .text:0000000000000098 .LVL8
     /tmp/ccCD5d1Y.s:135    .text:00000000000000d0 .LVL13
     /tmp/ccCD5d1Y.s:353    .debug_info:0000000000000000 .Ldebug_info0
     /tmp/ccCD5d1Y.s:151    .gcc_except_table:0000000000000000 .LLSDA32

UNDEFINED SYMBOLS
_Znwm
_ZN9Scheduler3putEP7_thread
_ZdlPv
_Unwind_Resume
__gxx_personality_v0
_ZN9Scheduler3getEv
_ZN7_thread13contextSwitchEPNS_7ContextES1_
_ZN5Riscv10popSppSpieEv
