GAS LISTING /tmp/cc1DGXyf.s 			page 1


   1              		.file	"_thread.cpp"
   2              		.option nopic
   3              		.option norelax
   4              		.attribute arch, "rv64i2p0_m2p0_a2p0"
   5              		.attribute unaligned_access, 0
   6              		.attribute stack_align, 16
   7              		.text
   8              	.Ltext0:
   9              		.align	2
  10              		.globl	_ZN7_thread13create_threadEPPS_PFvvEPvS4_
  12              	_ZN7_thread13create_threadEPPS_PFvvEPvS4_:
  13              	.LFB33:
  14              		.file 1 "src/_thread.cpp"
   1:src/_thread.cpp **** //
   2:src/_thread.cpp **** // Created by basara on 20.6.24..
   3:src/_thread.cpp **** //
   4:src/_thread.cpp **** 
   5:src/_thread.cpp **** #include "../h/_thread.hpp"
   6:src/_thread.cpp **** #include "../h/riscv.hpp"
   7:src/_thread.cpp **** 
   8:src/_thread.cpp **** _thread* _thread::running = nullptr;
   9:src/_thread.cpp **** 
  10:src/_thread.cpp **** void _thread::yield(){
  11:src/_thread.cpp ****     Riscv::pushRegisters();
  12:src/_thread.cpp **** 
  13:src/_thread.cpp ****     _thread::thread_dispatch();
  14:src/_thread.cpp **** 
  15:src/_thread.cpp ****     Riscv::popRegisters(); //ovde vraca sve ostale registre, a u okviru dispatch sam stavio ra i sp
  16:src/_thread.cpp **** }
  17:src/_thread.cpp **** 
  18:src/_thread.cpp **** int _thread::create_thread(thread_t* handle, Body body, void* arg, void* stack_space){
  15              		.loc 1 18 86
  16              		.cfi_startproc
  17              		.cfi_personality 0x9b,DW.ref.__gxx_personality_v0
  18              		.cfi_lsda 0x1b,.LLSDA33
  19              	.LVL0:
  20 0000 130101FD 		addi	sp,sp,-48
  21              		.cfi_def_cfa_offset 48
  22 0004 23341102 		sd	ra,40(sp)
  23 0008 23308102 		sd	s0,32(sp)
  24 000c 233C9100 		sd	s1,24(sp)
  25 0010 23382101 		sd	s2,16(sp)
  26 0014 23343101 		sd	s3,8(sp)
  27 0018 23304101 		sd	s4,0(sp)
  28              		.cfi_offset 1, -8
  29              		.cfi_offset 8, -16
  30              		.cfi_offset 9, -24
  31              		.cfi_offset 18, -32
  32              		.cfi_offset 19, -40
  33              		.cfi_offset 20, -48
  34 001c 13040103 		addi	s0,sp,48
  35              		.cfi_def_cfa 8, 0
  36 0020 130A0500 		mv	s4,a0
  37 0024 93890500 		mv	s3,a1
  38 0028 13890600 		mv	s2,a3
  19:src/_thread.cpp **** 
  20:src/_thread.cpp ****     *handle = new _thread(body, arg, stack_space);
GAS LISTING /tmp/cc1DGXyf.s 			page 2


  39              		.loc 1 20 5
  40              		.loc 1 20 49 is_stmt 0
  41 002c 13058002 		li	a0,40
  42              	.LVL1:
  43              	.LEHB0:
  44 0030 97000000 		call	_Znwm
  44      E7800000 
  45              	.LVL2:
  46              	.LEHE0:
  47 0038 93040500 		mv	s1,a0
  48              	.LVL3:
  49              	.LBB9:
  50              	.LBB10:
  51              		.file 2 "src/../h/_thread.hpp"
   1:src/../h/_thread.hpp **** //
   2:src/../h/_thread.hpp **** // Created by basara on 19.6.24..
   3:src/../h/_thread.hpp **** //
   4:src/../h/_thread.hpp **** 
   5:src/../h/_thread.hpp **** #ifndef PROJECT_BASE_HPP
   6:src/../h/_thread.hpp **** #define PROJECT_BASE_HPP
   7:src/../h/_thread.hpp **** 
   8:src/../h/_thread.hpp **** #include "../lib/hw.h"
   9:src/../h/_thread.hpp **** #include "scheduler.hpp"
  10:src/../h/_thread.hpp **** 
  11:src/../h/_thread.hpp **** typedef _thread* thread_t;
  12:src/../h/_thread.hpp **** class _thread{
  13:src/../h/_thread.hpp **** public:
  14:src/../h/_thread.hpp ****     static _thread *running;
  15:src/../h/_thread.hpp **** 
  16:src/../h/_thread.hpp ****     ~_thread() {delete[] stack;}
  17:src/../h/_thread.hpp **** 
  18:src/../h/_thread.hpp ****     bool isFinished() const { return finished; }
  19:src/../h/_thread.hpp **** 
  20:src/../h/_thread.hpp ****     void setFinished(bool fin) { _thread::finished = fin; }
  21:src/../h/_thread.hpp **** 
  22:src/../h/_thread.hpp ****     using Body = void (*)(); //pokazivac na funkciju koja nema argumente ni povratnu vrednost
  23:src/../h/_thread.hpp **** 
  24:src/../h/_thread.hpp ****     static int create_thread(thread_t* handle, Body body, void* arg, void* stack_space);
  25:src/../h/_thread.hpp **** 
  26:src/../h/_thread.hpp ****     static void yield();
  27:src/../h/_thread.hpp **** 
  28:src/../h/_thread.hpp ****     static int thread_exit();
  29:src/../h/_thread.hpp **** 
  30:src/../h/_thread.hpp **** private:
  31:src/../h/_thread.hpp ****     _thread(Body body, void* arg, void* stack_space):
  32:src/../h/_thread.hpp ****         body(body),
  33:src/../h/_thread.hpp ****         stack(static_cast<uint64 *>(body != nullptr ? stack_space : nullptr)),
  34:src/../h/_thread.hpp ****         context({
  35:src/../h/_thread.hpp ****             (body != nullptr ? (uint64) body : 0),
  36:src/../h/_thread.hpp ****             stack != nullptr ? (uint64) &stack[DEFAULT_STACK_SIZE] : 0
  37:src/../h/_thread.hpp ****         }),
  38:src/../h/_thread.hpp ****         finished(false) {
  52              		.loc 2 38 23
  53 003c 23303501 		sd	s3,0(a0)
  33:src/../h/_thread.hpp ****         context({
  54              		.loc 2 33 15
  55 0040 638E0902 		beqz	s3,.L15
GAS LISTING /tmp/cc1DGXyf.s 			page 3


  56              	.LVL4:
  57              	.L2:
  58              		.loc 2 38 23
  59 0044 23B42401 		sd	s2,8(s1)
  35:src/../h/_thread.hpp ****             stack != nullptr ? (uint64) &stack[DEFAULT_STACK_SIZE] : 0
  60              		.loc 2 35 30
  61 0048 638E0902 		beqz	s3,.L9
  62 004c 93870900 		mv	a5,s3
  63              	.L3:
  64              		.loc 2 38 23
  65 0050 23B8F400 		sd	a5,16(s1)
  36:src/../h/_thread.hpp ****         }),
  66              		.loc 2 36 30
  67 0054 630C0902 		beqz	s2,.L10
  36:src/../h/_thread.hpp ****         }),
  68              		.loc 2 36 41
  69 0058 B7860000 		li	a3,32768
  70 005c 3309D900 		add	s2,s2,a3
  71              	.L4:
  72              		.loc 2 38 23
  73 0060 23BC2401 		sd	s2,24(s1)
  74 0064 23800402 		sb	zero,32(s1)
  39:src/../h/_thread.hpp ****         if (body != nullptr) { Scheduler::put(this); } //zbog maina da ne bi opet ubaciovao u skedz
  75              		.loc 2 39 9 is_stmt 1
  76 0068 63860902 		beqz	s3,.L5
  77              		.loc 2 39 32
  78              		.loc 2 39 46 is_stmt 0
  79 006c 13850400 		mv	a0,s1
  80              	.LEHB1:
  81 0070 97000000 		call	_ZN9Scheduler3putEP7_thread
  81      E7800000 
  82              	.LVL5:
  83              	.LEHE1:
  84 0078 6F00C001 		j	.L5
  85              	.LVL6:
  86              	.L15:
  33:src/../h/_thread.hpp ****         context({
  87              		.loc 2 33 15
  88 007c 13090000 		li	s2,0
  89              	.LVL7:
  90 0080 6FF05FFC 		j	.L2
  91              	.L9:
  35:src/../h/_thread.hpp ****             stack != nullptr ? (uint64) &stack[DEFAULT_STACK_SIZE] : 0
  92              		.loc 2 35 30
  93 0084 93070000 		li	a5,0
  94 0088 6FF09FFC 		j	.L3
  95              	.L10:
  36:src/../h/_thread.hpp ****         }),
  96              		.loc 2 36 30
  97 008c 13090000 		li	s2,0
  98 0090 6FF01FFD 		j	.L4
  99              	.L5:
 100              	.LVL8:
 101              	.LBE10:
 102              	.LBE9:
 103              		.loc 1 20 13
 104 0094 23309A00 		sd	s1,0(s4)
GAS LISTING /tmp/cc1DGXyf.s 			page 4


  21:src/_thread.cpp ****     if(*handle != nullptr) return 0;//mozda treba !=nullptr
 105              		.loc 1 21 5 is_stmt 1
 106 0098 63840402 		beqz	s1,.L16
 107              		.loc 1 21 35 is_stmt 0
 108 009c 13050000 		li	a0,0
 109              	.L13:
  22:src/_thread.cpp ****     return -1;
  23:src/_thread.cpp **** }
 110              		.loc 1 23 1
 111 00a0 83308102 		ld	ra,40(sp)
 112              		.cfi_remember_state
 113              		.cfi_restore 1
 114 00a4 03340102 		ld	s0,32(sp)
 115              		.cfi_restore 8
 116              		.cfi_def_cfa 2, 48
 117 00a8 83348101 		ld	s1,24(sp)
 118              		.cfi_restore 9
 119 00ac 03390101 		ld	s2,16(sp)
 120              		.cfi_restore 18
 121 00b0 83398100 		ld	s3,8(sp)
 122              		.cfi_restore 19
 123              	.LVL9:
 124 00b4 033A0100 		ld	s4,0(sp)
 125              		.cfi_restore 20
 126              	.LVL10:
 127 00b8 13010103 		addi	sp,sp,48
 128              		.cfi_def_cfa_offset 0
 129 00bc 67800000 		jr	ra
 130              	.LVL11:
 131              	.L16:
 132              		.cfi_restore_state
  22:src/_thread.cpp ****     return -1;
 133              		.loc 1 22 13
 134 00c0 1305F0FF 		li	a0,-1
 135 00c4 6FF0DFFD 		j	.L13
 136              	.LVL12:
 137              	.L12:
 138 00c8 13090500 		mv	s2,a0
  20:src/_thread.cpp ****     if(*handle != nullptr) return 0;//mozda treba !=nullptr
 139              		.loc 1 20 49
 140 00cc 13850400 		mv	a0,s1
 141 00d0 97000000 		call	_ZdlPv
 141      E7800000 
 142              	.LVL13:
 143 00d8 13050900 		mv	a0,s2
 144              	.LEHB2:
 145 00dc 97000000 		call	_Unwind_Resume
 145      E7800000 
 146              	.LVL14:
 147              	.LEHE2:
 148              		.cfi_endproc
 149              	.LFE33:
 150              		.globl	__gxx_personality_v0
 151              		.section	.gcc_except_table,"aw",@progbits
 152              	.LLSDA33:
 153 0000 FF       		.byte	0xff
 154 0001 FF       		.byte	0xff
GAS LISTING /tmp/cc1DGXyf.s 			page 5


 155 0002 03       		.byte	0x3
 156 0003 27       		.byte	0x27
 157 0004 00000000 		.4byte	.LEHB0-.LFB33
 158 0008 00000000 		.4byte	.LEHE0-.LEHB0
 159 000c 00000000 		.4byte	0
 160 0010 00       		.byte	0
 161 0011 00000000 		.4byte	.LEHB1-.LFB33
 162 0015 00000000 		.4byte	.LEHE1-.LEHB1
 163 0019 00000000 		.4byte	.L12-.LFB33
 164 001d 00       		.byte	0
 165 001e 00000000 		.4byte	.LEHB2-.LFB33
 166 0022 00000000 		.4byte	.LEHE2-.LEHB2
 167 0026 00000000 		.4byte	0
 168 002a 00       		.byte	0
 169              		.text
 171              		.align	2
 172              		.globl	_ZN7_thread15thread_dispatchEv
 174              	_ZN7_thread15thread_dispatchEv:
 175              	.LFB34:
  24:src/_thread.cpp **** 
  25:src/_thread.cpp **** 
  26:src/_thread.cpp **** void _thread::thread_dispatch(){
 176              		.loc 1 26 32 is_stmt 1
 177              		.cfi_startproc
 178 00e4 130101FE 		addi	sp,sp,-32
 179              		.cfi_def_cfa_offset 32
 180 00e8 233C1100 		sd	ra,24(sp)
 181 00ec 23388100 		sd	s0,16(sp)
 182 00f0 23349100 		sd	s1,8(sp)
 183              		.cfi_offset 1, -8
 184              		.cfi_offset 8, -16
 185              		.cfi_offset 9, -24
 186 00f4 13040102 		addi	s0,sp,32
 187              		.cfi_def_cfa 8, 0
  27:src/_thread.cpp ****     _thread *old = running;
 188              		.loc 1 27 5
 189              		.loc 1 27 14 is_stmt 0
 190 00f8 97040000 		ld	s1,_ZN7_thread7runningE
 190      83B40400 
 191              	.LVL15:
  28:src/_thread.cpp ****     if(!old->isFinished()){ Scheduler::put(old);}//ako se menja a nije gotova stavljam u skedzuler
 192              		.loc 1 28 5 is_stmt 1
 193              	.LBB11:
 194              	.LBB12:
  18:src/../h/_thread.hpp **** 
 195              		.loc 2 18 31
  18:src/../h/_thread.hpp **** 
 196              		.loc 2 18 38 is_stmt 0
 197 0100 83C70402 		lbu	a5,32(s1)
 198              	.LVL16:
 199              	.LBE12:
 200              	.LBE11:
 201              		.loc 1 28 5
 202 0104 638C0702 		beqz	a5,.L20
 203              	.L18:
  29:src/_thread.cpp ****     running = Scheduler::get();
 204              		.loc 1 29 5 is_stmt 1
GAS LISTING /tmp/cc1DGXyf.s 			page 6


 205              		.loc 1 29 29 is_stmt 0
 206 0108 97000000 		call	_ZN9Scheduler3getEv
 206      E7800000 
 207              	.LVL17:
 208              		.loc 1 29 13
 209 0110 97070000 		sd	a0,_ZN7_thread7runningE,a5
 209      23B0A700 
  30:src/_thread.cpp **** 
  31:src/_thread.cpp ****     //trenutni ra cuvam u old->context, a novi ra uzimam iz running->context i stavljam u ra regist
  32:src/_thread.cpp ****     _thread::contextSwitch(&old->context, &running->context);
 210              		.loc 1 32 5 is_stmt 1
 211              		.loc 1 32 27 is_stmt 0
 212 0118 93050501 		addi	a1,a0,16
 213 011c 13850401 		addi	a0,s1,16
 214 0120 97000000 		call	_ZN7_thread13contextSwitchEPNS_7ContextES1_
 214      E7800000 
 215              	.LVL18:
  33:src/_thread.cpp **** }
 216              		.loc 1 33 1
 217 0128 83308101 		ld	ra,24(sp)
 218              		.cfi_remember_state
 219              		.cfi_restore 1
 220 012c 03340101 		ld	s0,16(sp)
 221              		.cfi_restore 8
 222              		.cfi_def_cfa 2, 32
 223 0130 83348100 		ld	s1,8(sp)
 224              		.cfi_restore 9
 225              	.LVL19:
 226 0134 13010102 		addi	sp,sp,32
 227              		.cfi_def_cfa_offset 0
 228 0138 67800000 		jr	ra
 229              	.LVL20:
 230              	.L20:
 231              		.cfi_restore_state
  28:src/_thread.cpp ****     running = Scheduler::get();
 232              		.loc 1 28 29 is_stmt 1 discriminator 1
  28:src/_thread.cpp ****     running = Scheduler::get();
 233              		.loc 1 28 43 is_stmt 0 discriminator 1
 234 013c 13850400 		mv	a0,s1
 235 0140 97000000 		call	_ZN9Scheduler3putEP7_thread
 235      E7800000 
 236              	.LVL21:
 237 0148 6FF01FFC 		j	.L18
 238              		.cfi_endproc
 239              	.LFE34:
 241              		.align	2
 242              		.globl	_ZN7_thread5yieldEv
 244              	_ZN7_thread5yieldEv:
 245              	.LFB32:
  10:src/_thread.cpp ****     Riscv::pushRegisters();
 246              		.loc 1 10 22 is_stmt 1
 247              		.cfi_startproc
 248 014c 130101FF 		addi	sp,sp,-16
 249              		.cfi_def_cfa_offset 16
 250 0150 23341100 		sd	ra,8(sp)
 251 0154 23308100 		sd	s0,0(sp)
 252              		.cfi_offset 1, -8
GAS LISTING /tmp/cc1DGXyf.s 			page 7


 253              		.cfi_offset 8, -16
 254 0158 13040101 		addi	s0,sp,16
 255              		.cfi_def_cfa 8, 0
  11:src/_thread.cpp **** 
 256              		.loc 1 11 5
  11:src/_thread.cpp **** 
 257              		.loc 1 11 25 is_stmt 0
 258 015c 97000000 		call	_ZN5Riscv13pushRegistersEv
 258      E7800000 
 259              	.LVL22:
  13:src/_thread.cpp **** 
 260              		.loc 1 13 5 is_stmt 1
  13:src/_thread.cpp **** 
 261              		.loc 1 13 29 is_stmt 0
 262 0164 97000000 		call	_ZN7_thread15thread_dispatchEv
 262      E7800000 
 263              	.LVL23:
  15:src/_thread.cpp **** }
 264              		.loc 1 15 5 is_stmt 1
  15:src/_thread.cpp **** }
 265              		.loc 1 15 24 is_stmt 0
 266 016c 97000000 		call	_ZN5Riscv12popRegistersEv
 266      E7800000 
 267              	.LVL24:
  16:src/_thread.cpp **** 
 268              		.loc 1 16 1
 269 0174 83308100 		ld	ra,8(sp)
 270              		.cfi_restore 1
 271 0178 03340100 		ld	s0,0(sp)
 272              		.cfi_restore 8
 273              		.cfi_def_cfa 2, 16
 274 017c 13010101 		addi	sp,sp,16
 275              		.cfi_def_cfa_offset 0
 276 0180 67800000 		jr	ra
 277              		.cfi_endproc
 278              	.LFE32:
 280              		.align	2
 281              		.globl	_ZN7_thread11thread_exitEv
 283              	_ZN7_thread11thread_exitEv:
 284              	.LFB35:
  34:src/_thread.cpp **** 
  35:src/_thread.cpp **** int _thread::thread_exit() {
 285              		.loc 1 35 28 is_stmt 1
 286              		.cfi_startproc
 287 0184 130101FF 		addi	sp,sp,-16
 288              		.cfi_def_cfa_offset 16
 289 0188 23341100 		sd	ra,8(sp)
 290 018c 23308100 		sd	s0,0(sp)
 291              		.cfi_offset 1, -8
 292              		.cfi_offset 8, -16
 293 0190 13040101 		addi	s0,sp,16
 294              		.cfi_def_cfa 8, 0
  36:src/_thread.cpp ****     _thread::running->setFinished(true);
 295              		.loc 1 36 5
 296              	.LVL25:
 297              	.LBB13:
 298              	.LBB14:
GAS LISTING /tmp/cc1DGXyf.s 			page 8


  20:src/../h/_thread.hpp **** 
 299              		.loc 2 20 34
  20:src/../h/_thread.hpp **** 
 300              		.loc 2 20 52 is_stmt 0
 301 0194 97070000 		ld	a5,_ZN7_thread7runningE
 301      83B70700 
 302 019c 13071000 		li	a4,1
 303 01a0 2380E702 		sb	a4,32(a5)
 304              	.LVL26:
 305              	.LBE14:
 306              	.LBE13:
  37:src/_thread.cpp ****     //delete running;
  38:src/_thread.cpp ****     yield();
 307              		.loc 1 38 5 is_stmt 1
 308              		.loc 1 38 10 is_stmt 0
 309 01a4 97000000 		call	_ZN7_thread5yieldEv
 309      E7800000 
 310              	.LVL27:
  39:src/_thread.cpp ****     return 0;
 311              		.loc 1 39 5 is_stmt 1
  40:src/_thread.cpp **** }
 312              		.loc 1 40 1 is_stmt 0
 313 01ac 13050000 		li	a0,0
 314 01b0 83308100 		ld	ra,8(sp)
 315              		.cfi_restore 1
 316 01b4 03340100 		ld	s0,0(sp)
 317              		.cfi_restore 8
 318              		.cfi_def_cfa 2, 16
 319 01b8 13010101 		addi	sp,sp,16
 320              		.cfi_def_cfa_offset 0
 321 01bc 67800000 		jr	ra
 322              		.cfi_endproc
 323              	.LFE35:
 325              		.globl	_ZN7_thread7runningE
 326              		.section	.sbss,"aw",@nobits
 327              		.align	3
 330              	_ZN7_thread7runningE:
 331 0000 00000000 		.zero	8
 331      00000000 
 332              		.text
 333              	.Letext0:
 334              		.file 3 "src/../h/../lib/hw.h"
 335              		.file 4 "src/../h/scheduler.hpp"
 336              		.file 5 "src/../h/riscv.hpp"
 2418              		.align	3
 2421              	DW.ref.__gxx_personality_v0:
 2422 0000 00000000 		.dword	__gxx_personality_v0
 2422      00000000 
 2423              		.ident	"GCC: () 9.3.0"
GAS LISTING /tmp/cc1DGXyf.s 			page 9


DEFINED SYMBOLS
                            *ABS*:0000000000000000 _thread.cpp
     /tmp/cc1DGXyf.s:12     .text:0000000000000000 _ZN7_thread13create_threadEPPS_PFvvEPvS4_
     /tmp/cc1DGXyf.s:16     .text:0000000000000000 .L0 
     /tmp/cc1DGXyf.s:2421   .sdata.DW.ref.__gxx_personality_v0:0000000000000000 DW.ref.__gxx_personality_v0
     /tmp/cc1DGXyf.s:20     .text:0000000000000000 .L0 
     /tmp/cc1DGXyf.s:21     .text:0000000000000004 .L0 
     /tmp/cc1DGXyf.s:28     .text:000000000000001c .L0 
     /tmp/cc1DGXyf.s:29     .text:000000000000001c .L0 
     /tmp/cc1DGXyf.s:30     .text:000000000000001c .L0 
     /tmp/cc1DGXyf.s:31     .text:000000000000001c .L0 
     /tmp/cc1DGXyf.s:32     .text:000000000000001c .L0 
     /tmp/cc1DGXyf.s:33     .text:000000000000001c .L0 
     /tmp/cc1DGXyf.s:35     .text:0000000000000020 .L0 
     /tmp/cc1DGXyf.s:40     .text:000000000000002c .L0 
     /tmp/cc1DGXyf.s:41     .text:000000000000002c .L0 
     /tmp/cc1DGXyf.s:53     .text:000000000000003c .L0 
     /tmp/cc1DGXyf.s:55     .text:0000000000000040 .L0 
     /tmp/cc1DGXyf.s:59     .text:0000000000000044 .L0 
     /tmp/cc1DGXyf.s:61     .text:0000000000000048 .L0 
     /tmp/cc1DGXyf.s:65     .text:0000000000000050 .L0 
     /tmp/cc1DGXyf.s:67     .text:0000000000000054 .L0 
     /tmp/cc1DGXyf.s:69     .text:0000000000000058 .L0 
     /tmp/cc1DGXyf.s:73     .text:0000000000000060 .L0 
     /tmp/cc1DGXyf.s:76     .text:0000000000000068 .L0 
     /tmp/cc1DGXyf.s:78     .text:000000000000006c .L0 
     /tmp/cc1DGXyf.s:79     .text:000000000000006c .L0 
     /tmp/cc1DGXyf.s:88     .text:000000000000007c .L0 
     /tmp/cc1DGXyf.s:93     .text:0000000000000084 .L0 
     /tmp/cc1DGXyf.s:97     .text:000000000000008c .L0 
     /tmp/cc1DGXyf.s:104    .text:0000000000000094 .L0 
     /tmp/cc1DGXyf.s:106    .text:0000000000000098 .L0 
     /tmp/cc1DGXyf.s:108    .text:000000000000009c .L0 
     /tmp/cc1DGXyf.s:111    .text:00000000000000a0 .L0 
     /tmp/cc1DGXyf.s:112    .text:00000000000000a4 .L0 
     /tmp/cc1DGXyf.s:113    .text:00000000000000a4 .L0 
     /tmp/cc1DGXyf.s:115    .text:00000000000000a8 .L0 
     /tmp/cc1DGXyf.s:116    .text:00000000000000a8 .L0 
     /tmp/cc1DGXyf.s:118    .text:00000000000000ac .L0 
     /tmp/cc1DGXyf.s:120    .text:00000000000000b0 .L0 
     /tmp/cc1DGXyf.s:122    .text:00000000000000b4 .L0 
     /tmp/cc1DGXyf.s:125    .text:00000000000000b8 .L0 
     /tmp/cc1DGXyf.s:128    .text:00000000000000bc .L0 
     /tmp/cc1DGXyf.s:132    .text:00000000000000c0 .L0 
     /tmp/cc1DGXyf.s:134    .text:00000000000000c0 .L0 
     /tmp/cc1DGXyf.s:140    .text:00000000000000cc .L0 
     /tmp/cc1DGXyf.s:148    .text:00000000000000e4 .L0 
     /tmp/cc1DGXyf.s:174    .text:00000000000000e4 _ZN7_thread15thread_dispatchEv
     /tmp/cc1DGXyf.s:177    .text:00000000000000e4 .L0 
     /tmp/cc1DGXyf.s:178    .text:00000000000000e4 .L0 
     /tmp/cc1DGXyf.s:179    .text:00000000000000e8 .L0 
     /tmp/cc1DGXyf.s:183    .text:00000000000000f4 .L0 
     /tmp/cc1DGXyf.s:184    .text:00000000000000f4 .L0 
     /tmp/cc1DGXyf.s:185    .text:00000000000000f4 .L0 
     /tmp/cc1DGXyf.s:187    .text:00000000000000f8 .L0 
     /tmp/cc1DGXyf.s:189    .text:00000000000000f8 .L0 
     /tmp/cc1DGXyf.s:330    .sbss:0000000000000000 _ZN7_thread7runningE
GAS LISTING /tmp/cc1DGXyf.s 			page 10


     /tmp/cc1DGXyf.s:190    .text:00000000000000f8 .L0 
     /tmp/cc1DGXyf.s:195    .text:0000000000000100 .L0 
     /tmp/cc1DGXyf.s:196    .text:0000000000000100 .L0 
     /tmp/cc1DGXyf.s:197    .text:0000000000000100 .L0 
     /tmp/cc1DGXyf.s:202    .text:0000000000000104 .L0 
     /tmp/cc1DGXyf.s:205    .text:0000000000000108 .L0 
     /tmp/cc1DGXyf.s:206    .text:0000000000000108 .L0 
     /tmp/cc1DGXyf.s:209    .text:0000000000000110 .L0 
     /tmp/cc1DGXyf.s:211    .text:0000000000000118 .L0 
     /tmp/cc1DGXyf.s:212    .text:0000000000000118 .L0 
     /tmp/cc1DGXyf.s:217    .text:0000000000000128 .L0 
     /tmp/cc1DGXyf.s:218    .text:000000000000012c .L0 
     /tmp/cc1DGXyf.s:219    .text:000000000000012c .L0 
     /tmp/cc1DGXyf.s:221    .text:0000000000000130 .L0 
     /tmp/cc1DGXyf.s:222    .text:0000000000000130 .L0 
     /tmp/cc1DGXyf.s:224    .text:0000000000000134 .L0 
     /tmp/cc1DGXyf.s:227    .text:0000000000000138 .L0 
     /tmp/cc1DGXyf.s:231    .text:000000000000013c .L0 
     /tmp/cc1DGXyf.s:233    .text:000000000000013c .L0 
     /tmp/cc1DGXyf.s:234    .text:000000000000013c .L0 
     /tmp/cc1DGXyf.s:238    .text:000000000000014c .L0 
     /tmp/cc1DGXyf.s:244    .text:000000000000014c _ZN7_thread5yieldEv
     /tmp/cc1DGXyf.s:247    .text:000000000000014c .L0 
     /tmp/cc1DGXyf.s:248    .text:000000000000014c .L0 
     /tmp/cc1DGXyf.s:249    .text:0000000000000150 .L0 
     /tmp/cc1DGXyf.s:252    .text:0000000000000158 .L0 
     /tmp/cc1DGXyf.s:253    .text:0000000000000158 .L0 
     /tmp/cc1DGXyf.s:255    .text:000000000000015c .L0 
     /tmp/cc1DGXyf.s:257    .text:000000000000015c .L0 
     /tmp/cc1DGXyf.s:258    .text:000000000000015c .L0 
     /tmp/cc1DGXyf.s:261    .text:0000000000000164 .L0 
     /tmp/cc1DGXyf.s:262    .text:0000000000000164 .L0 
     /tmp/cc1DGXyf.s:265    .text:000000000000016c .L0 
     /tmp/cc1DGXyf.s:266    .text:000000000000016c .L0 
     /tmp/cc1DGXyf.s:269    .text:0000000000000174 .L0 
     /tmp/cc1DGXyf.s:270    .text:0000000000000178 .L0 
     /tmp/cc1DGXyf.s:272    .text:000000000000017c .L0 
     /tmp/cc1DGXyf.s:273    .text:000000000000017c .L0 
     /tmp/cc1DGXyf.s:275    .text:0000000000000180 .L0 
     /tmp/cc1DGXyf.s:277    .text:0000000000000184 .L0 
     /tmp/cc1DGXyf.s:283    .text:0000000000000184 _ZN7_thread11thread_exitEv
     /tmp/cc1DGXyf.s:286    .text:0000000000000184 .L0 
     /tmp/cc1DGXyf.s:287    .text:0000000000000184 .L0 
     /tmp/cc1DGXyf.s:288    .text:0000000000000188 .L0 
     /tmp/cc1DGXyf.s:291    .text:0000000000000190 .L0 
     /tmp/cc1DGXyf.s:292    .text:0000000000000190 .L0 
     /tmp/cc1DGXyf.s:294    .text:0000000000000194 .L0 
     /tmp/cc1DGXyf.s:299    .text:0000000000000194 .L0 
     /tmp/cc1DGXyf.s:300    .text:0000000000000194 .L0 
     /tmp/cc1DGXyf.s:301    .text:0000000000000194 .L0 
     /tmp/cc1DGXyf.s:308    .text:00000000000001a4 .L0 
     /tmp/cc1DGXyf.s:309    .text:00000000000001a4 .L0 
     /tmp/cc1DGXyf.s:312    .text:00000000000001ac .L0 
     /tmp/cc1DGXyf.s:313    .text:00000000000001ac .L0 
     /tmp/cc1DGXyf.s:315    .text:00000000000001b4 .L0 
     /tmp/cc1DGXyf.s:317    .text:00000000000001b8 .L0 
     /tmp/cc1DGXyf.s:318    .text:00000000000001b8 .L0 
GAS LISTING /tmp/cc1DGXyf.s 			page 11


     /tmp/cc1DGXyf.s:320    .text:00000000000001bc .L0 
     /tmp/cc1DGXyf.s:322    .text:00000000000001c0 .L0 
     /tmp/cc1DGXyf.s:337    .text:00000000000001c0 .L0 
     /tmp/cc1DGXyf.s:190    .text:00000000000000f8 .L0 
     /tmp/cc1DGXyf.s:209    .text:0000000000000110 .L0 
     /tmp/cc1DGXyf.s:301    .text:0000000000000194 .L0 
     /tmp/cc1DGXyf.s:86     .text:000000000000007c .L15
     /tmp/cc1DGXyf.s:91     .text:0000000000000084 .L9
     /tmp/cc1DGXyf.s:95     .text:000000000000008c .L10
     /tmp/cc1DGXyf.s:99     .text:0000000000000094 .L5
     /tmp/cc1DGXyf.s:57     .text:0000000000000044 .L2
     /tmp/cc1DGXyf.s:63     .text:0000000000000050 .L3
     /tmp/cc1DGXyf.s:71     .text:0000000000000060 .L4
     /tmp/cc1DGXyf.s:131    .text:00000000000000c0 .L16
     /tmp/cc1DGXyf.s:109    .text:00000000000000a0 .L13
     /tmp/cc1DGXyf.s:230    .text:000000000000013c .L20
     /tmp/cc1DGXyf.s:203    .text:0000000000000108 .L18
     /tmp/cc1DGXyf.s:43     .text:0000000000000030 .LEHB0
     /tmp/cc1DGXyf.s:13     .text:0000000000000000 .LFB33
     /tmp/cc1DGXyf.s:46     .text:0000000000000038 .LEHE0
     /tmp/cc1DGXyf.s:80     .text:0000000000000070 .LEHB1
     /tmp/cc1DGXyf.s:83     .text:0000000000000078 .LEHE1
     /tmp/cc1DGXyf.s:137    .text:00000000000000c8 .L12
     /tmp/cc1DGXyf.s:144    .text:00000000000000dc .LEHB2
     /tmp/cc1DGXyf.s:147    .text:00000000000000e4 .LEHE2
     /tmp/cc1DGXyf.s:1205   .debug_abbrev:0000000000000000 .Ldebug_abbrev0
     /tmp/cc1DGXyf.s:2225   .debug_str:000000000000008e .LASF91
     /tmp/cc1DGXyf.s:2391   .debug_str:000000000000068f .LASF92
     /tmp/cc1DGXyf.s:2235   .debug_str:0000000000000187 .LASF93
     /tmp/cc1DGXyf.s:8      .text:0000000000000000 .Ltext0
     /tmp/cc1DGXyf.s:333    .text:00000000000001c0 .Letext0
     /tmp/cc1DGXyf.s:2201   .debug_line:0000000000000000 .Ldebug_line0
     /tmp/cc1DGXyf.s:2315   .debug_str:000000000000044c .LASF0
     /tmp/cc1DGXyf.s:2327   .debug_str:000000000000048d .LASF1
     /tmp/cc1DGXyf.s:2303   .debug_str:00000000000003f5 .LASF2
     /tmp/cc1DGXyf.s:2279   .debug_str:0000000000000301 .LASF4
     /tmp/cc1DGXyf.s:2355   .debug_str:0000000000000568 .LASF3
     /tmp/cc1DGXyf.s:2227   .debug_str:0000000000000152 .LASF5
     /tmp/cc1DGXyf.s:2329   .debug_str:00000000000004a0 .LASF6
     /tmp/cc1DGXyf.s:2313   .debug_str:0000000000000439 .LASF7
     /tmp/cc1DGXyf.s:2385   .debug_str:0000000000000659 .LASF8
     /tmp/cc1DGXyf.s:2267   .debug_str:000000000000029c .LASF9
     /tmp/cc1DGXyf.s:2339   .debug_str:00000000000004f6 .LASF10
     /tmp/cc1DGXyf.s:2375   .debug_str:00000000000005fa .LASF11
     /tmp/cc1DGXyf.s:2229   .debug_str:0000000000000159 .LASF12
     /tmp/cc1DGXyf.s:2209   .debug_str:000000000000002b .LASF13
     /tmp/cc1DGXyf.s:2305   .debug_str:0000000000000403 .LASF14
     /tmp/cc1DGXyf.s:2349   .debug_str:0000000000000534 .LASF15
     /tmp/cc1DGXyf.s:2243   .debug_str:00000000000001fd .LASF16
     /tmp/cc1DGXyf.s:2335   .debug_str:00000000000004ce .LASF17
     /tmp/cc1DGXyf.s:2393   .debug_str:000000000000069f .LASF94
     /tmp/cc1DGXyf.s:2275   .debug_str:00000000000002e5 .LASF95
     /tmp/cc1DGXyf.s:2381   .debug_str:0000000000000625 .LASF96
     /tmp/cc1DGXyf.s:2283   .debug_str:0000000000000311 .LASF97
     /tmp/cc1DGXyf.s:2277   .debug_str:00000000000002f9 .LASF18
     /tmp/cc1DGXyf.s:2213   .debug_str:0000000000000044 .LASF98
     /tmp/cc1DGXyf.s:2253   .debug_str:000000000000024a .LASF99
GAS LISTING /tmp/cc1DGXyf.s 			page 12


     /tmp/cc1DGXyf.s:2379   .debug_str:000000000000061c .LASF19
     /tmp/cc1DGXyf.s:2333   .debug_str:00000000000004be .LASF21
     /tmp/cc1DGXyf.s:2331   .debug_str:00000000000004b3 .LASF100
     /tmp/cc1DGXyf.s:2299   .debug_str:00000000000003c5 .LASF101
     /tmp/cc1DGXyf.s:2343   .debug_str:0000000000000518 .LASF20
     /tmp/cc1DGXyf.s:2297   .debug_str:00000000000003aa .LASF22
     /tmp/cc1DGXyf.s:2389   .debug_str:0000000000000681 .LASF23
     /tmp/cc1DGXyf.s:2285   .debug_str:000000000000031f .LASF24
     /tmp/cc1DGXyf.s:2345   .debug_str:0000000000000524 .LASF102
     /tmp/cc1DGXyf.s:2351   .debug_str:000000000000054a .LASF34
     /tmp/cc1DGXyf.s:2369   .debug_str:00000000000005cd .LASF36
     /tmp/cc1DGXyf.s:2217   .debug_str:0000000000000067 .LASF25
     /tmp/cc1DGXyf.s:2261   .debug_str:0000000000000273 .LASF45
     /tmp/cc1DGXyf.s:2307   .debug_str:000000000000040f .LASF48
     /tmp/cc1DGXyf.s:2251   .debug_str:0000000000000245 .LASF26
     /tmp/cc1DGXyf.s:2321   .debug_str:0000000000000476 .LASF27
     /tmp/cc1DGXyf.s:2287   .debug_str:0000000000000349 .LASF28
     /tmp/cc1DGXyf.s:2281   .debug_str:0000000000000308 .LASF29
     /tmp/cc1DGXyf.s:2395   .debug_str:00000000000006b3 .LASF30
     /tmp/cc1DGXyf.s:2295   .debug_str:000000000000037e .LASF103
     /tmp/cc1DGXyf.s:2239   .debug_str:00000000000001ce .LASF78
     /tmp/cc1DGXyf.s:2241   .debug_str:00000000000001de .LASF80
     /tmp/cc1DGXyf.s:2203   .debug_str:0000000000000000 .LASF31
     /tmp/cc1DGXyf.s:2259   .debug_str:000000000000026e .LASF32
     /tmp/cc1DGXyf.s:2323   .debug_str:000000000000047c .LASF33
     /tmp/cc1DGXyf.s:2273   .debug_str:00000000000002d4 .LASF35
     /tmp/cc1DGXyf.s:2337   .debug_str:00000000000004d8 .LASF37
     /tmp/cc1DGXyf.s:2347   .debug_str:0000000000000529 .LASF38
     /tmp/cc1DGXyf.s:2405   .debug_str:00000000000006ff .LASF39
     /tmp/cc1DGXyf.s:2223   .debug_str:0000000000000080 .LASF40
     /tmp/cc1DGXyf.s:2215   .debug_str:000000000000004c .LASF41
     /tmp/cc1DGXyf.s:2363   .debug_str:00000000000005a6 .LASF42
     /tmp/cc1DGXyf.s:2207   .debug_str:0000000000000011 .LASF43
     /tmp/cc1DGXyf.s:2211   .debug_str:000000000000003b .LASF44
     /tmp/cc1DGXyf.s:2361   .debug_str:0000000000000591 .LASF46
     /tmp/cc1DGXyf.s:2249   .debug_str:000000000000023c .LASF47
     /tmp/cc1DGXyf.s:2247   .debug_str:0000000000000227 .LASF49
     /tmp/cc1DGXyf.s:2357   .debug_str:000000000000057a .LASF50
     /tmp/cc1DGXyf.s:2341   .debug_str:0000000000000505 .LASF51
     /tmp/cc1DGXyf.s:2373   .debug_str:00000000000005f3 .LASF52
     /tmp/cc1DGXyf.s:2367   .debug_str:00000000000005ba .LASF53
     /tmp/cc1DGXyf.s:2263   .debug_str:000000000000028e .LASF54
     /tmp/cc1DGXyf.s:2245   .debug_str:0000000000000213 .LASF55
     /tmp/cc1DGXyf.s:2205   .debug_str:0000000000000009 .LASF56
     /tmp/cc1DGXyf.s:2271   .debug_str:00000000000002c0 .LASF57
     /tmp/cc1DGXyf.s:2255   .debug_str:0000000000000252 .LASF58
     /tmp/cc1DGXyf.s:2231   .debug_str:0000000000000169 .LASF59
     /tmp/cc1DGXyf.s:2409   .debug_str:0000000000000722 .LASF60
     /tmp/cc1DGXyf.s:2257   .debug_str:000000000000025a .LASF61
     /tmp/cc1DGXyf.s:2317   .debug_str:0000000000000459 .LASF62
     /tmp/cc1DGXyf.s:2401   .debug_str:00000000000006e7 .LASF63
     /tmp/cc1DGXyf.s:2221   .debug_str:0000000000000079 .LASF64
     /tmp/cc1DGXyf.s:2377   .debug_str:0000000000000609 .LASF65
     /tmp/cc1DGXyf.s:2265   .debug_str:0000000000000296 .LASF66
     /tmp/cc1DGXyf.s:2371   .debug_str:00000000000005e1 .LASF67
     /tmp/cc1DGXyf.s:2219   .debug_str:0000000000000073 .LASF68
     /tmp/cc1DGXyf.s:2413   .debug_str:0000000000000736 .LASF69
GAS LISTING /tmp/cc1DGXyf.s 			page 13


     /tmp/cc1DGXyf.s:2407   .debug_str:0000000000000717 .LASF70
     /tmp/cc1DGXyf.s:2353   .debug_str:0000000000000550 .LASF71
     /tmp/cc1DGXyf.s:2325   .debug_str:0000000000000482 .LASF72
     /tmp/cc1DGXyf.s:2291   .debug_str:0000000000000360 .LASF73
     /tmp/cc1DGXyf.s:2233   .debug_str:000000000000017d .LASF74
     /tmp/cc1DGXyf.s:2319   .debug_str:0000000000000460 .LASF75
     /tmp/cc1DGXyf.s:2309   .debug_str:0000000000000428 .LASF76
     /tmp/cc1DGXyf.s:2269   .debug_str:00000000000002aa .LASF77
     /tmp/cc1DGXyf.s:2383   .debug_str:0000000000000641 .LASF79
     /tmp/cc1DGXyf.s:2237   .debug_str:00000000000001a9 .LASF81
     /tmp/cc1DGXyf.s:2301   .debug_str:00000000000003e0 .LASF104
     /tmp/cc1DGXyf.s:284    .text:0000000000000184 .LFB35
     /tmp/cc1DGXyf.s:323    .text:00000000000001c0 .LFE35
     /tmp/cc1DGXyf.s:297    .text:0000000000000194 .LBB13
     /tmp/cc1DGXyf.s:306    .text:00000000000001a4 .LBE13
     /tmp/cc1DGXyf.s:1996   .debug_loc:0000000000000000 .LLST10
     /tmp/cc1DGXyf.s:2004   .debug_loc:0000000000000024 .LLST11
     /tmp/cc1DGXyf.s:310    .text:00000000000001ac .LVL27
     /tmp/cc1DGXyf.s:175    .text:00000000000000e4 .LFB34
     /tmp/cc1DGXyf.s:239    .text:000000000000014c .LFE34
     /tmp/cc1DGXyf.s:2012   .debug_loc:000000000000004f .LLST8
     /tmp/cc1DGXyf.s:193    .text:0000000000000100 .LBB11
     /tmp/cc1DGXyf.s:200    .text:0000000000000104 .LBE11
     /tmp/cc1DGXyf.s:2023   .debug_loc:0000000000000085 .LLST9
     /tmp/cc1DGXyf.s:207    .text:0000000000000110 .LVL17
     /tmp/cc1DGXyf.s:215    .text:0000000000000128 .LVL18
     /tmp/cc1DGXyf.s:236    .text:0000000000000148 .LVL21
     /tmp/cc1DGXyf.s:149    .text:00000000000000e4 .LFE33
     /tmp/cc1DGXyf.s:2365   .debug_str:00000000000005b3 .LASF82
     /tmp/cc1DGXyf.s:2030   .debug_loc:00000000000000a8 .LLST0
     /tmp/cc1DGXyf.s:2052   .debug_loc:0000000000000107 .LLST1
     /tmp/cc1DGXyf.s:2074   .debug_loc:0000000000000166 .LLST2
     /tmp/cc1DGXyf.s:2411   .debug_str:000000000000072a .LASF83
     /tmp/cc1DGXyf.s:2088   .debug_loc:000000000000019f .LLST3
     /tmp/cc1DGXyf.s:49     .text:000000000000003c .LBB9
     /tmp/cc1DGXyf.s:102    .text:0000000000000094 .LBE9
     /tmp/cc1DGXyf.s:2117   .debug_loc:0000000000000214 .LLST4
     /tmp/cc1DGXyf.s:2149   .debug_loc:000000000000028c .LLST5
     /tmp/cc1DGXyf.s:2166   .debug_loc:00000000000002c8 .LLST6
     /tmp/cc1DGXyf.s:2177   .debug_loc:00000000000002fe .LLST7
     /tmp/cc1DGXyf.s:82     .text:0000000000000078 .LVL5
     /tmp/cc1DGXyf.s:45     .text:0000000000000038 .LVL2
     /tmp/cc1DGXyf.s:142    .text:00000000000000d8 .LVL13
     /tmp/cc1DGXyf.s:146    .text:00000000000000e4 .LVL14
     /tmp/cc1DGXyf.s:245    .text:000000000000014c .LFB32
     /tmp/cc1DGXyf.s:278    .text:0000000000000184 .LFE32
     /tmp/cc1DGXyf.s:259    .text:0000000000000164 .LVL22
     /tmp/cc1DGXyf.s:263    .text:000000000000016c .LVL23
     /tmp/cc1DGXyf.s:267    .text:0000000000000174 .LVL24
     /tmp/cc1DGXyf.s:2403   .debug_str:00000000000006fa .LASF84
     /tmp/cc1DGXyf.s:2399   .debug_str:00000000000006ce .LASF105
     /tmp/cc1DGXyf.s:2293   .debug_str:0000000000000378 .LASF85
     /tmp/cc1DGXyf.s:2397   .debug_str:00000000000006c1 .LASF87
     /tmp/cc1DGXyf.s:2311   .debug_str:0000000000000432 .LASF86
     /tmp/cc1DGXyf.s:2359   .debug_str:0000000000000581 .LASF88
     /tmp/cc1DGXyf.s:2289   .debug_str:0000000000000351 .LASF89
     /tmp/cc1DGXyf.s:2387   .debug_str:0000000000000669 .LASF90
GAS LISTING /tmp/cc1DGXyf.s 			page 14


     /tmp/cc1DGXyf.s:296    .text:0000000000000194 .LVL25
     /tmp/cc1DGXyf.s:304    .text:00000000000001a4 .LVL26
     /tmp/cc1DGXyf.s:191    .text:0000000000000100 .LVL15
     /tmp/cc1DGXyf.s:225    .text:0000000000000134 .LVL19
     /tmp/cc1DGXyf.s:229    .text:000000000000013c .LVL20
     /tmp/cc1DGXyf.s:198    .text:0000000000000104 .LVL16
     /tmp/cc1DGXyf.s:19     .text:0000000000000000 .LVL0
     /tmp/cc1DGXyf.s:42     .text:0000000000000030 .LVL1
     /tmp/cc1DGXyf.s:126    .text:00000000000000b8 .LVL10
     /tmp/cc1DGXyf.s:130    .text:00000000000000c0 .LVL11
     /tmp/cc1DGXyf.s:123    .text:00000000000000b4 .LVL9
     /tmp/cc1DGXyf.s:56     .text:0000000000000044 .LVL4
     /tmp/cc1DGXyf.s:85     .text:000000000000007c .LVL6
     /tmp/cc1DGXyf.s:89     .text:0000000000000080 .LVL7
     /tmp/cc1DGXyf.s:48     .text:000000000000003c .LVL3
     /tmp/cc1DGXyf.s:100    .text:0000000000000094 .LVL8
     /tmp/cc1DGXyf.s:136    .text:00000000000000c8 .LVL12
     /tmp/cc1DGXyf.s:338    .debug_info:0000000000000000 .Ldebug_info0
     /tmp/cc1DGXyf.s:152    .gcc_except_table:0000000000000000 .LLSDA33

UNDEFINED SYMBOLS
_Znwm
_ZN9Scheduler3putEP7_thread
_ZdlPv
_Unwind_Resume
__gxx_personality_v0
_ZN9Scheduler3getEv
_ZN7_thread13contextSwitchEPNS_7ContextES1_
_ZN5Riscv13pushRegistersEv
_ZN5Riscv12popRegistersEv
