GAS LISTING /tmp/ccUARACT.s 			page 1


   1              		.file	"_thread.cpp"
   2              		.option nopic
   3              		.option norelax
   4              		.attribute arch, "rv64i2p0_m2p0_a2p0"
   5              		.attribute unaligned_access, 0
   6              		.attribute stack_align, 16
   7              		.text
   8              	.Ltext0:
   9              		.align	2
  10              		.globl	_ZN7_thread13threadWrapperEv
  12              	_ZN7_thread13threadWrapperEv:
  13              	.LFB35:
  14              		.file 1 "src/_thread.cpp"
   1:src/_thread.cpp **** //
   2:src/_thread.cpp **** // Created by basara on 20.6.24..
   3:src/_thread.cpp **** //
   4:src/_thread.cpp **** 
   5:src/_thread.cpp **** #include "../h/_thread.hpp"
   6:src/_thread.cpp **** #include "../h/riscv.hpp"
   7:src/_thread.cpp **** #include "../h/syscall_c.hpp"
   8:src/_thread.cpp **** 
   9:src/_thread.cpp **** _thread* _thread::running = nullptr;
  10:src/_thread.cpp **** 
  11:src/_thread.cpp **** int _thread::create_thread(thread_t* handle, Body body, void* arg, void* stack_space){
  12:src/_thread.cpp **** 
  13:src/_thread.cpp ****     *handle = new _thread(body, arg, stack_space);
  14:src/_thread.cpp ****     if(*handle != nullptr) return 0;
  15:src/_thread.cpp ****     return -1;
  16:src/_thread.cpp **** }
  17:src/_thread.cpp **** 
  18:src/_thread.cpp **** 
  19:src/_thread.cpp **** void _thread::thread_dispatch(){
  20:src/_thread.cpp ****     _thread *old = running;
  21:src/_thread.cpp ****     if(!old->isFinished() ){ Scheduler::put(old);}//ako se menja a nije gotova stavljam u skedzuler
  22:src/_thread.cpp ****     running = Scheduler::get();
  23:src/_thread.cpp **** 
  24:src/_thread.cpp ****     //trenutni ra cuvam u old->context, a novi ra uzimam iz running->context i stavljam u ra regist
  25:src/_thread.cpp ****     if(old != running){
  26:src/_thread.cpp ****         _thread::contextSwitch(&old->context, &running->context);
  27:src/_thread.cpp ****     }
  28:src/_thread.cpp **** }
  29:src/_thread.cpp **** 
  30:src/_thread.cpp **** int _thread::thread_exit() {
  31:src/_thread.cpp ****     _thread::running->setFinished(true);
  32:src/_thread.cpp ****     _thread::thread_dispatch();
  33:src/_thread.cpp ****     return 1;
  34:src/_thread.cpp **** }
  35:src/_thread.cpp **** 
  36:src/_thread.cpp **** void _thread::threadWrapper() {
  15              		.loc 1 36 31
  16              		.cfi_startproc
  17 0000 130101FF 		addi	sp,sp,-16
  18              		.cfi_def_cfa_offset 16
  19 0004 23341100 		sd	ra,8(sp)
  20 0008 23308100 		sd	s0,0(sp)
  21              		.cfi_offset 1, -8
  22              		.cfi_offset 8, -16
GAS LISTING /tmp/ccUARACT.s 			page 2


  23 000c 13040101 		addi	s0,sp,16
  24              		.cfi_def_cfa 8, 0
  37:src/_thread.cpp ****     Riscv::popSppSpie();
  25              		.loc 1 37 5
  26              		.loc 1 37 22 is_stmt 0
  27 0010 97000000 		call	_ZN5Riscv10popSppSpieEv
  27      E7800000 
  28              	.LVL0:
  38:src/_thread.cpp ****     running->body(running->arg);
  29              		.loc 1 38 5 is_stmt 1
  30              		.loc 1 38 14 is_stmt 0
  31 0018 97070000 		ld	a5,_ZN7_thread7runningE
  31      83B70700 
  32 0020 03B70700 		ld	a4,0(a5)
  33              		.loc 1 38 18
  34 0024 03B50702 		ld	a0,32(a5)
  35 0028 E7000700 		jalr	a4
  36              	.LVL1:
  39:src/_thread.cpp ****    // running->setFinished(true);//kada se sve zavrsi postavi da je kraj
  40:src/_thread.cpp ****     ::thread_exit();
  37              		.loc 1 40 5 is_stmt 1
  38              		.loc 1 40 18 is_stmt 0
  39 002c 97000000 		call	_Z11thread_exitv
  39      E7800000 
  40              	.LVL2:
  41:src/_thread.cpp ****     //_thread::thread_dispatch();
  42:src/_thread.cpp **** }
  41              		.loc 1 42 1
  42 0034 83308100 		ld	ra,8(sp)
  43              		.cfi_restore 1
  44 0038 03340100 		ld	s0,0(sp)
  45              		.cfi_restore 8
  46              		.cfi_def_cfa 2, 16
  47 003c 13010101 		addi	sp,sp,16
  48              		.cfi_def_cfa_offset 0
  49 0040 67800000 		jr	ra
  50              		.cfi_endproc
  51              	.LFE35:
  53              		.align	2
  54              		.globl	_ZN7_thread13create_threadEPPS_PFvPvES2_S2_
  56              	_ZN7_thread13create_threadEPPS_PFvPvES2_S2_:
  57              	.LFB32:
  11:src/_thread.cpp **** 
  58              		.loc 1 11 86 is_stmt 1
  59              		.cfi_startproc
  60              		.cfi_personality 0x9b,DW.ref.__gxx_personality_v0
  61              		.cfi_lsda 0x1b,.LLSDA32
  62              	.LVL3:
  63 0044 130101FC 		addi	sp,sp,-64
  64              		.cfi_def_cfa_offset 64
  65 0048 233C1102 		sd	ra,56(sp)
  66 004c 23388102 		sd	s0,48(sp)
  67 0050 23349102 		sd	s1,40(sp)
  68 0054 23302103 		sd	s2,32(sp)
  69 0058 233C3101 		sd	s3,24(sp)
  70 005c 23384101 		sd	s4,16(sp)
  71 0060 23345101 		sd	s5,8(sp)
GAS LISTING /tmp/ccUARACT.s 			page 3


  72              		.cfi_offset 1, -8
  73              		.cfi_offset 8, -16
  74              		.cfi_offset 9, -24
  75              		.cfi_offset 18, -32
  76              		.cfi_offset 19, -40
  77              		.cfi_offset 20, -48
  78              		.cfi_offset 21, -56
  79 0064 13040104 		addi	s0,sp,64
  80              		.cfi_def_cfa 8, 0
  81 0068 130A0500 		mv	s4,a0
  82 006c 93890500 		mv	s3,a1
  83 0070 930A0600 		mv	s5,a2
  84 0074 13890600 		mv	s2,a3
  13:src/_thread.cpp ****     if(*handle != nullptr) return 0;
  85              		.loc 1 13 5
  13:src/_thread.cpp ****     if(*handle != nullptr) return 0;
  86              		.loc 1 13 49 is_stmt 0
  87 0078 13050003 		li	a0,48
  88              	.LVL4:
  89              	.LEHB0:
  90 007c 97000000 		call	_Znwm
  90      E7800000 
  91              	.LVL5:
  92              	.LEHE0:
  93 0084 93040500 		mv	s1,a0
  94              	.LVL6:
  95              	.LBB9:
  96              	.LBB10:
  97              		.file 2 "src/../h/_thread.hpp"
   1:src/../h/_thread.hpp **** //
   2:src/../h/_thread.hpp **** // Created by basara on 19.6.24..
   3:src/../h/_thread.hpp **** //
   4:src/../h/_thread.hpp **** 
   5:src/../h/_thread.hpp **** #ifndef PROJECT_BASE_HPP
   6:src/../h/_thread.hpp **** #define PROJECT_BASE_HPP
   7:src/../h/_thread.hpp **** 
   8:src/../h/_thread.hpp **** #include "../lib/hw.h"
   9:src/../h/_thread.hpp **** #include "scheduler.hpp"
  10:src/../h/_thread.hpp **** 
  11:src/../h/_thread.hpp **** typedef _thread* thread_t;
  12:src/../h/_thread.hpp **** class _thread{
  13:src/../h/_thread.hpp **** public:
  14:src/../h/_thread.hpp ****     static _thread *running;
  15:src/../h/_thread.hpp **** 
  16:src/../h/_thread.hpp ****     using Body = void (*)(void(*)); //pokazivac na funkciju koja nema argumente ni povratnu vrednos
  17:src/../h/_thread.hpp **** 
  18:src/../h/_thread.hpp ****     ~_thread() {delete[] stack;}
  19:src/../h/_thread.hpp **** 
  20:src/../h/_thread.hpp ****     bool isFinished() const { return finished; }
  21:src/../h/_thread.hpp **** 
  22:src/../h/_thread.hpp ****     void setFinished(bool fin) { _thread::finished = fin; }
  23:src/../h/_thread.hpp **** 
  24:src/../h/_thread.hpp ****     static int create_thread(thread_t* handle, Body body, void* arg, void* stack_space);
  25:src/../h/_thread.hpp **** 
  26:src/../h/_thread.hpp ****     static int thread_exit();
  27:src/../h/_thread.hpp **** 
  28:src/../h/_thread.hpp **** private:
GAS LISTING /tmp/ccUARACT.s 			page 4


  29:src/../h/_thread.hpp ****     _thread(Body body, void* arg, void* stack_space):
  30:src/../h/_thread.hpp ****         body(body),
  31:src/../h/_thread.hpp ****         stack(static_cast<uint64 *>(body != nullptr ? stack_space : nullptr)),
  32:src/../h/_thread.hpp ****         context({
  33:src/../h/_thread.hpp ****             (uint64) &threadWrapper,//uvek izvrsavanje krece od tredVrepera kada zapocne neka nit
  34:src/../h/_thread.hpp ****                                         // da se izvrsava treba da krene u kontekst svicu, tako sto
  35:src/../h/_thread.hpp ****             stack != nullptr ? (uint64) &stack[DEFAULT_STACK_SIZE] : 0
  36:src/../h/_thread.hpp ****         }),
  37:src/../h/_thread.hpp ****         arg(arg),
  38:src/../h/_thread.hpp ****         finished(false){
  98              		.loc 2 38 23
  99 0088 23303501 		sd	s3,0(a0)
  31:src/../h/_thread.hpp ****         context({
 100              		.loc 2 31 15
 101 008c 63800904 		beqz	s3,.L15
 102              	.LVL7:
 103              	.L4:
 104              		.loc 2 38 23
 105 0090 23B42401 		sd	s2,8(s1)
 106 0094 97070000 		lla	a5,_ZN7_thread13threadWrapperEv
 106      93870700 
 107 009c 23B8F400 		sd	a5,16(s1)
  35:src/../h/_thread.hpp ****         }),
 108              		.loc 2 35 30
 109 00a0 630A0902 		beqz	s2,.L10
  35:src/../h/_thread.hpp ****         }),
 110              		.loc 2 35 41
 111 00a4 B7860000 		li	a3,32768
 112 00a8 3309D900 		add	s2,s2,a3
 113              	.L5:
 114              		.loc 2 38 23
 115 00ac 23BC2401 		sd	s2,24(s1)
 116 00b0 23B05403 		sd	s5,32(s1)
 117 00b4 23840402 		sb	zero,40(s1)
  39:src/../h/_thread.hpp ****         if (body != nullptr) { Scheduler::put(this); } //zbog maina da ne bi opet ubaciovao u skedz
 118              		.loc 2 39 9 is_stmt 1
 119 00b8 63820902 		beqz	s3,.L6
 120              		.loc 2 39 32
 121              		.loc 2 39 46 is_stmt 0
 122 00bc 13850400 		mv	a0,s1
 123              	.LEHB1:
 124 00c0 97000000 		call	_ZN9Scheduler3putEP7_thread
 124      E7800000 
 125              	.LVL8:
 126              	.LEHE1:
 127 00c8 6F004001 		j	.L6
 128              	.LVL9:
 129              	.L15:
  31:src/../h/_thread.hpp ****         context({
 130              		.loc 2 31 15
 131 00cc 13090000 		li	s2,0
 132              	.LVL10:
 133 00d0 6FF01FFC 		j	.L4
 134              	.L10:
  35:src/../h/_thread.hpp ****         }),
 135              		.loc 2 35 30
 136 00d4 13090000 		li	s2,0
GAS LISTING /tmp/ccUARACT.s 			page 5


 137 00d8 6FF05FFD 		j	.L5
 138              	.L6:
 139              	.LVL11:
 140              	.LBE10:
 141              	.LBE9:
  13:src/_thread.cpp ****     if(*handle != nullptr) return 0;
 142              		.loc 1 13 13
 143 00dc 23309A00 		sd	s1,0(s4)
  14:src/_thread.cpp ****     return -1;
 144              		.loc 1 14 5 is_stmt 1
 145 00e0 63860402 		beqz	s1,.L16
  14:src/_thread.cpp ****     return -1;
 146              		.loc 1 14 35 is_stmt 0
 147 00e4 13050000 		li	a0,0
 148              	.L13:
  16:src/_thread.cpp **** 
 149              		.loc 1 16 1
 150 00e8 83308103 		ld	ra,56(sp)
 151              		.cfi_remember_state
 152              		.cfi_restore 1
 153 00ec 03340103 		ld	s0,48(sp)
 154              		.cfi_restore 8
 155              		.cfi_def_cfa 2, 64
 156 00f0 83348102 		ld	s1,40(sp)
 157              		.cfi_restore 9
 158 00f4 03390102 		ld	s2,32(sp)
 159              		.cfi_restore 18
 160 00f8 83398101 		ld	s3,24(sp)
 161              		.cfi_restore 19
 162              	.LVL12:
 163 00fc 033A0101 		ld	s4,16(sp)
 164              		.cfi_restore 20
 165              	.LVL13:
 166 0100 833A8100 		ld	s5,8(sp)
 167              		.cfi_restore 21
 168              	.LVL14:
 169 0104 13010104 		addi	sp,sp,64
 170              		.cfi_def_cfa_offset 0
 171 0108 67800000 		jr	ra
 172              	.LVL15:
 173              	.L16:
 174              		.cfi_restore_state
  15:src/_thread.cpp **** }
 175              		.loc 1 15 13
 176 010c 1305F0FF 		li	a0,-1
 177 0110 6FF09FFD 		j	.L13
 178              	.LVL16:
 179              	.L12:
 180 0114 13090500 		mv	s2,a0
  13:src/_thread.cpp ****     if(*handle != nullptr) return 0;
 181              		.loc 1 13 49
 182 0118 13850400 		mv	a0,s1
 183 011c 97000000 		call	_ZdlPv
 183      E7800000 
 184              	.LVL17:
 185 0124 13050900 		mv	a0,s2
 186              	.LEHB2:
GAS LISTING /tmp/ccUARACT.s 			page 6


 187 0128 97000000 		call	_Unwind_Resume
 187      E7800000 
 188              	.LVL18:
 189              	.LEHE2:
 190              		.cfi_endproc
 191              	.LFE32:
 192              		.globl	__gxx_personality_v0
 193              		.section	.gcc_except_table,"aw",@progbits
 194              	.LLSDA32:
 195 0000 FF       		.byte	0xff
 196 0001 FF       		.byte	0xff
 197 0002 03       		.byte	0x3
 198 0003 27       		.byte	0x27
 199 0004 00000000 		.4byte	.LEHB0-.LFB32
 200 0008 00000000 		.4byte	.LEHE0-.LEHB0
 201 000c 00000000 		.4byte	0
 202 0010 00       		.byte	0
 203 0011 00000000 		.4byte	.LEHB1-.LFB32
 204 0015 00000000 		.4byte	.LEHE1-.LEHB1
 205 0019 00000000 		.4byte	.L12-.LFB32
 206 001d 00       		.byte	0
 207 001e 00000000 		.4byte	.LEHB2-.LFB32
 208 0022 00000000 		.4byte	.LEHE2-.LEHB2
 209 0026 00000000 		.4byte	0
 210 002a 00       		.byte	0
 211              		.text
 213              		.align	2
 214              		.globl	_ZN7_thread15thread_dispatchEv
 216              	_ZN7_thread15thread_dispatchEv:
 217              	.LFB33:
  19:src/_thread.cpp ****     _thread *old = running;
 218              		.loc 1 19 32 is_stmt 1
 219              		.cfi_startproc
 220 0130 130101FE 		addi	sp,sp,-32
 221              		.cfi_def_cfa_offset 32
 222 0134 233C1100 		sd	ra,24(sp)
 223 0138 23388100 		sd	s0,16(sp)
 224 013c 23349100 		sd	s1,8(sp)
 225              		.cfi_offset 1, -8
 226              		.cfi_offset 8, -16
 227              		.cfi_offset 9, -24
 228 0140 13040102 		addi	s0,sp,32
 229              		.cfi_def_cfa 8, 0
  20:src/_thread.cpp ****     if(!old->isFinished() ){ Scheduler::put(old);}//ako se menja a nije gotova stavljam u skedzuler
 230              		.loc 1 20 5
  20:src/_thread.cpp ****     if(!old->isFinished() ){ Scheduler::put(old);}//ako se menja a nije gotova stavljam u skedzuler
 231              		.loc 1 20 14 is_stmt 0
 232 0144 97040000 		ld	s1,_ZN7_thread7runningE
 232      83B40400 
 233              	.LVL19:
  21:src/_thread.cpp ****     running = Scheduler::get();
 234              		.loc 1 21 5 is_stmt 1
 235              	.LBB11:
 236              	.LBB12:
  20:src/../h/_thread.hpp **** 
 237              		.loc 2 20 31
  20:src/../h/_thread.hpp **** 
GAS LISTING /tmp/ccUARACT.s 			page 7


 238              		.loc 2 20 38 is_stmt 0
 239 014c 83C78402 		lbu	a5,40(s1)
 240              	.LVL20:
 241              	.LBE12:
 242              	.LBE11:
  21:src/_thread.cpp ****     running = Scheduler::get();
 243              		.loc 1 21 5
 244 0150 638E0702 		beqz	a5,.L21
 245              	.L18:
  22:src/_thread.cpp **** 
 246              		.loc 1 22 5 is_stmt 1
  22:src/_thread.cpp **** 
 247              		.loc 1 22 29 is_stmt 0
 248 0154 97000000 		call	_ZN9Scheduler3getEv
 248      E7800000 
 249              	.LVL21:
  22:src/_thread.cpp **** 
 250              		.loc 1 22 13
 251 015c 97070000 		sd	a0,_ZN7_thread7runningE,a5
 251      23B0A700 
  25:src/_thread.cpp ****         _thread::contextSwitch(&old->context, &running->context);
 252              		.loc 1 25 5 is_stmt 1
 253 0164 638AA400 		beq	s1,a0,.L17
  26:src/_thread.cpp ****     }
 254              		.loc 1 26 9
  26:src/_thread.cpp ****     }
 255              		.loc 1 26 31 is_stmt 0
 256 0168 93050501 		addi	a1,a0,16
 257 016c 13850401 		addi	a0,s1,16
 258 0170 97000000 		call	_ZN7_thread13contextSwitchEPNS_7ContextES1_
 258      E7800000 
 259              	.LVL22:
 260              	.L17:
  28:src/_thread.cpp **** 
 261              		.loc 1 28 1
 262 0178 83308101 		ld	ra,24(sp)
 263              		.cfi_remember_state
 264              		.cfi_restore 1
 265 017c 03340101 		ld	s0,16(sp)
 266              		.cfi_restore 8
 267              		.cfi_def_cfa 2, 32
 268 0180 83348100 		ld	s1,8(sp)
 269              		.cfi_restore 9
 270              	.LVL23:
 271 0184 13010102 		addi	sp,sp,32
 272              		.cfi_def_cfa_offset 0
 273 0188 67800000 		jr	ra
 274              	.LVL24:
 275              	.L21:
 276              		.cfi_restore_state
  21:src/_thread.cpp ****     running = Scheduler::get();
 277              		.loc 1 21 30 is_stmt 1 discriminator 1
  21:src/_thread.cpp ****     running = Scheduler::get();
 278              		.loc 1 21 44 is_stmt 0 discriminator 1
 279 018c 13850400 		mv	a0,s1
 280 0190 97000000 		call	_ZN9Scheduler3putEP7_thread
 280      E7800000 
GAS LISTING /tmp/ccUARACT.s 			page 8


 281              	.LVL25:
 282 0198 6FF0DFFB 		j	.L18
 283              		.cfi_endproc
 284              	.LFE33:
 286              		.align	2
 287              		.globl	_ZN7_thread11thread_exitEv
 289              	_ZN7_thread11thread_exitEv:
 290              	.LFB34:
  30:src/_thread.cpp ****     _thread::running->setFinished(true);
 291              		.loc 1 30 28 is_stmt 1
 292              		.cfi_startproc
 293 019c 130101FF 		addi	sp,sp,-16
 294              		.cfi_def_cfa_offset 16
 295 01a0 23341100 		sd	ra,8(sp)
 296 01a4 23308100 		sd	s0,0(sp)
 297              		.cfi_offset 1, -8
 298              		.cfi_offset 8, -16
 299 01a8 13040101 		addi	s0,sp,16
 300              		.cfi_def_cfa 8, 0
  31:src/_thread.cpp ****     _thread::thread_dispatch();
 301              		.loc 1 31 5
 302              	.LVL26:
 303              	.LBB13:
 304              	.LBB14:
  22:src/../h/_thread.hpp **** 
 305              		.loc 2 22 34
  22:src/../h/_thread.hpp **** 
 306              		.loc 2 22 52 is_stmt 0
 307 01ac 97070000 		ld	a5,_ZN7_thread7runningE
 307      83B70700 
 308 01b4 13071000 		li	a4,1
 309 01b8 2384E702 		sb	a4,40(a5)
 310              	.LVL27:
 311              	.LBE14:
 312              	.LBE13:
  32:src/_thread.cpp ****     return 1;
 313              		.loc 1 32 5 is_stmt 1
  32:src/_thread.cpp ****     return 1;
 314              		.loc 1 32 29 is_stmt 0
 315 01bc 97000000 		call	_ZN7_thread15thread_dispatchEv
 315      E7800000 
 316              	.LVL28:
  33:src/_thread.cpp **** }
 317              		.loc 1 33 5 is_stmt 1
  34:src/_thread.cpp **** 
 318              		.loc 1 34 1 is_stmt 0
 319 01c4 13051000 		li	a0,1
 320 01c8 83308100 		ld	ra,8(sp)
 321              		.cfi_restore 1
 322 01cc 03340100 		ld	s0,0(sp)
 323              		.cfi_restore 8
 324              		.cfi_def_cfa 2, 16
 325 01d0 13010101 		addi	sp,sp,16
 326              		.cfi_def_cfa_offset 0
 327 01d4 67800000 		jr	ra
 328              		.cfi_endproc
 329              	.LFE34:
GAS LISTING /tmp/ccUARACT.s 			page 9


 331              		.globl	_ZN7_thread7runningE
 332              		.section	.sbss,"aw",@nobits
 333              		.align	3
 336              	_ZN7_thread7runningE:
 337 0000 00000000 		.zero	8
 337      00000000 
 338              		.text
 339              	.Letext0:
 340              		.file 3 "src/../h/../lib/hw.h"
 341              		.file 4 "src/../h/scheduler.hpp"
 342              		.file 5 "src/../h/riscv.hpp"
 343              		.file 6 "src/../h/syscall_c.hpp"
 2512              		.align	3
 2515              	DW.ref.__gxx_personality_v0:
 2516 0000 00000000 		.dword	__gxx_personality_v0
 2516      00000000 
 2517              		.ident	"GCC: () 9.3.0"
GAS LISTING /tmp/ccUARACT.s 			page 10


DEFINED SYMBOLS
                            *ABS*:0000000000000000 _thread.cpp
     /tmp/ccUARACT.s:12     .text:0000000000000000 _ZN7_thread13threadWrapperEv
     /tmp/ccUARACT.s:16     .text:0000000000000000 .L0 
     /tmp/ccUARACT.s:17     .text:0000000000000000 .L0 
     /tmp/ccUARACT.s:18     .text:0000000000000004 .L0 
     /tmp/ccUARACT.s:21     .text:000000000000000c .L0 
     /tmp/ccUARACT.s:22     .text:000000000000000c .L0 
     /tmp/ccUARACT.s:24     .text:0000000000000010 .L0 
     /tmp/ccUARACT.s:26     .text:0000000000000010 .L0 
     /tmp/ccUARACT.s:27     .text:0000000000000010 .L0 
     /tmp/ccUARACT.s:30     .text:0000000000000018 .L0 
     /tmp/ccUARACT.s:336    .sbss:0000000000000000 _ZN7_thread7runningE
     /tmp/ccUARACT.s:31     .text:0000000000000018 .L0 
     /tmp/ccUARACT.s:34     .text:0000000000000024 .L0 
     /tmp/ccUARACT.s:38     .text:000000000000002c .L0 
     /tmp/ccUARACT.s:39     .text:000000000000002c .L0 
     /tmp/ccUARACT.s:42     .text:0000000000000034 .L0 
     /tmp/ccUARACT.s:43     .text:0000000000000038 .L0 
     /tmp/ccUARACT.s:45     .text:000000000000003c .L0 
     /tmp/ccUARACT.s:46     .text:000000000000003c .L0 
     /tmp/ccUARACT.s:48     .text:0000000000000040 .L0 
     /tmp/ccUARACT.s:50     .text:0000000000000044 .L0 
     /tmp/ccUARACT.s:56     .text:0000000000000044 _ZN7_thread13create_threadEPPS_PFvPvES2_S2_
     /tmp/ccUARACT.s:59     .text:0000000000000044 .L0 
     /tmp/ccUARACT.s:2515   .sdata.DW.ref.__gxx_personality_v0:0000000000000000 DW.ref.__gxx_personality_v0
     /tmp/ccUARACT.s:63     .text:0000000000000044 .L0 
     /tmp/ccUARACT.s:64     .text:0000000000000048 .L0 
     /tmp/ccUARACT.s:72     .text:0000000000000064 .L0 
     /tmp/ccUARACT.s:73     .text:0000000000000064 .L0 
     /tmp/ccUARACT.s:74     .text:0000000000000064 .L0 
     /tmp/ccUARACT.s:75     .text:0000000000000064 .L0 
     /tmp/ccUARACT.s:76     .text:0000000000000064 .L0 
     /tmp/ccUARACT.s:77     .text:0000000000000064 .L0 
     /tmp/ccUARACT.s:78     .text:0000000000000064 .L0 
     /tmp/ccUARACT.s:80     .text:0000000000000068 .L0 
     /tmp/ccUARACT.s:86     .text:0000000000000078 .L0 
     /tmp/ccUARACT.s:87     .text:0000000000000078 .L0 
     /tmp/ccUARACT.s:99     .text:0000000000000088 .L0 
     /tmp/ccUARACT.s:101    .text:000000000000008c .L0 
     /tmp/ccUARACT.s:105    .text:0000000000000090 .L0 
     /tmp/ccUARACT.s:109    .text:00000000000000a0 .L0 
     /tmp/ccUARACT.s:111    .text:00000000000000a4 .L0 
     /tmp/ccUARACT.s:115    .text:00000000000000ac .L0 
     /tmp/ccUARACT.s:119    .text:00000000000000b8 .L0 
     /tmp/ccUARACT.s:121    .text:00000000000000bc .L0 
     /tmp/ccUARACT.s:122    .text:00000000000000bc .L0 
     /tmp/ccUARACT.s:131    .text:00000000000000cc .L0 
     /tmp/ccUARACT.s:136    .text:00000000000000d4 .L0 
     /tmp/ccUARACT.s:143    .text:00000000000000dc .L0 
     /tmp/ccUARACT.s:145    .text:00000000000000e0 .L0 
     /tmp/ccUARACT.s:147    .text:00000000000000e4 .L0 
     /tmp/ccUARACT.s:150    .text:00000000000000e8 .L0 
     /tmp/ccUARACT.s:151    .text:00000000000000ec .L0 
     /tmp/ccUARACT.s:152    .text:00000000000000ec .L0 
     /tmp/ccUARACT.s:154    .text:00000000000000f0 .L0 
     /tmp/ccUARACT.s:155    .text:00000000000000f0 .L0 
GAS LISTING /tmp/ccUARACT.s 			page 11


     /tmp/ccUARACT.s:157    .text:00000000000000f4 .L0 
     /tmp/ccUARACT.s:159    .text:00000000000000f8 .L0 
     /tmp/ccUARACT.s:161    .text:00000000000000fc .L0 
     /tmp/ccUARACT.s:164    .text:0000000000000100 .L0 
     /tmp/ccUARACT.s:167    .text:0000000000000104 .L0 
     /tmp/ccUARACT.s:170    .text:0000000000000108 .L0 
     /tmp/ccUARACT.s:174    .text:000000000000010c .L0 
     /tmp/ccUARACT.s:176    .text:000000000000010c .L0 
     /tmp/ccUARACT.s:182    .text:0000000000000118 .L0 
     /tmp/ccUARACT.s:190    .text:0000000000000130 .L0 
     /tmp/ccUARACT.s:216    .text:0000000000000130 _ZN7_thread15thread_dispatchEv
     /tmp/ccUARACT.s:219    .text:0000000000000130 .L0 
     /tmp/ccUARACT.s:220    .text:0000000000000130 .L0 
     /tmp/ccUARACT.s:221    .text:0000000000000134 .L0 
     /tmp/ccUARACT.s:225    .text:0000000000000140 .L0 
     /tmp/ccUARACT.s:226    .text:0000000000000140 .L0 
     /tmp/ccUARACT.s:227    .text:0000000000000140 .L0 
     /tmp/ccUARACT.s:229    .text:0000000000000144 .L0 
     /tmp/ccUARACT.s:231    .text:0000000000000144 .L0 
     /tmp/ccUARACT.s:232    .text:0000000000000144 .L0 
     /tmp/ccUARACT.s:237    .text:000000000000014c .L0 
     /tmp/ccUARACT.s:238    .text:000000000000014c .L0 
     /tmp/ccUARACT.s:239    .text:000000000000014c .L0 
     /tmp/ccUARACT.s:244    .text:0000000000000150 .L0 
     /tmp/ccUARACT.s:247    .text:0000000000000154 .L0 
     /tmp/ccUARACT.s:248    .text:0000000000000154 .L0 
     /tmp/ccUARACT.s:251    .text:000000000000015c .L0 
     /tmp/ccUARACT.s:253    .text:0000000000000164 .L0 
     /tmp/ccUARACT.s:255    .text:0000000000000168 .L0 
     /tmp/ccUARACT.s:256    .text:0000000000000168 .L0 
     /tmp/ccUARACT.s:262    .text:0000000000000178 .L0 
     /tmp/ccUARACT.s:263    .text:000000000000017c .L0 
     /tmp/ccUARACT.s:264    .text:000000000000017c .L0 
     /tmp/ccUARACT.s:266    .text:0000000000000180 .L0 
     /tmp/ccUARACT.s:267    .text:0000000000000180 .L0 
     /tmp/ccUARACT.s:269    .text:0000000000000184 .L0 
     /tmp/ccUARACT.s:272    .text:0000000000000188 .L0 
     /tmp/ccUARACT.s:276    .text:000000000000018c .L0 
     /tmp/ccUARACT.s:278    .text:000000000000018c .L0 
     /tmp/ccUARACT.s:279    .text:000000000000018c .L0 
     /tmp/ccUARACT.s:283    .text:000000000000019c .L0 
     /tmp/ccUARACT.s:289    .text:000000000000019c _ZN7_thread11thread_exitEv
     /tmp/ccUARACT.s:292    .text:000000000000019c .L0 
     /tmp/ccUARACT.s:293    .text:000000000000019c .L0 
     /tmp/ccUARACT.s:294    .text:00000000000001a0 .L0 
     /tmp/ccUARACT.s:297    .text:00000000000001a8 .L0 
     /tmp/ccUARACT.s:298    .text:00000000000001a8 .L0 
     /tmp/ccUARACT.s:300    .text:00000000000001ac .L0 
     /tmp/ccUARACT.s:305    .text:00000000000001ac .L0 
     /tmp/ccUARACT.s:306    .text:00000000000001ac .L0 
     /tmp/ccUARACT.s:307    .text:00000000000001ac .L0 
     /tmp/ccUARACT.s:314    .text:00000000000001bc .L0 
     /tmp/ccUARACT.s:315    .text:00000000000001bc .L0 
     /tmp/ccUARACT.s:318    .text:00000000000001c4 .L0 
     /tmp/ccUARACT.s:319    .text:00000000000001c4 .L0 
     /tmp/ccUARACT.s:321    .text:00000000000001cc .L0 
     /tmp/ccUARACT.s:323    .text:00000000000001d0 .L0 
GAS LISTING /tmp/ccUARACT.s 			page 12


     /tmp/ccUARACT.s:324    .text:00000000000001d0 .L0 
     /tmp/ccUARACT.s:326    .text:00000000000001d4 .L0 
     /tmp/ccUARACT.s:328    .text:00000000000001d8 .L0 
     /tmp/ccUARACT.s:344    .text:00000000000001d8 .L0 
     /tmp/ccUARACT.s:31     .text:0000000000000018 .L0 
     /tmp/ccUARACT.s:106    .text:0000000000000094 .L0 
     /tmp/ccUARACT.s:232    .text:0000000000000144 .L0 
     /tmp/ccUARACT.s:251    .text:000000000000015c .L0 
     /tmp/ccUARACT.s:307    .text:00000000000001ac .L0 
     /tmp/ccUARACT.s:129    .text:00000000000000cc .L15
     /tmp/ccUARACT.s:134    .text:00000000000000d4 .L10
     /tmp/ccUARACT.s:138    .text:00000000000000dc .L6
     /tmp/ccUARACT.s:103    .text:0000000000000090 .L4
     /tmp/ccUARACT.s:113    .text:00000000000000ac .L5
     /tmp/ccUARACT.s:173    .text:000000000000010c .L16
     /tmp/ccUARACT.s:148    .text:00000000000000e8 .L13
     /tmp/ccUARACT.s:275    .text:000000000000018c .L21
     /tmp/ccUARACT.s:260    .text:0000000000000178 .L17
     /tmp/ccUARACT.s:245    .text:0000000000000154 .L18
     /tmp/ccUARACT.s:89     .text:000000000000007c .LEHB0
     /tmp/ccUARACT.s:57     .text:0000000000000044 .LFB32
     /tmp/ccUARACT.s:92     .text:0000000000000084 .LEHE0
     /tmp/ccUARACT.s:123    .text:00000000000000c0 .LEHB1
     /tmp/ccUARACT.s:126    .text:00000000000000c8 .LEHE1
     /tmp/ccUARACT.s:179    .text:0000000000000114 .L12
     /tmp/ccUARACT.s:186    .text:0000000000000128 .LEHB2
     /tmp/ccUARACT.s:189    .text:0000000000000130 .LEHE2
     /tmp/ccUARACT.s:1234   .debug_abbrev:0000000000000000 .Ldebug_abbrev0
     /tmp/ccUARACT.s:2317   .debug_str:000000000000008e .LASF91
     /tmp/ccUARACT.s:2487   .debug_str:00000000000006d9 .LASF92
     /tmp/ccUARACT.s:2361   .debug_str:0000000000000294 .LASF93
     /tmp/ccUARACT.s:8      .text:0000000000000000 .Ltext0
     /tmp/ccUARACT.s:339    .text:00000000000001d8 .Letext0
     /tmp/ccUARACT.s:2293   .debug_line:0000000000000000 .Ldebug_line0
     /tmp/ccUARACT.s:2409   .debug_str:0000000000000445 .LASF0
     /tmp/ccUARACT.s:2421   .debug_str:0000000000000496 .LASF1
     /tmp/ccUARACT.s:2399   .debug_str:0000000000000407 .LASF2
     /tmp/ccUARACT.s:2375   .debug_str:0000000000000333 .LASF4
     /tmp/ccUARACT.s:2449   .debug_str:000000000000057f .LASF3
     /tmp/ccUARACT.s:2319   .debug_str:0000000000000152 .LASF5
     /tmp/ccUARACT.s:2425   .debug_str:00000000000004ba .LASF6
     /tmp/ccUARACT.s:2407   .debug_str:0000000000000432 .LASF7
     /tmp/ccUARACT.s:2481   .debug_str:00000000000006a3 .LASF8
     /tmp/ccUARACT.s:2359   .debug_str:0000000000000286 .LASF9
     /tmp/ccUARACT.s:2435   .debug_str:0000000000000510 .LASF10
     /tmp/ccUARACT.s:2469   .debug_str:0000000000000629 .LASF11
     /tmp/ccUARACT.s:2321   .debug_str:0000000000000159 .LASF12
     /tmp/ccUARACT.s:2301   .debug_str:000000000000002b .LASF13
     /tmp/ccUARACT.s:2327   .debug_str:0000000000000187 .LASF14
     /tmp/ccUARACT.s:2443   .debug_str:0000000000000542 .LASF15
     /tmp/ccUARACT.s:2335   .debug_str:00000000000001e7 .LASF16
     /tmp/ccUARACT.s:2431   .debug_str:00000000000004e8 .LASF17
     /tmp/ccUARACT.s:2489   .debug_str:00000000000006e9 .LASF94
     /tmp/ccUARACT.s:2371   .debug_str:0000000000000317 .LASF95
     /tmp/ccUARACT.s:2477   .debug_str:000000000000066f .LASF96
     /tmp/ccUARACT.s:2379   .debug_str:0000000000000343 .LASF97
     /tmp/ccUARACT.s:2373   .debug_str:000000000000032b .LASF18
GAS LISTING /tmp/ccUARACT.s 			page 13


     /tmp/ccUARACT.s:2305   .debug_str:0000000000000044 .LASF98
     /tmp/ccUARACT.s:2345   .debug_str:0000000000000234 .LASF99
     /tmp/ccUARACT.s:2473   .debug_str:000000000000064b .LASF19
     /tmp/ccUARACT.s:2429   .debug_str:00000000000004d8 .LASF21
     /tmp/ccUARACT.s:2427   .debug_str:00000000000004cd .LASF100
     /tmp/ccUARACT.s:2395   .debug_str:00000000000003d7 .LASF101
     /tmp/ccUARACT.s:2401   .debug_str:0000000000000415 .LASF20
     /tmp/ccUARACT.s:2393   .debug_str:00000000000003bc .LASF22
     /tmp/ccUARACT.s:2485   .debug_str:00000000000006cb .LASF23
     /tmp/ccUARACT.s:2451   .debug_str:0000000000000591 .LASF24
     /tmp/ccUARACT.s:2439   .debug_str:0000000000000532 .LASF102
     /tmp/ccUARACT.s:2309   .debug_str:0000000000000067 .LASF25
     /tmp/ccUARACT.s:2353   .debug_str:000000000000025d .LASF47
     /tmp/ccUARACT.s:2417   .debug_str:0000000000000475 .LASF50
     /tmp/ccUARACT.s:2343   .debug_str:000000000000022f .LASF26
     /tmp/ccUARACT.s:2415   .debug_str:000000000000046f .LASF27
     /tmp/ccUARACT.s:2383   .debug_str:000000000000035c .LASF28
     /tmp/ccUARACT.s:2377   .debug_str:000000000000033a .LASF29
     /tmp/ccUARACT.s:2491   .debug_str:00000000000006fd .LASF30
     /tmp/ccUARACT.s:2391   .debug_str:0000000000000390 .LASF103
     /tmp/ccUARACT.s:2331   .debug_str:00000000000001b8 .LASF31
     /tmp/ccUARACT.s:2333   .debug_str:00000000000001c8 .LASF33
     /tmp/ccUARACT.s:2385   .debug_str:0000000000000364 .LASF32
     /tmp/ccUARACT.s:2365   .debug_str:00000000000002d5 .LASF34
     /tmp/ccUARACT.s:2295   .debug_str:0000000000000000 .LASF35
     /tmp/ccUARACT.s:2351   .debug_str:0000000000000258 .LASF36
     /tmp/ccUARACT.s:2419   .debug_str:0000000000000490 .LASF37
     /tmp/ccUARACT.s:2441   .debug_str:0000000000000537 .LASF38
     /tmp/ccUARACT.s:2499   .debug_str:0000000000000730 .LASF40
     /tmp/ccUARACT.s:2369   .debug_str:0000000000000306 .LASF39
     /tmp/ccUARACT.s:2433   .debug_str:00000000000004f2 .LASF41
     /tmp/ccUARACT.s:2315   .debug_str:0000000000000080 .LASF42
     /tmp/ccUARACT.s:2307   .debug_str:000000000000004c .LASF43
     /tmp/ccUARACT.s:2459   .debug_str:00000000000005e9 .LASF44
     /tmp/ccUARACT.s:2299   .debug_str:0000000000000011 .LASF45
     /tmp/ccUARACT.s:2303   .debug_str:000000000000003b .LASF46
     /tmp/ccUARACT.s:2457   .debug_str:00000000000005d4 .LASF48
     /tmp/ccUARACT.s:2341   .debug_str:0000000000000226 .LASF49
     /tmp/ccUARACT.s:2339   .debug_str:0000000000000211 .LASF51
     /tmp/ccUARACT.s:2453   .debug_str:00000000000005bd .LASF52
     /tmp/ccUARACT.s:2437   .debug_str:000000000000051f .LASF53
     /tmp/ccUARACT.s:2467   .debug_str:0000000000000622 .LASF54
     /tmp/ccUARACT.s:2463   .debug_str:00000000000005fd .LASF55
     /tmp/ccUARACT.s:2355   .debug_str:0000000000000278 .LASF56
     /tmp/ccUARACT.s:2337   .debug_str:00000000000001fd .LASF57
     /tmp/ccUARACT.s:2297   .debug_str:0000000000000009 .LASF58
     /tmp/ccUARACT.s:2367   .debug_str:00000000000002f2 .LASF59
     /tmp/ccUARACT.s:2347   .debug_str:000000000000023c .LASF60
     /tmp/ccUARACT.s:2323   .debug_str:0000000000000169 .LASF61
     /tmp/ccUARACT.s:2503   .debug_str:0000000000000753 .LASF62
     /tmp/ccUARACT.s:2349   .debug_str:0000000000000244 .LASF63
     /tmp/ccUARACT.s:2411   .debug_str:0000000000000452 .LASF64
     /tmp/ccUARACT.s:2495   .debug_str:0000000000000718 .LASF65
     /tmp/ccUARACT.s:2313   .debug_str:0000000000000079 .LASF66
     /tmp/ccUARACT.s:2471   .debug_str:0000000000000638 .LASF67
     /tmp/ccUARACT.s:2357   .debug_str:0000000000000280 .LASF68
     /tmp/ccUARACT.s:2465   .debug_str:0000000000000610 .LASF69
GAS LISTING /tmp/ccUARACT.s 			page 14


     /tmp/ccUARACT.s:2311   .debug_str:0000000000000073 .LASF70
     /tmp/ccUARACT.s:2507   .debug_str:0000000000000767 .LASF71
     /tmp/ccUARACT.s:2501   .debug_str:0000000000000748 .LASF72
     /tmp/ccUARACT.s:2447   .debug_str:0000000000000567 .LASF73
     /tmp/ccUARACT.s:2381   .debug_str:0000000000000351 .LASF74
     /tmp/ccUARACT.s:2387   .debug_str:0000000000000372 .LASF75
     /tmp/ccUARACT.s:2325   .debug_str:000000000000017d .LASF76
     /tmp/ccUARACT.s:2413   .debug_str:0000000000000459 .LASF77
     /tmp/ccUARACT.s:2403   .debug_str:0000000000000421 .LASF78
     /tmp/ccUARACT.s:2363   .debug_str:00000000000002bf .LASF79
     /tmp/ccUARACT.s:2479   .debug_str:000000000000068b .LASF80
     /tmp/ccUARACT.s:2329   .debug_str:0000000000000193 .LASF81
     /tmp/ccUARACT.s:2397   .debug_str:00000000000003f2 .LASF104
     /tmp/ccUARACT.s:13     .text:0000000000000000 .LFB35
     /tmp/ccUARACT.s:51     .text:0000000000000044 .LFE35
     /tmp/ccUARACT.s:28     .text:0000000000000018 .LVL0
     /tmp/ccUARACT.s:40     .text:0000000000000034 .LVL2
     /tmp/ccUARACT.s:290    .text:000000000000019c .LFB34
     /tmp/ccUARACT.s:329    .text:00000000000001d8 .LFE34
     /tmp/ccUARACT.s:303    .text:00000000000001ac .LBB13
     /tmp/ccUARACT.s:312    .text:00000000000001bc .LBE13
     /tmp/ccUARACT.s:2086   .debug_loc:0000000000000000 .LLST10
     /tmp/ccUARACT.s:2094   .debug_loc:0000000000000024 .LLST11
     /tmp/ccUARACT.s:316    .text:00000000000001c4 .LVL28
     /tmp/ccUARACT.s:217    .text:0000000000000130 .LFB33
     /tmp/ccUARACT.s:284    .text:000000000000019c .LFE33
     /tmp/ccUARACT.s:2102   .debug_loc:000000000000004f .LLST8
     /tmp/ccUARACT.s:235    .text:000000000000014c .LBB11
     /tmp/ccUARACT.s:242    .text:0000000000000150 .LBE11
     /tmp/ccUARACT.s:2113   .debug_loc:0000000000000085 .LLST9
     /tmp/ccUARACT.s:249    .text:000000000000015c .LVL21
     /tmp/ccUARACT.s:259    .text:0000000000000178 .LVL22
     /tmp/ccUARACT.s:281    .text:0000000000000198 .LVL25
     /tmp/ccUARACT.s:191    .text:0000000000000130 .LFE32
     /tmp/ccUARACT.s:2461   .debug_str:00000000000005f6 .LASF82
     /tmp/ccUARACT.s:2120   .debug_loc:00000000000000a8 .LLST0
     /tmp/ccUARACT.s:2142   .debug_loc:0000000000000107 .LLST1
     /tmp/ccUARACT.s:2164   .debug_loc:0000000000000166 .LLST2
     /tmp/ccUARACT.s:2505   .debug_str:000000000000075b .LASF83
     /tmp/ccUARACT.s:2186   .debug_loc:00000000000001c5 .LLST3
     /tmp/ccUARACT.s:95     .text:0000000000000088 .LBB9
     /tmp/ccUARACT.s:141    .text:00000000000000dc .LBE9
     /tmp/ccUARACT.s:2215   .debug_loc:000000000000023a .LLST4
     /tmp/ccUARACT.s:2247   .debug_loc:00000000000002b2 .LLST5
     /tmp/ccUARACT.s:2258   .debug_loc:00000000000002e8 .LLST6
     /tmp/ccUARACT.s:2269   .debug_loc:000000000000031e .LLST7
     /tmp/ccUARACT.s:125    .text:00000000000000c8 .LVL8
     /tmp/ccUARACT.s:91     .text:0000000000000084 .LVL5
     /tmp/ccUARACT.s:184    .text:0000000000000124 .LVL17
     /tmp/ccUARACT.s:188    .text:0000000000000130 .LVL18
     /tmp/ccUARACT.s:2497   .debug_str:000000000000072b .LASF84
     /tmp/ccUARACT.s:2475   .debug_str:0000000000000654 .LASF105
     /tmp/ccUARACT.s:2423   .debug_str:00000000000004a9 .LASF106
     /tmp/ccUARACT.s:2389   .debug_str:000000000000038a .LASF85
     /tmp/ccUARACT.s:2493   .debug_str:000000000000070b .LASF87
     /tmp/ccUARACT.s:2405   .debug_str:000000000000042b .LASF86
     /tmp/ccUARACT.s:2455   .debug_str:00000000000005c4 .LASF88
GAS LISTING /tmp/ccUARACT.s 			page 15


     /tmp/ccUARACT.s:2445   .debug_str:0000000000000558 .LASF89
     /tmp/ccUARACT.s:2483   .debug_str:00000000000006b3 .LASF90
     /tmp/ccUARACT.s:302    .text:00000000000001ac .LVL26
     /tmp/ccUARACT.s:310    .text:00000000000001bc .LVL27
     /tmp/ccUARACT.s:233    .text:000000000000014c .LVL19
     /tmp/ccUARACT.s:270    .text:0000000000000184 .LVL23
     /tmp/ccUARACT.s:274    .text:000000000000018c .LVL24
     /tmp/ccUARACT.s:240    .text:0000000000000150 .LVL20
     /tmp/ccUARACT.s:62     .text:0000000000000044 .LVL3
     /tmp/ccUARACT.s:88     .text:000000000000007c .LVL4
     /tmp/ccUARACT.s:165    .text:0000000000000100 .LVL13
     /tmp/ccUARACT.s:172    .text:000000000000010c .LVL15
     /tmp/ccUARACT.s:162    .text:00000000000000fc .LVL12
     /tmp/ccUARACT.s:168    .text:0000000000000104 .LVL14
     /tmp/ccUARACT.s:102    .text:0000000000000090 .LVL7
     /tmp/ccUARACT.s:128    .text:00000000000000cc .LVL9
     /tmp/ccUARACT.s:132    .text:00000000000000d0 .LVL10
     /tmp/ccUARACT.s:94     .text:0000000000000088 .LVL6
     /tmp/ccUARACT.s:139    .text:00000000000000dc .LVL11
     /tmp/ccUARACT.s:178    .text:0000000000000114 .LVL16
     /tmp/ccUARACT.s:345    .debug_info:0000000000000000 .Ldebug_info0
     /tmp/ccUARACT.s:194    .gcc_except_table:0000000000000000 .LLSDA32

UNDEFINED SYMBOLS
_ZN5Riscv10popSppSpieEv
_Z11thread_exitv
_Znwm
_ZN9Scheduler3putEP7_thread
_ZdlPv
_Unwind_Resume
__gxx_personality_v0
_ZN9Scheduler3getEv
_ZN7_thread13contextSwitchEPNS_7ContextES1_
