GAS LISTING /tmp/ccBiqeit.s 			page 1


   1              		.file	"main.cpp"
   2              		.option nopic
   3              		.option norelax
   4              		.attribute arch, "rv64i2p0_m2p0_a2p0"
   5              		.attribute unaligned_access, 0
   6              		.attribute stack_align, 16
   7              		.text
   8              	.Ltext0:
   9              		.section	.rodata.str1.8,"aMS",@progbits,1
  10              		.align	3
  11              	.LC0:
  12 0000 556E6573 		.string	"Unesite broj testa? [1-7]\n"
  12      69746520 
  12      62726F6A 
  12      20746573 
  12      74613F20 
  13 001b 00000000 		.align	3
  13      00
  14              	.LC1:
  15 0020 4E696A65 		.string	"Nije navedeno da je zadatak 4 implementiran\n"
  15      206E6176 
  15      6564656E 
  15      6F206461 
  15      206A6520 
  16 004d 000000   		.align	3
  17              	.LC2:
  18 0050 54455354 		.string	"TEST 1 (zadatak 2, niti C API i sinhrona promena konteksta)\n"
  18      20312028 
  18      7A616461 
  18      74616B20 
  18      322C206E 
  19 008d 000000   		.align	3
  20              	.LC3:
  21 0090 54455354 		.string	"TEST 2 (zadatak 2., niti CPP API i sinhrona promena konteksta)\n"
  21      20322028 
  21      7A616461 
  21      74616B20 
  21      322E2C20 
  22              		.align	3
  23              	.LC4:
  24 00d0 54455354 		.string	"TEST 3 (zadatak 3., kompletan C API sa semaforima, sinhrona promena konteksta)\n"
  24      20332028 
  24      7A616461 
  24      74616B20 
  24      332E2C20 
  25              		.align	3
  26              	.LC5:
  27 0120 54455354 		.string	"TEST 4 (zadatak 3., kompletan CPP API sa semaforima, sinhrona promena konteksta)\n"
  27      20342028 
  27      7A616461 
  27      74616B20 
  27      332E2C20 
  28 0172 00000000 		.align	3
  28      0000
  29              	.LC6:
  30 0178 54657374 		.string	"Test se nije uspesno zavrsio\n"
  30      20736520 
GAS LISTING /tmp/ccBiqeit.s 			page 2


  30      6E696A65 
  30      20757370 
  30      65736E6F 
  31 0196 0000     		.align	3
  32              	.LC7:
  33 0198 54455354 		.string	"TEST 7 (zadatak 2., testiranje da li se korisnicki kod izvrsava u korisnickom rezimu)\n"
  33      20372028 
  33      7A616461 
  33      74616B20 
  33      322E2C20 
  34 01ef 00       		.align	3
  35              	.LC8:
  36 01f0 4E697374 		.string	"Niste uneli odgovarajuci broj za test\n"
  36      6520756E 
  36      656C6920 
  36      6F64676F 
  36      76617261 
  37              		.text
  38              		.align	2
  39              		.globl	_Z8userMainv
  41              	_Z8userMainv:
  42              	.LFB33:
  43              		.file 1 "src/main.cpp"
   1:src/main.cpp  **** #include "../h/riscv.hpp"
   2:src/main.cpp  **** #include "../h/_thread.hpp"
   3:src/main.cpp  **** #include "../h/syscall_c.hpp"
   4:src/main.cpp  **** #include "../test/printing.hpp"
   5:src/main.cpp  **** #include "../h/MemoryAllocator.h"
   6:src/main.cpp  **** 
   7:src/main.cpp  **** 
   8:src/main.cpp  **** //#include "../test/userMain.cpp"
   9:src/main.cpp  **** thread_t nitA;
  10:src/main.cpp  **** thread_t nitB;
  11:src/main.cpp  **** thread_t nitC;
  12:src/main.cpp  **** 
  13:src/main.cpp  **** 
  14:src/main.cpp  **** 
  15:src/main.cpp  **** 
  16:src/main.cpp  **** #define LEVEL_1_IMPLEMENTED 1
  17:src/main.cpp  **** #define LEVEL_2_IMPLEMENTED 1
  18:src/main.cpp  **** #define LEVEL_3_IMPLEMENTED 1
  19:src/main.cpp  **** #define LEVEL_4_IMPLEMENTED 0
  20:src/main.cpp  **** 
  21:src/main.cpp  **** #if LEVEL_2_IMPLEMENTED == 1
  22:src/main.cpp  **** // TEST 1 (zadatak 2, niti C API i sinhrona promena konteksta)
  23:src/main.cpp  **** #include "../test/Threads_C_API_test.hpp"
  24:src/main.cpp  **** // TEST 2 (zadatak 2., niti CPP API i sinhrona promena konteksta)
  25:src/main.cpp  **** #include "../test/Threads_CPP_API_test.hpp"
  26:src/main.cpp  **** // TEST 7 (zadatak 2., testiranje da li se korisnicki kod izvrsava u korisnickom rezimu)
  27:src/main.cpp  **** #include "../test/System_Mode_test.hpp"
  28:src/main.cpp  **** #endif
  29:src/main.cpp  **** 
  30:src/main.cpp  **** #if LEVEL_3_IMPLEMENTED == 1
  31:src/main.cpp  **** // TEST 3 (zadatak 3., kompletan C API sa semaforima, sinhrona promena konteksta)
  32:src/main.cpp  **** #include "../test/ConsumerProducer_C_API_test.hpp"
  33:src/main.cpp  **** // TEST 4 (zadatak 3., kompletan CPP API sa semaforima, sinhrona promena konteksta)
  34:src/main.cpp  **** #include "../test/ConsumerProducer_CPP_Sync_API_test.hpp"
GAS LISTING /tmp/ccBiqeit.s 			page 3


  35:src/main.cpp  **** #endif
  36:src/main.cpp  **** 
  37:src/main.cpp  **** #if LEVEL_4_IMPLEMENTED == 1
  38:src/main.cpp  **** // TEST 5 (zadatak 4., thread_sleep test C API)
  39:src/main.cpp  **** #include "../test/ThreadSleep_C_API_test.hpp"
  40:src/main.cpp  **** // TEST 6 (zadatak 4. CPP API i asinhrona promena konteksta)
  41:src/main.cpp  **** #include "../test/ConsumerProducer_CPP_API_test.hpp"
  42:src/main.cpp  **** #include "System_Mode_test.hpp"
  43:src/main.cpp  **** 
  44:src/main.cpp  **** #endif
  45:src/main.cpp  **** 
  46:src/main.cpp  **** void userMain() {
  44              		.loc 1 46 17
  45              		.cfi_startproc
  46 0000 130101FE 		addi	sp,sp,-32
  47              		.cfi_def_cfa_offset 32
  48 0004 233C1100 		sd	ra,24(sp)
  49 0008 23388100 		sd	s0,16(sp)
  50 000c 23349100 		sd	s1,8(sp)
  51 0010 23302101 		sd	s2,0(sp)
  52              		.cfi_offset 1, -8
  53              		.cfi_offset 8, -16
  54              		.cfi_offset 9, -24
  55              		.cfi_offset 18, -32
  56 0014 13040102 		addi	s0,sp,32
  57              		.cfi_def_cfa 8, 0
  47:src/main.cpp  ****     printString("Unesite broj testa? [1-7]\n");
  58              		.loc 1 47 5
  59              		.loc 1 47 16 is_stmt 0
  60 0018 17050000 		lla	a0,.LC0
  60      13050500 
  61 0020 97000000 		call	_Z11printStringPKc
  61      E7800000 
  62              	.LVL0:
  48:src/main.cpp  ****     int test = getc() - '0';
  63              		.loc 1 48 5 is_stmt 1
  64              		.loc 1 48 20 is_stmt 0
  65 0028 97000000 		call	_Z4getcv
  65      E7800000 
  66              	.LVL1:
  67 0030 13090500 		mv	s2,a0
  68              		.loc 1 48 25
  69 0034 9B0405FD 		addiw	s1,a0,-48
  70              	.LVL2:
  49:src/main.cpp  ****     getc(); // Enter posle broja
  71              		.loc 1 49 5 is_stmt 1
  72              		.loc 1 49 9 is_stmt 0
  73 0038 97000000 		call	_Z4getcv
  73      E7800000 
  74              	.LVL3:
  50:src/main.cpp  **** 
  51:src/main.cpp  ****     if ((test >= 1 && test <= 2) || test == 7) {
  75              		.loc 1 51 5 is_stmt 1
  52:src/main.cpp  ****         if (LEVEL_2_IMPLEMENTED == 0) {
  53:src/main.cpp  ****             printString("Nije navedeno da je zadatak 2 implementiran\n");
  54:src/main.cpp  ****             return;
  55:src/main.cpp  ****         }
GAS LISTING /tmp/ccBiqeit.s 			page 4


  56:src/main.cpp  ****     }
  57:src/main.cpp  **** 
  58:src/main.cpp  ****     if (test >= 3 && test <= 4) {
  76              		.loc 1 58 5
  59:src/main.cpp  ****         if (LEVEL_3_IMPLEMENTED == 0) {
  60:src/main.cpp  ****             printString("Nije navedeno da je zadatak 3 implementiran\n");
  61:src/main.cpp  ****             return;
  62:src/main.cpp  ****         }
  63:src/main.cpp  ****     }
  64:src/main.cpp  **** 
  65:src/main.cpp  ****     if (test >= 5 && test <= 6) {
  77              		.loc 1 65 5
  78              		.loc 1 65 19 is_stmt 0
  79 0040 1B09B9FC 		addiw	s2,s2,-53
  80              		.loc 1 65 5
  81 0044 93071000 		li	a5,1
  82 0048 63F42703 		bleu	s2,a5,.L12
  66:src/main.cpp  ****         if (LEVEL_4_IMPLEMENTED == 0) {
  67:src/main.cpp  ****             printString("Nije navedeno da je zadatak 4 implementiran\n");
  68:src/main.cpp  ****             return;
  69:src/main.cpp  ****         }
  70:src/main.cpp  ****     }
  71:src/main.cpp  **** 
  72:src/main.cpp  ****     switch (test) {
  83              		.loc 1 72 5 is_stmt 1
  84 004c 93077000 		li	a5,7
  85 0050 63E2970E 		bgtu	s1,a5,.L4
  86 0054 93942400 		slli	s1,s1,2
  87 0058 17070000 		lla	a4,.L6
  87      13070700 
  88 0060 B384E400 		add	s1,s1,a4
  89 0064 83A70400 		lw	a5,0(s1)
  90 0068 B387E700 		add	a5,a5,a4
  91 006c 67800700 		jr	a5
  92              		.section	.rodata
  93              		.align	2
  94              		.align	2
  95              	.L6:
  96 0000 00000000 		.word	.L4-.L6
  97 0004 00000000 		.word	.L10-.L6
  98 0008 00000000 		.word	.L9-.L6
  99 000c 00000000 		.word	.L8-.L6
 100 0010 00000000 		.word	.L7-.L6
 101 0014 00000000 		.word	.L1-.L6
 102 0018 00000000 		.word	.L1-.L6
 103 001c 00000000 		.word	.L5-.L6
 104              		.text
 105              	.L12:
  66:src/main.cpp  ****         if (LEVEL_4_IMPLEMENTED == 0) {
 106              		.loc 1 66 9
  67:src/main.cpp  ****             return;
 107              		.loc 1 67 13
  67:src/main.cpp  ****             return;
 108              		.loc 1 67 24 is_stmt 0
 109 0070 17050000 		lla	a0,.LC1
 109      13050500 
 110 0078 97000000 		call	_Z11printStringPKc
GAS LISTING /tmp/ccBiqeit.s 			page 5


 110      E7800000 
 111              	.LVL4:
  68:src/main.cpp  ****         }
 112              		.loc 1 68 13 is_stmt 1
 113              	.L1:
  73:src/main.cpp  ****         case 1:
  74:src/main.cpp  **** #if LEVEL_2_IMPLEMENTED == 1
  75:src/main.cpp  ****             Threads_C_API_test();
  76:src/main.cpp  ****             printString("TEST 1 (zadatak 2, niti C API i sinhrona promena konteksta)\n");
  77:src/main.cpp  **** #endif
  78:src/main.cpp  ****             break;
  79:src/main.cpp  ****         case 2:
  80:src/main.cpp  **** #if LEVEL_2_IMPLEMENTED == 1
  81:src/main.cpp  ****             Threads_CPP_API_test();
  82:src/main.cpp  ****             printString("TEST 2 (zadatak 2., niti CPP API i sinhrona promena konteksta)\n");
  83:src/main.cpp  **** #endif
  84:src/main.cpp  ****             break;
  85:src/main.cpp  ****         case 3:
  86:src/main.cpp  **** #if LEVEL_3_IMPLEMENTED == 1
  87:src/main.cpp  ****             producerConsumer_C_API();
  88:src/main.cpp  ****             printString("TEST 3 (zadatak 3., kompletan C API sa semaforima, sinhrona promena kontek
  89:src/main.cpp  **** #endif
  90:src/main.cpp  ****             break;
  91:src/main.cpp  ****         case 4:
  92:src/main.cpp  **** #if LEVEL_3_IMPLEMENTED == 1
  93:src/main.cpp  ****             producerConsumer_CPP_Sync_API();
  94:src/main.cpp  ****             printString("TEST 4 (zadatak 3., kompletan CPP API sa semaforima, sinhrona promena kont
  95:src/main.cpp  **** #endif
  96:src/main.cpp  ****             break;
  97:src/main.cpp  ****         case 5:
  98:src/main.cpp  **** #if LEVEL_4_IMPLEMENTED == 1
  99:src/main.cpp  ****             testSleeping();
 100:src/main.cpp  ****             printString("TEST 5 (zadatak 4., thread_sleep test C API)\n");
 101:src/main.cpp  **** #endif
 102:src/main.cpp  ****             break;
 103:src/main.cpp  ****         case 6:
 104:src/main.cpp  **** #if LEVEL_4_IMPLEMENTED == 1
 105:src/main.cpp  ****             testConsumerProducer();
 106:src/main.cpp  ****             printString("TEST 6 (zadatak 4. CPP API i asinhrona promena konteksta)\n");
 107:src/main.cpp  **** #endif
 108:src/main.cpp  ****             break;
 109:src/main.cpp  ****         case 7:
 110:src/main.cpp  **** #if LEVEL_2_IMPLEMENTED == 1
 111:src/main.cpp  ****             System_Mode_test();
 112:src/main.cpp  ****             printString("Test se nije uspesno zavrsio\n");
 113:src/main.cpp  ****             printString("TEST 7 (zadatak 2., testiranje da li se korisnicki kod izvrsava u korisnic
 114:src/main.cpp  **** #endif
 115:src/main.cpp  ****             break;
 116:src/main.cpp  ****         default:
 117:src/main.cpp  ****             printString("Niste uneli odgovarajuci broj za test\n");
 118:src/main.cpp  ****     }
 119:src/main.cpp  **** }
 114              		.loc 1 119 1 is_stmt 0
 115 0080 83308101 		ld	ra,24(sp)
 116              		.cfi_remember_state
 117              		.cfi_restore 1
 118 0084 03340101 		ld	s0,16(sp)
GAS LISTING /tmp/ccBiqeit.s 			page 6


 119              		.cfi_restore 8
 120              		.cfi_def_cfa 2, 32
 121 0088 83348100 		ld	s1,8(sp)
 122              		.cfi_restore 9
 123 008c 03390100 		ld	s2,0(sp)
 124              		.cfi_restore 18
 125 0090 13010102 		addi	sp,sp,32
 126              		.cfi_def_cfa_offset 0
 127 0094 67800000 		jr	ra
 128              	.L10:
 129              		.cfi_restore_state
  73:src/main.cpp  ****         case 1:
 130              		.loc 1 73 9 is_stmt 1
  75:src/main.cpp  ****             printString("TEST 1 (zadatak 2, niti C API i sinhrona promena konteksta)\n");
 131              		.loc 1 75 13
  75:src/main.cpp  ****             printString("TEST 1 (zadatak 2, niti C API i sinhrona promena konteksta)\n");
 132              		.loc 1 75 31 is_stmt 0
 133 0098 97000000 		call	_Z18Threads_C_API_testv
 133      E7800000 
 134              	.LVL5:
  76:src/main.cpp  **** #endif
 135              		.loc 1 76 13 is_stmt 1
  76:src/main.cpp  **** #endif
 136              		.loc 1 76 24 is_stmt 0
 137 00a0 17050000 		lla	a0,.LC2
 137      13050500 
 138 00a8 97000000 		call	_Z11printStringPKc
 138      E7800000 
 139              	.LVL6:
  78:src/main.cpp  ****         case 2:
 140              		.loc 1 78 13 is_stmt 1
 141 00b0 6FF01FFD 		j	.L1
 142              	.L9:
  79:src/main.cpp  **** #if LEVEL_2_IMPLEMENTED == 1
 143              		.loc 1 79 9
  81:src/main.cpp  ****             printString("TEST 2 (zadatak 2., niti CPP API i sinhrona promena konteksta)\n");
 144              		.loc 1 81 13
  81:src/main.cpp  ****             printString("TEST 2 (zadatak 2., niti CPP API i sinhrona promena konteksta)\n");
 145              		.loc 1 81 33 is_stmt 0
 146 00b4 97000000 		call	_Z20Threads_CPP_API_testv
 146      E7800000 
 147              	.LVL7:
  82:src/main.cpp  **** #endif
 148              		.loc 1 82 13 is_stmt 1
  82:src/main.cpp  **** #endif
 149              		.loc 1 82 24 is_stmt 0
 150 00bc 17050000 		lla	a0,.LC3
 150      13050500 
 151 00c4 97000000 		call	_Z11printStringPKc
 151      E7800000 
 152              	.LVL8:
  84:src/main.cpp  ****         case 3:
 153              		.loc 1 84 13 is_stmt 1
 154 00cc 6FF05FFB 		j	.L1
 155              	.L8:
  85:src/main.cpp  **** #if LEVEL_3_IMPLEMENTED == 1
 156              		.loc 1 85 9
GAS LISTING /tmp/ccBiqeit.s 			page 7


  87:src/main.cpp  ****             printString("TEST 3 (zadatak 3., kompletan C API sa semaforima, sinhrona promena kontek
 157              		.loc 1 87 13
  87:src/main.cpp  ****             printString("TEST 3 (zadatak 3., kompletan C API sa semaforima, sinhrona promena kontek
 158              		.loc 1 87 35 is_stmt 0
 159 00d0 97000000 		call	_Z22producerConsumer_C_APIv
 159      E7800000 
 160              	.LVL9:
  88:src/main.cpp  **** #endif
 161              		.loc 1 88 13 is_stmt 1
  88:src/main.cpp  **** #endif
 162              		.loc 1 88 24 is_stmt 0
 163 00d8 17050000 		lla	a0,.LC4
 163      13050500 
 164 00e0 97000000 		call	_Z11printStringPKc
 164      E7800000 
 165              	.LVL10:
  90:src/main.cpp  ****         case 4:
 166              		.loc 1 90 13 is_stmt 1
 167 00e8 6FF09FF9 		j	.L1
 168              	.L7:
  91:src/main.cpp  **** #if LEVEL_3_IMPLEMENTED == 1
 169              		.loc 1 91 9
  93:src/main.cpp  ****             printString("TEST 4 (zadatak 3., kompletan CPP API sa semaforima, sinhrona promena kont
 170              		.loc 1 93 13
  93:src/main.cpp  ****             printString("TEST 4 (zadatak 3., kompletan CPP API sa semaforima, sinhrona promena kont
 171              		.loc 1 93 42 is_stmt 0
 172 00ec 97000000 		call	_Z29producerConsumer_CPP_Sync_APIv
 172      E7800000 
 173              	.LVL11:
  94:src/main.cpp  **** #endif
 174              		.loc 1 94 13 is_stmt 1
  94:src/main.cpp  **** #endif
 175              		.loc 1 94 24 is_stmt 0
 176 00f4 17050000 		lla	a0,.LC5
 176      13050500 
 177 00fc 97000000 		call	_Z11printStringPKc
 177      E7800000 
 178              	.LVL12:
  96:src/main.cpp  ****         case 5:
 179              		.loc 1 96 13 is_stmt 1
 180 0104 6FF0DFF7 		j	.L1
 181              	.L5:
 109:src/main.cpp  **** #if LEVEL_2_IMPLEMENTED == 1
 182              		.loc 1 109 9
 111:src/main.cpp  ****             printString("Test se nije uspesno zavrsio\n");
 183              		.loc 1 111 13
 111:src/main.cpp  ****             printString("Test se nije uspesno zavrsio\n");
 184              		.loc 1 111 29 is_stmt 0
 185 0108 97000000 		call	_Z16System_Mode_testv
 185      E7800000 
 186              	.LVL13:
 112:src/main.cpp  ****             printString("TEST 7 (zadatak 2., testiranje da li se korisnicki kod izvrsava u korisnic
 187              		.loc 1 112 13 is_stmt 1
 112:src/main.cpp  ****             printString("TEST 7 (zadatak 2., testiranje da li se korisnicki kod izvrsava u korisnic
 188              		.loc 1 112 24 is_stmt 0
 189 0110 17050000 		lla	a0,.LC6
 189      13050500 
GAS LISTING /tmp/ccBiqeit.s 			page 8


 190 0118 97000000 		call	_Z11printStringPKc
 190      E7800000 
 191              	.LVL14:
 113:src/main.cpp  **** #endif
 192              		.loc 1 113 13 is_stmt 1
 113:src/main.cpp  **** #endif
 193              		.loc 1 113 24 is_stmt 0
 194 0120 17050000 		lla	a0,.LC7
 194      13050500 
 195 0128 97000000 		call	_Z11printStringPKc
 195      E7800000 
 196              	.LVL15:
 115:src/main.cpp  ****         default:
 197              		.loc 1 115 13 is_stmt 1
 198 0130 6FF01FF5 		j	.L1
 199              	.L4:
 116:src/main.cpp  ****             printString("Niste uneli odgovarajuci broj za test\n");
 200              		.loc 1 116 9
 117:src/main.cpp  ****     }
 201              		.loc 1 117 13
 117:src/main.cpp  ****     }
 202              		.loc 1 117 24 is_stmt 0
 203 0134 17050000 		lla	a0,.LC8
 203      13050500 
 204 013c 97000000 		call	_Z11printStringPKc
 204      E7800000 
 205              	.LVL16:
 206 0144 6FF0DFF3 		j	.L1
 207              		.cfi_endproc
 208              	.LFE33:
 210              		.align	2
 211              		.globl	main
 213              	main:
 214              	.LFB34:
 120:src/main.cpp  **** 
 121:src/main.cpp  **** 
 122:src/main.cpp  **** 
 123:src/main.cpp  **** 
 124:src/main.cpp  **** int main()
 125:src/main.cpp  **** {
 215              		.loc 1 125 1 is_stmt 1
 216              		.cfi_startproc
 217 0148 130101FE 		addi	sp,sp,-32
 218              		.cfi_def_cfa_offset 32
 219 014c 233C1100 		sd	ra,24(sp)
 220 0150 23388100 		sd	s0,16(sp)
 221              		.cfi_offset 1, -8
 222              		.cfi_offset 8, -16
 223 0154 13040102 		addi	s0,sp,32
 224              		.cfi_def_cfa 8, 0
 126:src/main.cpp  ****     MemoryAllocator::init_mem();
 225              		.loc 1 126 5
 226              	.LBB10:
 227              	.LBB11:
 228              		.file 2 "src/../h/MemoryAllocator.h"
   1:src/../h/MemoryAllocator.h **** //
   2:src/../h/MemoryAllocator.h **** // Created by basara on 9.8.24..
GAS LISTING /tmp/ccBiqeit.s 			page 9


   3:src/../h/MemoryAllocator.h **** //
   4:src/../h/MemoryAllocator.h **** 
   5:src/../h/MemoryAllocator.h **** #ifndef OS1_PROJEKAT_MEMORYALLOCATOR_H
   6:src/../h/MemoryAllocator.h **** #define OS1_PROJEKAT_MEMORYALLOCATOR_H
   7:src/../h/MemoryAllocator.h **** 
   8:src/../h/MemoryAllocator.h **** #include "../lib/hw.h"
   9:src/../h/MemoryAllocator.h **** 
  10:src/../h/MemoryAllocator.h **** struct Mem_Block {
  11:src/../h/MemoryAllocator.h ****     Mem_Block* next=nullptr;
  12:src/../h/MemoryAllocator.h ****     Mem_Block* prev=nullptr;
  13:src/../h/MemoryAllocator.h ****     size_t size=0;
  14:src/../h/MemoryAllocator.h **** };
  15:src/../h/MemoryAllocator.h **** 
  16:src/../h/MemoryAllocator.h **** 
  17:src/../h/MemoryAllocator.h **** class MemoryAllocator {
  18:src/../h/MemoryAllocator.h **** public:
  19:src/../h/MemoryAllocator.h **** 
  20:src/../h/MemoryAllocator.h ****     static void* mem_alloc(size_t size);
  21:src/../h/MemoryAllocator.h **** 
  22:src/../h/MemoryAllocator.h ****     static int mem_free(void*);
  23:src/../h/MemoryAllocator.h **** 
  24:src/../h/MemoryAllocator.h ****     static void init_mem(){
  25:src/../h/MemoryAllocator.h ****         free_Block = (Mem_Block*)HEAP_START_ADDR;
 229              		.loc 2 25 9
 230              		.loc 2 25 20 is_stmt 0
 231 0158 97070000 		ld	a5,HEAP_START_ADDR
 231      83B70700 
 232 0160 97060000 		lla	a3,_ZN15MemoryAllocator10free_BlockE
 232      93860600 
 233 0168 23B0F600 		sd	a5,0(a3)
  26:src/../h/MemoryAllocator.h ****         free_Block->size = (size_t)HEAP_END_ADDR - (size_t)HEAP_START_ADDR;
 234              		.loc 2 26 9 is_stmt 1
 235              		.loc 2 26 50 is_stmt 0
 236 016c 17070000 		ld	a4,HEAP_END_ADDR
 236      03370700 
 237 0174 3307F740 		sub	a4,a4,a5
 238              		.loc 2 26 26
 239 0178 23B8E700 		sd	a4,16(a5)
  27:src/../h/MemoryAllocator.h ****         free_Block->next = nullptr;
 240              		.loc 2 27 9 is_stmt 1
 241              		.loc 2 27 26 is_stmt 0
 242 017c 23B00700 		sd	zero,0(a5)
  28:src/../h/MemoryAllocator.h ****         free_Block->prev = nullptr;
 243              		.loc 2 28 9 is_stmt 1
 244              		.loc 2 28 21 is_stmt 0
 245 0180 83B70600 		ld	a5,0(a3)
 246              		.loc 2 28 26
 247 0184 23B40700 		sd	zero,8(a5)
 248              	.LBE11:
 249              	.LBE10:
 127:src/main.cpp  ****     Riscv::w_stvec((uint64) &Riscv::interruptRoutine);    //upisuje adresu prekidne rutine
 250              		.loc 1 127 5 is_stmt 1
 251              		.loc 1 127 19 is_stmt 0
 252 0188 97070000 		lla	a5,_ZN5Riscv16interruptRoutineEv
 252      93870700 
 253              	.LVL17:
 254              	.LBB12:
GAS LISTING /tmp/ccBiqeit.s 			page 10


 255              	.LBB13:
 256              		.file 3 "src/../h/riscv.hpp"
   1:src/../h/riscv.hpp **** //
   2:src/../h/riscv.hpp **** // Created by marko on 20.4.22..
   3:src/../h/riscv.hpp **** //
   4:src/../h/riscv.hpp **** 
   5:src/../h/riscv.hpp **** #ifndef OS_PROJEKAT_RISCV_HPP
   6:src/../h/riscv.hpp **** #define OS_PROJEKAT_RISCV_HPP
   7:src/../h/riscv.hpp **** 
   8:src/../h/riscv.hpp **** 
   9:src/../h/riscv.hpp **** #include "../lib/hw.h"
  10:src/../h/riscv.hpp **** 
  11:src/../h/riscv.hpp **** 
  12:src/../h/riscv.hpp **** class Riscv
  13:src/../h/riscv.hpp **** {
  14:src/../h/riscv.hpp **** public:
  15:src/../h/riscv.hpp **** 
  16:src/../h/riscv.hpp ****     // pop status.spp and sstatus.spie bits
  17:src/../h/riscv.hpp ****     static void popSppSpie();
  18:src/../h/riscv.hpp ****     //implementaciju ove metode stavljam u cpp zato sto je vazno da ova staticka metoda
  19:src/../h/riscv.hpp ****     //bude ne inline, da bi se ovaj kod pozvao i da bi se promenio ra registar
  20:src/../h/riscv.hpp ****     //bitno je da znamo odakle se desio poziv
  21:src/../h/riscv.hpp ****     //jedini nacin da promenimo rezim privilegije je sa funkcijama koje se vracaju iz prekidne ruti
  22:src/../h/riscv.hpp ****     //pomocu sret, konekts novonapravljene niti nece ici preko normalne prekidne rutine vec ce ici 
  23:src/../h/riscv.hpp ****     //threadWrapera i u okviru njegove funckije treba izaci iz prekidne rutine
  24:src/../h/riscv.hpp ****     //sret ce se vratiti tamo gde je sepc rekao
  25:src/../h/riscv.hpp **** 
  26:src/../h/riscv.hpp ****     //preko name manlinga uazi se u definiciju koja je napisana u fajlu preko asemblera
  27:src/../h/riscv.hpp ****     static void interruptRoutine();
  28:src/../h/riscv.hpp **** 
  29:src/../h/riscv.hpp ****     // push x3..x31 registers onto stack
  30:src/../h/riscv.hpp ****     static void pushRegisters();
  31:src/../h/riscv.hpp **** 
  32:src/../h/riscv.hpp ****     // pop x3..x31 registers onto stack
  33:src/../h/riscv.hpp ****     static void popRegisters();
  34:src/../h/riscv.hpp **** 
  35:src/../h/riscv.hpp ****     // read register scause
  36:src/../h/riscv.hpp ****     static uint64 r_scause();
  37:src/../h/riscv.hpp **** 
  38:src/../h/riscv.hpp ****     // write register scause
  39:src/../h/riscv.hpp ****     static void w_scause(uint64 scause);
  40:src/../h/riscv.hpp **** 
  41:src/../h/riscv.hpp ****     // read register sepc
  42:src/../h/riscv.hpp ****     static uint64 r_sepc();
  43:src/../h/riscv.hpp **** 
  44:src/../h/riscv.hpp ****     // write register sepc
  45:src/../h/riscv.hpp ****     static void w_sepc(uint64 sepc);
  46:src/../h/riscv.hpp **** 
  47:src/../h/riscv.hpp ****     // read register stvec
  48:src/../h/riscv.hpp ****     static uint64 r_stvec();
  49:src/../h/riscv.hpp **** 
  50:src/../h/riscv.hpp ****     // write register stvec
  51:src/../h/riscv.hpp ****     static void w_stvec(uint64 stvec);
  52:src/../h/riscv.hpp **** 
  53:src/../h/riscv.hpp ****     // read register stval
  54:src/../h/riscv.hpp ****     static uint64 r_stval();
  55:src/../h/riscv.hpp **** 
GAS LISTING /tmp/ccBiqeit.s 			page 11


  56:src/../h/riscv.hpp ****     // write register stval
  57:src/../h/riscv.hpp ****     static void w_stval(uint64 stval);
  58:src/../h/riscv.hpp **** 
  59:src/../h/riscv.hpp ****     enum BitMaskSip
  60:src/../h/riscv.hpp ****     {
  61:src/../h/riscv.hpp ****         SIP_SSIP = (1 << 1),
  62:src/../h/riscv.hpp ****         SIP_STIP = (1 << 5),
  63:src/../h/riscv.hpp ****         SIP_SEIP = (1 << 9),
  64:src/../h/riscv.hpp ****     };
  65:src/../h/riscv.hpp **** 
  66:src/../h/riscv.hpp ****     // mask set register sip
  67:src/../h/riscv.hpp ****     static void ms_sip(uint64 mask);
  68:src/../h/riscv.hpp **** 
  69:src/../h/riscv.hpp ****     // mask clear register sip
  70:src/../h/riscv.hpp ****     static void mc_sip(uint64 mask);
  71:src/../h/riscv.hpp **** 
  72:src/../h/riscv.hpp ****     // read register sip
  73:src/../h/riscv.hpp ****     static uint64 r_sip();
  74:src/../h/riscv.hpp **** 
  75:src/../h/riscv.hpp ****     // write register sip
  76:src/../h/riscv.hpp ****     static void w_sip(uint64 sip);
  77:src/../h/riscv.hpp **** 
  78:src/../h/riscv.hpp ****     enum BitMaskSstatus
  79:src/../h/riscv.hpp ****     {
  80:src/../h/riscv.hpp ****         SSTATUS_SIE = (1 << 1),
  81:src/../h/riscv.hpp ****         SSTATUS_SPIE = (1 << 5),
  82:src/../h/riscv.hpp ****         SSTATUS_SPP = (1 << 8),
  83:src/../h/riscv.hpp ****     };
  84:src/../h/riscv.hpp **** 
  85:src/../h/riscv.hpp ****     // mask set register sstatus
  86:src/../h/riscv.hpp ****     static void ms_sstatus(uint64 mask);
  87:src/../h/riscv.hpp **** 
  88:src/../h/riscv.hpp ****     // mask clear register sstatus
  89:src/../h/riscv.hpp ****     static void mc_sstatus(uint64 mask);
  90:src/../h/riscv.hpp **** 
  91:src/../h/riscv.hpp ****     // read register sstatus
  92:src/../h/riscv.hpp ****     static uint64 r_sstatus();
  93:src/../h/riscv.hpp **** 
  94:src/../h/riscv.hpp ****     // write register sstatus
  95:src/../h/riscv.hpp ****     static void w_sstatus(uint64 sstatus);
  96:src/../h/riscv.hpp **** 
  97:src/../h/riscv.hpp **** private:
  98:src/../h/riscv.hpp ****     static void interruptRoutineHandler();
  99:src/../h/riscv.hpp **** };
 100:src/../h/riscv.hpp **** 
 101:src/../h/riscv.hpp **** inline uint64 Riscv::r_scause()
 102:src/../h/riscv.hpp **** {
 103:src/../h/riscv.hpp ****     uint64 volatile scause;
 104:src/../h/riscv.hpp ****     __asm__ volatile ("csrr %[scause], scause" : [scause] "=r"(scause));
 105:src/../h/riscv.hpp ****     return scause;
 106:src/../h/riscv.hpp **** }
 107:src/../h/riscv.hpp **** 
 108:src/../h/riscv.hpp **** inline void Riscv::w_scause(uint64 scause)
 109:src/../h/riscv.hpp **** {
 110:src/../h/riscv.hpp ****     __asm__ volatile ("csrw scause, %[scause]" : : [scause] "r"(scause));
 111:src/../h/riscv.hpp **** }
 112:src/../h/riscv.hpp **** 
GAS LISTING /tmp/ccBiqeit.s 			page 12


 113:src/../h/riscv.hpp **** inline uint64 Riscv::r_sepc()
 114:src/../h/riscv.hpp **** {
 115:src/../h/riscv.hpp ****     uint64 volatile sepc;
 116:src/../h/riscv.hpp ****     __asm__ volatile ("csrr %[sepc], sepc" : [sepc] "=r"(sepc));
 117:src/../h/riscv.hpp ****     return sepc;
 118:src/../h/riscv.hpp **** }
 119:src/../h/riscv.hpp **** 
 120:src/../h/riscv.hpp **** inline void Riscv::w_sepc(uint64 sepc)
 121:src/../h/riscv.hpp **** {
 122:src/../h/riscv.hpp ****     __asm__ volatile ("csrw sepc, %[sepc]" : : [sepc] "r"(sepc));
 123:src/../h/riscv.hpp **** }
 124:src/../h/riscv.hpp **** 
 125:src/../h/riscv.hpp **** inline uint64 Riscv::r_stvec()
 126:src/../h/riscv.hpp **** {
 127:src/../h/riscv.hpp ****     uint64 volatile stvec;
 128:src/../h/riscv.hpp ****     __asm__ volatile ("csrr %[stvec], stvec" : [stvec] "=r"(stvec));
 129:src/../h/riscv.hpp ****     return stvec;
 130:src/../h/riscv.hpp **** }
 131:src/../h/riscv.hpp **** 
 132:src/../h/riscv.hpp **** inline void Riscv::w_stvec(uint64 stvec)
 133:src/../h/riscv.hpp **** {
 134:src/../h/riscv.hpp ****     __asm__ volatile ("csrw stvec, %[stvec]" : : [stvec] "r"(stvec));
 257              		.loc 3 134 5 is_stmt 1
 258              		.loc 3 134 69 is_stmt 0
 259              	 #APP
 260              	# 134 "src/../h/riscv.hpp" 1
 135              	}
 261              		csrw stvec, a5
 262              	# 0 "" 2
 263              	.LVL18:
 264              	 #NO_APP
 265              	.LBE13:
 266              	.LBE12:
 128:src/main.cpp  ****     Riscv::ms_sstatus (Riscv:: SSTATUS_SIE);
 267              		.loc 1 128 5 is_stmt 1
 268              	.LBB14:
 269              	.LBB15:
 136:src/../h/riscv.hpp **** 
 137:src/../h/riscv.hpp **** inline uint64 Riscv::r_stval()
 138:src/../h/riscv.hpp **** {
 139:src/../h/riscv.hpp ****     uint64 volatile stval;
 140:src/../h/riscv.hpp ****     __asm__ volatile ("csrr %[stval], stval" : [stval] "=r"(stval));
 141:src/../h/riscv.hpp ****     return stval;
 142:src/../h/riscv.hpp **** }
 143:src/../h/riscv.hpp **** 
 144:src/../h/riscv.hpp **** inline void Riscv::w_stval(uint64 stval)
 145:src/../h/riscv.hpp **** {
 146:src/../h/riscv.hpp ****     __asm__ volatile ("csrw stval, %[stval]" : : [stval] "r"(stval));
 147:src/../h/riscv.hpp **** }
 148:src/../h/riscv.hpp **** 
 149:src/../h/riscv.hpp **** inline void Riscv::ms_sip(uint64 mask)
 150:src/../h/riscv.hpp **** {
 151:src/../h/riscv.hpp ****     __asm__ volatile ("csrs sip, %[mask]" : : [mask] "r"(mask));
 152:src/../h/riscv.hpp **** }
 153:src/../h/riscv.hpp **** 
 154:src/../h/riscv.hpp **** inline void Riscv::mc_sip(uint64 mask)
 155:src/../h/riscv.hpp **** {
GAS LISTING /tmp/ccBiqeit.s 			page 13


 156:src/../h/riscv.hpp ****     __asm__ volatile ("csrc sip, %[mask]" : : [mask] "r"(mask));
 157:src/../h/riscv.hpp **** }
 158:src/../h/riscv.hpp **** 
 159:src/../h/riscv.hpp **** inline uint64 Riscv::r_sip()
 160:src/../h/riscv.hpp **** {
 161:src/../h/riscv.hpp ****     uint64 volatile sip;
 162:src/../h/riscv.hpp ****     __asm__ volatile ("csrr %[sip], sip" : [sip] "=r"(sip));
 163:src/../h/riscv.hpp ****     return sip;
 164:src/../h/riscv.hpp **** }
 165:src/../h/riscv.hpp **** 
 166:src/../h/riscv.hpp **** inline void Riscv::w_sip(uint64 sip)
 167:src/../h/riscv.hpp **** {
 168:src/../h/riscv.hpp ****     __asm__ volatile ("csrw sip, %[sip]" : : [sip] "r"(sip));
 169:src/../h/riscv.hpp **** }
 170:src/../h/riscv.hpp **** 
 171:src/../h/riscv.hpp **** inline void Riscv::ms_sstatus(uint64 mask)
 172:src/../h/riscv.hpp **** {
 173:src/../h/riscv.hpp ****     __asm__ volatile ("csrs sstatus, %[mask]" : : [mask] "r"(mask));
 270              		.loc 3 173 5
 271              		.loc 3 173 68 is_stmt 0
 272 0194 93072000 		li	a5,2
 273              	 #APP
 274              	# 173 "src/../h/riscv.hpp" 1
 174              	}
 275              		csrs sstatus, a5
 276              	# 0 "" 2
 277              	.LVL19:
 278              	 #NO_APP
 279              	.LBE15:
 280              	.LBE14:
 129:src/main.cpp  **** 
 130:src/main.cpp  **** 
 131:src/main.cpp  ****     thread_t thread1;
 281              		.loc 1 131 5 is_stmt 1
 132:src/main.cpp  **** 
 133:src/main.cpp  ****     //idle nit(nit koja nema fju koja treba da izvrsava)
 134:src/main.cpp  ****     thread_create(&thread1, nullptr, nullptr);
 282              		.loc 1 134 5
 283              		.loc 1 134 18 is_stmt 0
 284 019c 13060000 		li	a2,0
 285 01a0 93050000 		li	a1,0
 286 01a4 130584FE 		addi	a0,s0,-24
 287 01a8 97000000 		call	_Z13thread_createPP7_threadPFvPvES2_
 287      E7800000 
 288              	.LVL20:
 135:src/main.cpp  ****     _thread::running = thread1;
 289              		.loc 1 135 5 is_stmt 1
 290              		.loc 1 135 22 is_stmt 0
 291 01b0 833784FE 		ld	a5,-24(s0)
 292 01b4 17070000 		sd	a5,_ZN7_thread7runningE,a4
 292      2330F700 
 136:src/main.cpp  **** 
 137:src/main.cpp  ****     thread_t thread2;
 293              		.loc 1 137 5 is_stmt 1
 138:src/main.cpp  **** 
 139:src/main.cpp  **** 
 140:src/main.cpp  ****     thread_create(&thread2, reinterpret_cast<void (*)(void *)>(userMain), nullptr);
GAS LISTING /tmp/ccBiqeit.s 			page 14


 294              		.loc 1 140 5
 295              		.loc 1 140 18 is_stmt 0
 296 01bc 13060000 		li	a2,0
 297 01c0 97050000 		lla	a1,_Z8userMainv
 297      93850500 
 298 01c8 130504FE 		addi	a0,s0,-32
 299 01cc 97000000 		call	_Z13thread_createPP7_threadPFvPvES2_
 299      E7800000 
 300              	.LVL21:
 141:src/main.cpp  **** 
 142:src/main.cpp  ****     thread_dispatch();
 301              		.loc 1 142 5 is_stmt 1
 302              		.loc 1 142 20 is_stmt 0
 303 01d4 97000000 		call	_Z15thread_dispatchv
 303      E7800000 
 304              	.LVL22:
 305              	.L15:
 143:src/main.cpp  **** 
 144:src/main.cpp  ****     while (!(thread2->isFinished())) {
 306              		.loc 1 144 5 is_stmt 1
 307              		.loc 1 144 12
 308              		.loc 1 144 33 is_stmt 0
 309 01dc 833704FE 		ld	a5,-32(s0)
 310              	.LVL23:
 311              	.LBB16:
 312              	.LBB17:
 313              		.file 4 "src/../h/_thread.hpp"
   1:src/../h/_thread.hpp **** //
   2:src/../h/_thread.hpp **** // Created by basara on 19.6.24..
   3:src/../h/_thread.hpp **** //
   4:src/../h/_thread.hpp **** 
   5:src/../h/_thread.hpp **** #ifndef PROJECT_BASE_HPP
   6:src/../h/_thread.hpp **** #define PROJECT_BASE_HPP
   7:src/../h/_thread.hpp **** 
   8:src/../h/_thread.hpp **** #include "../lib/hw.h"
   9:src/../h/_thread.hpp **** #include "scheduler.hpp"
  10:src/../h/_thread.hpp **** 
  11:src/../h/_thread.hpp **** typedef _thread* thread_t;
  12:src/../h/_thread.hpp **** class _thread{
  13:src/../h/_thread.hpp **** public:
  14:src/../h/_thread.hpp ****     static _thread *running;
  15:src/../h/_thread.hpp **** 
  16:src/../h/_thread.hpp ****     using Body = void (*)(void(*)); //pokazivac na funkciju koja nema argumente ni povratnu vrednos
  17:src/../h/_thread.hpp **** 
  18:src/../h/_thread.hpp ****     ~_thread() {delete[] stack;}
  19:src/../h/_thread.hpp **** 
  20:src/../h/_thread.hpp ****     bool isFinished() const { return finished; }
 314              		.loc 4 20 31 is_stmt 1
 315              		.loc 4 20 38 is_stmt 0
 316 01e0 83C78702 		lbu	a5,40(a5)
 317              	.LVL24:
 318              	.LBE17:
 319              	.LBE16:
 320              		.loc 1 144 12
 321 01e4 63980700 		bnez	a5,.L14
 145:src/main.cpp  ****         thread_dispatch();
 322              		.loc 1 145 9 is_stmt 1
GAS LISTING /tmp/ccBiqeit.s 			page 15


 323              		.loc 1 145 24 is_stmt 0
 324 01e8 97000000 		call	_Z15thread_dispatchv
 324      E7800000 
 325              	.LVL25:
 326 01f0 6FF0DFFE 		j	.L15
 327              	.L14:
 146:src/main.cpp  ****     }
 147:src/main.cpp  **** 
 148:src/main.cpp  ****     return 0;
 328              		.loc 1 148 5 is_stmt 1
 149:src/main.cpp  **** }
 329              		.loc 1 149 1 is_stmt 0
 330 01f4 13050000 		li	a0,0
 331 01f8 83308101 		ld	ra,24(sp)
 332              		.cfi_restore 1
 333 01fc 03340101 		ld	s0,16(sp)
 334              		.cfi_restore 8
 335              		.cfi_def_cfa 2, 32
 336 0200 13010102 		addi	sp,sp,32
 337              		.cfi_def_cfa_offset 0
 338 0204 67800000 		jr	ra
 339              		.cfi_endproc
 340              	.LFE34:
 342              		.globl	nitC
 343              		.globl	nitB
 344              		.globl	nitA
 345              		.section	.sbss,"aw",@nobits
 346              		.align	3
 349              	nitC:
 350 0000 00000000 		.zero	8
 350      00000000 
 353              	nitB:
 354 0008 00000000 		.zero	8
 354      00000000 
 357              	nitA:
 358 0010 00000000 		.zero	8
 358      00000000 
 359              		.text
 360              	.Letext0:
 361              		.file 5 "src/../h/../lib/hw.h"
 362              		.file 6 "src/../h/syscall_c.hpp"
 363              		.file 7 "src/../test/printing.hpp"
 364              		.file 8 "src/../test/Threads_C_API_test.hpp"
 365              		.file 9 "src/../test/Threads_CPP_API_test.hpp"
 366              		.file 10 "src/../test/ConsumerProducer_C_API_test.hpp"
 367              		.file 11 "src/../test/ConsumerProducer_CPP_Sync_API_test.hpp"
 368              		.file 12 "src/../test/System_Mode_test.hpp"
GAS LISTING /tmp/ccBiqeit.s 			page 16


DEFINED SYMBOLS
                            *ABS*:0000000000000000 main.cpp
     /tmp/ccBiqeit.s:41     .text:0000000000000000 _Z8userMainv
     /tmp/ccBiqeit.s:45     .text:0000000000000000 .L0 
     /tmp/ccBiqeit.s:46     .text:0000000000000000 .L0 
     /tmp/ccBiqeit.s:47     .text:0000000000000004 .L0 
     /tmp/ccBiqeit.s:52     .text:0000000000000014 .L0 
     /tmp/ccBiqeit.s:53     .text:0000000000000014 .L0 
     /tmp/ccBiqeit.s:54     .text:0000000000000014 .L0 
     /tmp/ccBiqeit.s:55     .text:0000000000000014 .L0 
     /tmp/ccBiqeit.s:57     .text:0000000000000018 .L0 
     /tmp/ccBiqeit.s:59     .text:0000000000000018 .L0 
     /tmp/ccBiqeit.s:60     .text:0000000000000018 .L0 
     /tmp/ccBiqeit.s:64     .text:0000000000000028 .L0 
     /tmp/ccBiqeit.s:65     .text:0000000000000028 .L0 
     /tmp/ccBiqeit.s:69     .text:0000000000000034 .L0 
     /tmp/ccBiqeit.s:72     .text:0000000000000038 .L0 
     /tmp/ccBiqeit.s:73     .text:0000000000000038 .L0 
     /tmp/ccBiqeit.s:76     .text:0000000000000040 .L0 
     /tmp/ccBiqeit.s:77     .text:0000000000000040 .L0 
     /tmp/ccBiqeit.s:78     .text:0000000000000040 .L0 
     /tmp/ccBiqeit.s:79     .text:0000000000000040 .L0 
     /tmp/ccBiqeit.s:81     .text:0000000000000044 .L0 
     /tmp/ccBiqeit.s:84     .text:000000000000004c .L0 
     /tmp/ccBiqeit.s:107    .text:0000000000000070 .L0 
     /tmp/ccBiqeit.s:108    .text:0000000000000070 .L0 
     /tmp/ccBiqeit.s:109    .text:0000000000000070 .L0 
     /tmp/ccBiqeit.s:114    .text:0000000000000080 .L0 
     /tmp/ccBiqeit.s:115    .text:0000000000000080 .L0 
     /tmp/ccBiqeit.s:116    .text:0000000000000084 .L0 
     /tmp/ccBiqeit.s:117    .text:0000000000000084 .L0 
     /tmp/ccBiqeit.s:119    .text:0000000000000088 .L0 
     /tmp/ccBiqeit.s:120    .text:0000000000000088 .L0 
     /tmp/ccBiqeit.s:122    .text:000000000000008c .L0 
     /tmp/ccBiqeit.s:124    .text:0000000000000090 .L0 
     /tmp/ccBiqeit.s:126    .text:0000000000000094 .L0 
     /tmp/ccBiqeit.s:129    .text:0000000000000098 .L0 
     /tmp/ccBiqeit.s:131    .text:0000000000000098 .L0 
     /tmp/ccBiqeit.s:132    .text:0000000000000098 .L0 
     /tmp/ccBiqeit.s:133    .text:0000000000000098 .L0 
     /tmp/ccBiqeit.s:136    .text:00000000000000a0 .L0 
     /tmp/ccBiqeit.s:137    .text:00000000000000a0 .L0 
     /tmp/ccBiqeit.s:141    .text:00000000000000b0 .L0 
     /tmp/ccBiqeit.s:144    .text:00000000000000b4 .L0 
     /tmp/ccBiqeit.s:145    .text:00000000000000b4 .L0 
     /tmp/ccBiqeit.s:146    .text:00000000000000b4 .L0 
     /tmp/ccBiqeit.s:149    .text:00000000000000bc .L0 
     /tmp/ccBiqeit.s:150    .text:00000000000000bc .L0 
     /tmp/ccBiqeit.s:154    .text:00000000000000cc .L0 
     /tmp/ccBiqeit.s:157    .text:00000000000000d0 .L0 
     /tmp/ccBiqeit.s:158    .text:00000000000000d0 .L0 
     /tmp/ccBiqeit.s:159    .text:00000000000000d0 .L0 
     /tmp/ccBiqeit.s:162    .text:00000000000000d8 .L0 
     /tmp/ccBiqeit.s:163    .text:00000000000000d8 .L0 
     /tmp/ccBiqeit.s:167    .text:00000000000000e8 .L0 
     /tmp/ccBiqeit.s:170    .text:00000000000000ec .L0 
     /tmp/ccBiqeit.s:171    .text:00000000000000ec .L0 
GAS LISTING /tmp/ccBiqeit.s 			page 17


     /tmp/ccBiqeit.s:172    .text:00000000000000ec .L0 
     /tmp/ccBiqeit.s:175    .text:00000000000000f4 .L0 
     /tmp/ccBiqeit.s:176    .text:00000000000000f4 .L0 
     /tmp/ccBiqeit.s:180    .text:0000000000000104 .L0 
     /tmp/ccBiqeit.s:183    .text:0000000000000108 .L0 
     /tmp/ccBiqeit.s:184    .text:0000000000000108 .L0 
     /tmp/ccBiqeit.s:185    .text:0000000000000108 .L0 
     /tmp/ccBiqeit.s:188    .text:0000000000000110 .L0 
     /tmp/ccBiqeit.s:189    .text:0000000000000110 .L0 
     /tmp/ccBiqeit.s:193    .text:0000000000000120 .L0 
     /tmp/ccBiqeit.s:194    .text:0000000000000120 .L0 
     /tmp/ccBiqeit.s:198    .text:0000000000000130 .L0 
     /tmp/ccBiqeit.s:201    .text:0000000000000134 .L0 
     /tmp/ccBiqeit.s:202    .text:0000000000000134 .L0 
     /tmp/ccBiqeit.s:203    .text:0000000000000134 .L0 
     /tmp/ccBiqeit.s:207    .text:0000000000000148 .L0 
     /tmp/ccBiqeit.s:213    .text:0000000000000148 main
     /tmp/ccBiqeit.s:216    .text:0000000000000148 .L0 
     /tmp/ccBiqeit.s:217    .text:0000000000000148 .L0 
     /tmp/ccBiqeit.s:218    .text:000000000000014c .L0 
     /tmp/ccBiqeit.s:221    .text:0000000000000154 .L0 
     /tmp/ccBiqeit.s:222    .text:0000000000000154 .L0 
     /tmp/ccBiqeit.s:224    .text:0000000000000158 .L0 
     /tmp/ccBiqeit.s:229    .text:0000000000000158 .L0 
     /tmp/ccBiqeit.s:230    .text:0000000000000158 .L0 
     /tmp/ccBiqeit.s:231    .text:0000000000000158 .L0 
     /tmp/ccBiqeit.s:235    .text:000000000000016c .L0 
     /tmp/ccBiqeit.s:236    .text:000000000000016c .L0 
     /tmp/ccBiqeit.s:239    .text:0000000000000178 .L0 
     /tmp/ccBiqeit.s:241    .text:000000000000017c .L0 
     /tmp/ccBiqeit.s:242    .text:000000000000017c .L0 
     /tmp/ccBiqeit.s:244    .text:0000000000000180 .L0 
     /tmp/ccBiqeit.s:245    .text:0000000000000180 .L0 
     /tmp/ccBiqeit.s:247    .text:0000000000000184 .L0 
     /tmp/ccBiqeit.s:251    .text:0000000000000188 .L0 
     /tmp/ccBiqeit.s:252    .text:0000000000000188 .L0 
     /tmp/ccBiqeit.s:258    .text:0000000000000190 .L0 
  src/../h/riscv.hpp:134    .text:0000000000000190 .L0 
     /tmp/ccBiqeit.s:270    .text:0000000000000194 .L0 
     /tmp/ccBiqeit.s:271    .text:0000000000000194 .L0 
     /tmp/ccBiqeit.s:272    .text:0000000000000194 .L0 
     /tmp/ccBiqeit.s:282    .text:000000000000019c .L0 
     /tmp/ccBiqeit.s:283    .text:000000000000019c .L0 
     /tmp/ccBiqeit.s:284    .text:000000000000019c .L0 
     /tmp/ccBiqeit.s:290    .text:00000000000001b0 .L0 
     /tmp/ccBiqeit.s:291    .text:00000000000001b0 .L0 
     /tmp/ccBiqeit.s:294    .text:00000000000001bc .L0 
     /tmp/ccBiqeit.s:295    .text:00000000000001bc .L0 
     /tmp/ccBiqeit.s:296    .text:00000000000001bc .L0 
     /tmp/ccBiqeit.s:302    .text:00000000000001d4 .L0 
     /tmp/ccBiqeit.s:303    .text:00000000000001d4 .L0 
     /tmp/ccBiqeit.s:307    .text:00000000000001dc .L0 
     /tmp/ccBiqeit.s:308    .text:00000000000001dc .L0 
     /tmp/ccBiqeit.s:309    .text:00000000000001dc .L0 
     /tmp/ccBiqeit.s:315    .text:00000000000001e0 .L0 
     /tmp/ccBiqeit.s:316    .text:00000000000001e0 .L0 
     /tmp/ccBiqeit.s:321    .text:00000000000001e4 .L0 
GAS LISTING /tmp/ccBiqeit.s 			page 18


     /tmp/ccBiqeit.s:323    .text:00000000000001e8 .L0 
     /tmp/ccBiqeit.s:324    .text:00000000000001e8 .L0 
     /tmp/ccBiqeit.s:329    .text:00000000000001f4 .L0 
     /tmp/ccBiqeit.s:330    .text:00000000000001f4 .L0 
     /tmp/ccBiqeit.s:332    .text:00000000000001fc .L0 
     /tmp/ccBiqeit.s:334    .text:0000000000000200 .L0 
     /tmp/ccBiqeit.s:335    .text:0000000000000200 .L0 
     /tmp/ccBiqeit.s:337    .text:0000000000000204 .L0 
     /tmp/ccBiqeit.s:339    .text:0000000000000208 .L0 
     /tmp/ccBiqeit.s:349    .sbss:0000000000000000 nitC
     /tmp/ccBiqeit.s:353    .sbss:0000000000000008 nitB
     /tmp/ccBiqeit.s:357    .sbss:0000000000000010 nitA
     /tmp/ccBiqeit.s:369    .text:0000000000000208 .L0 
     /tmp/ccBiqeit.s:11     .rodata.str1.8:0000000000000000 .LC0
     /tmp/ccBiqeit.s:60     .text:0000000000000018 .L0 
     /tmp/ccBiqeit.s:95     .rodata:0000000000000000 .L6
     /tmp/ccBiqeit.s:87     .text:0000000000000058 .L0 
     /tmp/ccBiqeit.s:14     .rodata.str1.8:0000000000000020 .LC1
     /tmp/ccBiqeit.s:109    .text:0000000000000070 .L0 
     /tmp/ccBiqeit.s:17     .rodata.str1.8:0000000000000050 .LC2
     /tmp/ccBiqeit.s:137    .text:00000000000000a0 .L0 
     /tmp/ccBiqeit.s:20     .rodata.str1.8:0000000000000090 .LC3
     /tmp/ccBiqeit.s:150    .text:00000000000000bc .L0 
     /tmp/ccBiqeit.s:23     .rodata.str1.8:00000000000000d0 .LC4
     /tmp/ccBiqeit.s:163    .text:00000000000000d8 .L0 
     /tmp/ccBiqeit.s:26     .rodata.str1.8:0000000000000120 .LC5
     /tmp/ccBiqeit.s:176    .text:00000000000000f4 .L0 
     /tmp/ccBiqeit.s:29     .rodata.str1.8:0000000000000178 .LC6
     /tmp/ccBiqeit.s:189    .text:0000000000000110 .L0 
     /tmp/ccBiqeit.s:32     .rodata.str1.8:0000000000000198 .LC7
     /tmp/ccBiqeit.s:194    .text:0000000000000120 .L0 
     /tmp/ccBiqeit.s:35     .rodata.str1.8:00000000000001f0 .LC8
     /tmp/ccBiqeit.s:203    .text:0000000000000134 .L0 
     /tmp/ccBiqeit.s:231    .text:0000000000000158 .L0 
     /tmp/ccBiqeit.s:232    .text:0000000000000160 .L0 
     /tmp/ccBiqeit.s:236    .text:000000000000016c .L0 
     /tmp/ccBiqeit.s:252    .text:0000000000000188 .L0 
     /tmp/ccBiqeit.s:292    .text:00000000000001b4 .L0 
     /tmp/ccBiqeit.s:297    .text:00000000000001c0 .L0 
     /tmp/ccBiqeit.s:105    .text:0000000000000070 .L12
     /tmp/ccBiqeit.s:199    .text:0000000000000134 .L4
     /tmp/ccBiqeit.s:113    .text:0000000000000080 .L1
     /tmp/ccBiqeit.s:327    .text:00000000000001f4 .L14
     /tmp/ccBiqeit.s:305    .text:00000000000001dc .L15
     /tmp/ccBiqeit.s:128    .text:0000000000000098 .L10
     /tmp/ccBiqeit.s:142    .text:00000000000000b4 .L9
     /tmp/ccBiqeit.s:155    .text:00000000000000d0 .L8
     /tmp/ccBiqeit.s:168    .text:00000000000000ec .L7
     /tmp/ccBiqeit.s:181    .text:0000000000000108 .L5
     /tmp/ccBiqeit.s:1416   .debug_abbrev:0000000000000000 .Ldebug_abbrev0
     /tmp/ccBiqeit.s:2341   .debug_str:00000000000000e4 .LASF125
     /tmp/ccBiqeit.s:2439   .debug_str:00000000000004a3 .LASF126
     /tmp/ccBiqeit.s:2407   .debug_str:0000000000000389 .LASF127
     /tmp/ccBiqeit.s:8      .text:0000000000000000 .Ltext0
     /tmp/ccBiqeit.s:360    .text:0000000000000208 .Letext0
     /tmp/ccBiqeit.s:2305   .debug_line:0000000000000000 .Ldebug_line0
     /tmp/ccBiqeit.s:2467   .debug_str:00000000000005bb .LASF0
GAS LISTING /tmp/ccBiqeit.s 			page 19


     /tmp/ccBiqeit.s:2483   .debug_str:0000000000000637 .LASF1
     /tmp/ccBiqeit.s:2455   .debug_str:0000000000000561 .LASF2
     /tmp/ccBiqeit.s:2423   .debug_str:000000000000042f .LASF4
     /tmp/ccBiqeit.s:2523   .debug_str:000000000000076a .LASF3
     /tmp/ccBiqeit.s:2343   .debug_str:00000000000001a8 .LASF5
     /tmp/ccBiqeit.s:2485   .debug_str:000000000000064a .LASF6
     /tmp/ccBiqeit.s:2465   .debug_str:00000000000005a8 .LASF7
     /tmp/ccBiqeit.s:2555   .debug_str:0000000000000887 .LASF8
     /tmp/ccBiqeit.s:2405   .debug_str:000000000000037b .LASF9
     /tmp/ccBiqeit.s:2501   .debug_str:00000000000006d6 .LASF10
     /tmp/ccBiqeit.s:2547   .debug_str:0000000000000842 .LASF11
     /tmp/ccBiqeit.s:2347   .debug_str:00000000000001bb .LASF12
     /tmp/ccBiqeit.s:2317   .debug_str:0000000000000053 .LASF13
     /tmp/ccBiqeit.s:2353   .debug_str:00000000000001e9 .LASF14
     /tmp/ccBiqeit.s:2517   .debug_str:0000000000000733 .LASF15
     /tmp/ccBiqeit.s:2365   .debug_str:0000000000000251 .LASF16
     /tmp/ccBiqeit.s:2481   .debug_str:0000000000000631 .LASF60
     /tmp/ccBiqeit.s:2369   .debug_str:000000000000027b .LASF128
     /tmp/ccBiqeit.s:2363   .debug_str:0000000000000245 .LASF17
     /tmp/ccBiqeit.s:2441   .debug_str:00000000000004b0 .LASF18
     /tmp/ccBiqeit.s:2345   .debug_str:00000000000001af .LASF19
     /tmp/ccBiqeit.s:2515   .debug_str:0000000000000728 .LASF20
     /tmp/ccBiqeit.s:2571   .debug_str:00000000000008fb .LASF22
     /tmp/ccBiqeit.s:2417   .debug_str:0000000000000400 .LASF21
     /tmp/ccBiqeit.s:2499   .debug_str:00000000000006b8 .LASF23
     /tmp/ccBiqeit.s:2339   .debug_str:00000000000000d6 .LASF24
     /tmp/ccBiqeit.s:2383   .debug_str:00000000000002dd .LASF25
     /tmp/ccBiqeit.s:2535   .debug_str:00000000000007f4 .LASF26
     /tmp/ccBiqeit.s:2313   .debug_str:0000000000000034 .LASF27
     /tmp/ccBiqeit.s:2319   .debug_str:0000000000000063 .LASF28
     /tmp/ccBiqeit.s:2533   .debug_str:00000000000007df .LASF30
     /tmp/ccBiqeit.s:2381   .debug_str:00000000000002d4 .LASF32
     /tmp/ccBiqeit.s:2379   .debug_str:00000000000002bf .LASF34
     /tmp/ccBiqeit.s:2527   .debug_str:00000000000007a8 .LASF29
     /tmp/ccBiqeit.s:2507   .debug_str:00000000000006f3 .LASF31
     /tmp/ccBiqeit.s:2543   .debug_str:0000000000000831 .LASF33
     /tmp/ccBiqeit.s:2539   .debug_str:000000000000080c .LASF35
     /tmp/ccBiqeit.s:2397   .debug_str:0000000000000349 .LASF36
     /tmp/ccBiqeit.s:2367   .debug_str:0000000000000267 .LASF37
     /tmp/ccBiqeit.s:2311   .debug_str:000000000000002c .LASF38
     /tmp/ccBiqeit.s:2415   .debug_str:00000000000003ec .LASF39
     /tmp/ccBiqeit.s:2387   .debug_str:0000000000000300 .LASF40
     /tmp/ccBiqeit.s:2349   .debug_str:00000000000001cb .LASF41
     /tmp/ccBiqeit.s:2577   .debug_str:000000000000092a .LASF42
     /tmp/ccBiqeit.s:2389   .debug_str:0000000000000308 .LASF43
     /tmp/ccBiqeit.s:2469   .debug_str:00000000000005c8 .LASF44
     /tmp/ccBiqeit.s:2567   .debug_str:00000000000008e3 .LASF45
     /tmp/ccBiqeit.s:2337   .debug_str:00000000000000cf .LASF46
     /tmp/ccBiqeit.s:2395   .debug_str:0000000000000336 .LASF47
     /tmp/ccBiqeit.s:2403   .debug_str:0000000000000375 .LASF48
     /tmp/ccBiqeit.s:2541   .debug_str:000000000000081f .LASF49
     /tmp/ccBiqeit.s:2335   .debug_str:00000000000000c9 .LASF50
     /tmp/ccBiqeit.s:2579   .debug_str:0000000000000932 .LASF51
     /tmp/ccBiqeit.s:2575   .debug_str:000000000000091f .LASF52
     /tmp/ccBiqeit.s:2519   .debug_str:0000000000000749 .LASF53
     /tmp/ccBiqeit.s:2431   .debug_str:0000000000000465 .LASF54
     /tmp/ccBiqeit.s:2445   .debug_str:00000000000004cb .LASF55
GAS LISTING /tmp/ccBiqeit.s 			page 20


     /tmp/ccBiqeit.s:2351   .debug_str:00000000000001df .LASF56
     /tmp/ccBiqeit.s:2419   .debug_str:0000000000000411 .LASF57
     /tmp/ccBiqeit.s:2461   .debug_str:000000000000058e .LASF58
     /tmp/ccBiqeit.s:2411   .debug_str:00000000000003b9 .LASF59
     /tmp/ccBiqeit.s:2511   .debug_str:000000000000070b .LASF75
     /tmp/ccBiqeit.s:2355   .debug_str:00000000000001f5 .LASF77
     /tmp/ccBiqeit.s:2421   .debug_str:0000000000000427 .LASF61
     /tmp/ccBiqeit.s:2325   .debug_str:000000000000009c .LASF83
     /tmp/ccBiqeit.s:2385   .debug_str:00000000000002f8 .LASF129
     /tmp/ccBiqeit.s:2551   .debug_str:0000000000000864 .LASF62
     /tmp/ccBiqeit.s:2489   .debug_str:0000000000000668 .LASF64
     /tmp/ccBiqeit.s:2487   .debug_str:000000000000065d .LASF98
     /tmp/ccBiqeit.s:2453   .debug_str:0000000000000546 .LASF103
     /tmp/ccBiqeit.s:2457   .debug_str:000000000000056f .LASF63
     /tmp/ccBiqeit.s:2451   .debug_str:000000000000052b .LASF65
     /tmp/ccBiqeit.s:2559   .debug_str:00000000000008a1 .LASF66
     /tmp/ccBiqeit.s:2525   .debug_str:000000000000077c .LASF67
     /tmp/ccBiqeit.s:2503   .debug_str:00000000000006e5 .LASF130
     /tmp/ccBiqeit.s:2331   .debug_str:00000000000000b4 .LASF68
     /tmp/ccBiqeit.s:2401   .debug_str:000000000000035a .LASF69
     /tmp/ccBiqeit.s:2479   .debug_str:0000000000000616 .LASF70
     /tmp/ccBiqeit.s:2429   .debug_str:0000000000000460 .LASF71
     /tmp/ccBiqeit.s:2475   .debug_str:000000000000060b .LASF72
     /tmp/ccBiqeit.s:2433   .debug_str:0000000000000470 .LASF73
     /tmp/ccBiqeit.s:2427   .debug_str:0000000000000457 .LASF74
     /tmp/ccBiqeit.s:2563   .debug_str:00000000000008d0 .LASF131
     /tmp/ccBiqeit.s:2449   .debug_str:00000000000004ff .LASF132
     /tmp/ccBiqeit.s:2357   .debug_str:000000000000021a .LASF76
     /tmp/ccBiqeit.s:2529   .debug_str:00000000000007af .LASF78
     /tmp/ccBiqeit.s:2443   .debug_str:00000000000004bd .LASF79
     /tmp/ccBiqeit.s:2413   .debug_str:00000000000003cf .LASF80
     /tmp/ccBiqeit.s:2307   .debug_str:0000000000000000 .LASF81
     /tmp/ccBiqeit.s:2391   .debug_str:000000000000031c .LASF82
     /tmp/ccBiqeit.s:2373   .debug_str:00000000000002a2 .LASF84
     /tmp/ccBiqeit.s:2361   .debug_str:0000000000000240 .LASF85
     /tmp/ccBiqeit.s:2565   .debug_str:00000000000008de .LASF86
     /tmp/ccBiqeit.s:2513   .debug_str:0000000000000723 .LASF87
     /tmp/ccBiqeit.s:2463   .debug_str:0000000000000598 .LASF88
     /tmp/ccBiqeit.s:2557   .debug_str:0000000000000897 .LASF89
     /tmp/ccBiqeit.s:2561   .debug_str:00000000000008af .LASF90
     /tmp/ccBiqeit.s:2505   .debug_str:00000000000006ea .LASF91
     /tmp/ccBiqeit.s:2425   .debug_str:0000000000000436 .LASF92
     /tmp/ccBiqeit.s:2399   .debug_str:0000000000000351 .LASF93
     /tmp/ccBiqeit.s:2493   .debug_str:000000000000067e .LASF94
     /tmp/ccBiqeit.s:2537   .debug_str:0000000000000801 .LASF133
     /tmp/ccBiqeit.s:2545   .debug_str:0000000000000838 .LASF134
     /tmp/ccBiqeit.s:2323   .debug_str:0000000000000071 .LASF135
     /tmp/ccBiqeit.s:2377   .debug_str:00000000000002ba .LASF95
     /tmp/ccBiqeit.s:2315   .debug_str:000000000000004e .LASF96
     /tmp/ccBiqeit.s:2321   .debug_str:000000000000006c .LASF97
     /tmp/ccBiqeit.s:2495   .debug_str:000000000000069e .LASF99
     /tmp/ccBiqeit.s:214    .text:0000000000000148 .LFB34
     /tmp/ccBiqeit.s:340    .text:0000000000000208 .LFE34
     /tmp/ccBiqeit.s:2327   .debug_str:00000000000000a4 .LASF100
     /tmp/ccBiqeit.s:2329   .debug_str:00000000000000ac .LASF101
     /tmp/ccBiqeit.s:226    .text:0000000000000158 .LBB10
     /tmp/ccBiqeit.s:249    .text:0000000000000188 .LBE10
GAS LISTING /tmp/ccBiqeit.s 			page 21


     /tmp/ccBiqeit.s:254    .text:0000000000000190 .LBB12
     /tmp/ccBiqeit.s:266    .text:0000000000000194 .LBE12
     /tmp/ccBiqeit.s:268    .text:0000000000000194 .LBB14
     /tmp/ccBiqeit.s:280    .text:000000000000019c .LBE14
     /tmp/ccBiqeit.s:2268   .debug_loc:0000000000000000 .LLST1
     /tmp/ccBiqeit.s:311    .text:00000000000001e0 .LBB16
     /tmp/ccBiqeit.s:319    .text:00000000000001e4 .LBE16
     /tmp/ccBiqeit.s:2276   .debug_loc:0000000000000024 .LLST2
     /tmp/ccBiqeit.s:288    .text:00000000000001b0 .LVL20
     /tmp/ccBiqeit.s:300    .text:00000000000001d4 .LVL21
     /tmp/ccBiqeit.s:304    .text:00000000000001dc .LVL22
     /tmp/ccBiqeit.s:325    .text:00000000000001f0 .LVL25
     /tmp/ccBiqeit.s:2333   .debug_str:00000000000000c0 .LASF102
     /tmp/ccBiqeit.s:2435   .debug_str:0000000000000478 .LASF104
     /tmp/ccBiqeit.s:42     .text:0000000000000000 .LFB33
     /tmp/ccBiqeit.s:208    .text:0000000000000148 .LFE33
     /tmp/ccBiqeit.s:2477   .debug_str:0000000000000611 .LASF105
     /tmp/ccBiqeit.s:2283   .debug_loc:0000000000000047 .LLST0
     /tmp/ccBiqeit.s:62     .text:0000000000000028 .LVL0
     /tmp/ccBiqeit.s:66     .text:0000000000000030 .LVL1
     /tmp/ccBiqeit.s:74     .text:0000000000000040 .LVL3
     /tmp/ccBiqeit.s:111    .text:0000000000000080 .LVL4
     /tmp/ccBiqeit.s:134    .text:00000000000000a0 .LVL5
     /tmp/ccBiqeit.s:139    .text:00000000000000b0 .LVL6
     /tmp/ccBiqeit.s:147    .text:00000000000000bc .LVL7
     /tmp/ccBiqeit.s:152    .text:00000000000000cc .LVL8
     /tmp/ccBiqeit.s:160    .text:00000000000000d8 .LVL9
     /tmp/ccBiqeit.s:165    .text:00000000000000e8 .LVL10
     /tmp/ccBiqeit.s:173    .text:00000000000000f4 .LVL11
     /tmp/ccBiqeit.s:178    .text:0000000000000104 .LVL12
     /tmp/ccBiqeit.s:186    .text:0000000000000110 .LVL13
     /tmp/ccBiqeit.s:191    .text:0000000000000120 .LVL14
     /tmp/ccBiqeit.s:196    .text:0000000000000130 .LVL15
     /tmp/ccBiqeit.s:205    .text:0000000000000144 .LVL16
     /tmp/ccBiqeit.s:2569   .debug_str:00000000000008f6 .LASF136
     /tmp/ccBiqeit.s:2409   .debug_str:00000000000003b4 .LASF106
     /tmp/ccBiqeit.s:2491   .debug_str:0000000000000678 .LASF107
     /tmp/ccBiqeit.s:2471   .debug_str:00000000000005cf .LASF108
     /tmp/ccBiqeit.s:2375   .debug_str:00000000000002ac .LASF110
     /tmp/ccBiqeit.s:2393   .debug_str:0000000000000321 .LASF109
     /tmp/ccBiqeit.s:2459   .debug_str:000000000000057b .LASF111
     /tmp/ccBiqeit.s:2573   .debug_str:0000000000000913 .LASF112
     /tmp/ccBiqeit.s:2521   .debug_str:0000000000000761 .LASF113
     /tmp/ccBiqeit.s:2509   .debug_str:0000000000000706 .LASF114
     /tmp/ccBiqeit.s:2371   .debug_str:000000000000028a .LASF115
     /tmp/ccBiqeit.s:2549   .debug_str:0000000000000851 .LASF116
     /tmp/ccBiqeit.s:2553   .debug_str:000000000000086d .LASF117
     /tmp/ccBiqeit.s:2497   .debug_str:00000000000006a3 .LASF118
     /tmp/ccBiqeit.s:2447   .debug_str:00000000000004e3 .LASF119
     /tmp/ccBiqeit.s:2473   .debug_str:00000000000005f4 .LASF120
     /tmp/ccBiqeit.s:2309   .debug_str:0000000000000009 .LASF121
     /tmp/ccBiqeit.s:2437   .debug_str:0000000000000485 .LASF122
     /tmp/ccBiqeit.s:2359   .debug_str:000000000000022a .LASF123
     /tmp/ccBiqeit.s:2531   .debug_str:00000000000007ce .LASF124
     /tmp/ccBiqeit.s:263    .text:0000000000000194 .LVL18
     /tmp/ccBiqeit.s:277    .text:000000000000019c .LVL19
     /tmp/ccBiqeit.s:310    .text:00000000000001e0 .LVL23
GAS LISTING /tmp/ccBiqeit.s 			page 22


     /tmp/ccBiqeit.s:317    .text:00000000000001e4 .LVL24
     /tmp/ccBiqeit.s:70     .text:0000000000000038 .LVL2
     /tmp/ccBiqeit.s:370    .debug_info:0000000000000000 .Ldebug_info0

UNDEFINED SYMBOLS
_Z11printStringPKc
_Z4getcv
_Z18Threads_C_API_testv
_Z20Threads_CPP_API_testv
_Z22producerConsumer_C_APIv
_Z29producerConsumer_CPP_Sync_APIv
_Z16System_Mode_testv
HEAP_START_ADDR
_ZN15MemoryAllocator10free_BlockE
HEAP_END_ADDR
_ZN5Riscv16interruptRoutineEv
_Z13thread_createPP7_threadPFvPvES2_
_ZN7_thread7runningE
_Z15thread_dispatchv
