GAS LISTING /tmp/ccQjYMtJ.s 			page 1


   1              		.file	"main.cpp"
   2              		.option nopic
   3              		.option norelax
   4              		.attribute arch, "rv64i2p0_m2p0_a2p0"
   5              		.attribute unaligned_access, 0
   6              		.attribute stack_align, 16
   7              		.text
   8              	.Ltext0:
   9              		.section	.rodata.str1.8,"aMS",@progbits,1
  10              		.align	3
  11              	.LC0:
  12 0000 556E6573 		.string	"Unesite broj testa? [1-7]\n"
  12      69746520 
  12      62726F6A 
  12      20746573 
  12      74613F20 
  13 001b 00000000 		.align	3
  13      00
  14              	.LC1:
  15 0020 4E696A65 		.string	"Nije navedeno da je zadatak 3 implementiran\n"
  15      206E6176 
  15      6564656E 
  15      6F206461 
  15      206A6520 
  16 004d 000000   		.align	3
  17              	.LC2:
  18 0050 4E696A65 		.string	"Nije navedeno da je zadatak 4 implementiran\n"
  18      206E6176 
  18      6564656E 
  18      6F206461 
  18      206A6520 
  19 007d 000000   		.align	3
  20              	.LC3:
  21 0080 54455354 		.string	"TEST 1 (zadatak 2, niti C API i sinhrona promena konteksta)\n"
  21      20312028 
  21      7A616461 
  21      74616B20 
  21      322C206E 
  22 00bd 000000   		.align	3
  23              	.LC4:
  24 00c0 54455354 		.string	"TEST 2 (zadatak 2., niti CPP API i sinhrona promena konteksta)\n"
  24      20322028 
  24      7A616461 
  24      74616B20 
  24      322E2C20 
  25              		.align	3
  26              	.LC5:
  27 0100 54657374 		.string	"Test se nije uspesno zavrsio\n"
  27      20736520 
  27      6E696A65 
  27      20757370 
  27      65736E6F 
  28 011e 0000     		.align	3
  29              	.LC6:
  30 0120 54455354 		.string	"TEST 7 (zadatak 2., testiranje da li se korisnicki kod izvrsava u korisnickom rezimu)\n"
  30      20372028 
  30      7A616461 
GAS LISTING /tmp/ccQjYMtJ.s 			page 2


  30      74616B20 
  30      322E2C20 
  31 0177 00       		.align	3
  32              	.LC7:
  33 0178 4E697374 		.string	"Niste uneli odgovarajuci broj za test\n"
  33      6520756E 
  33      656C6920 
  33      6F64676F 
  33      76617261 
  34              		.text
  35              		.align	2
  36              		.globl	_Z8userMainv
  38              	_Z8userMainv:
  39              	.LFB32:
  40              		.file 1 "src/main.cpp"
   1:src/main.cpp  **** #include "../h/riscv.hpp"
   2:src/main.cpp  **** #include "../h/_thread.hpp"
   3:src/main.cpp  **** #include "../h/syscall_c.hpp"
   4:src/main.cpp  **** #include "../test/printing.hpp"
   5:src/main.cpp  **** 
   6:src/main.cpp  **** //#include "../test/userMain.cpp"
   7:src/main.cpp  **** thread_t nitA;
   8:src/main.cpp  **** thread_t nitB;
   9:src/main.cpp  **** thread_t nitC;
  10:src/main.cpp  **** 
  11:src/main.cpp  **** 
  12:src/main.cpp  **** 
  13:src/main.cpp  **** 
  14:src/main.cpp  **** #define LEVEL_1_IMPLEMENTED 1
  15:src/main.cpp  **** #define LEVEL_2_IMPLEMENTED 1
  16:src/main.cpp  **** #define LEVEL_3_IMPLEMENTED 0
  17:src/main.cpp  **** #define LEVEL_4_IMPLEMENTED 0
  18:src/main.cpp  **** 
  19:src/main.cpp  **** #if LEVEL_2_IMPLEMENTED == 1
  20:src/main.cpp  **** // TEST 1 (zadatak 2, niti C API i sinhrona promena konteksta)
  21:src/main.cpp  **** #include "../test/Threads_C_API_test.hpp"
  22:src/main.cpp  **** // TEST 2 (zadatak 2., niti CPP API i sinhrona promena konteksta)
  23:src/main.cpp  **** //#include "../test/Threads_CPP_API_test.hpp"
  24:src/main.cpp  **** // TEST 7 (zadatak 2., testiranje da li se korisnicki kod izvrsava u korisnickom rezimu)
  25:src/main.cpp  **** //#include "../test/System_Mode_test.hpp"
  26:src/main.cpp  **** #endif
  27:src/main.cpp  **** 
  28:src/main.cpp  **** #if LEVEL_3_IMPLEMENTED == 1
  29:src/main.cpp  **** // TEST 3 (zadatak 3., kompletan C API sa semaforima, sinhrona promena konteksta)
  30:src/main.cpp  **** #include "../test/ConsumerProducer_C_API_test.hpp"
  31:src/main.cpp  **** // TEST 4 (zadatak 3., kompletan CPP API sa semaforima, sinhrona promena konteksta)
  32:src/main.cpp  **** #include "../test/ConsumerProducer_CPP_Sync_API_test.hpp"
  33:src/main.cpp  **** #endif
  34:src/main.cpp  **** 
  35:src/main.cpp  **** #if LEVEL_4_IMPLEMENTED == 1
  36:src/main.cpp  **** // TEST 5 (zadatak 4., thread_sleep test C API)
  37:src/main.cpp  **** #include "../test/ThreadSleep_C_API_test.hpp"
  38:src/main.cpp  **** // TEST 6 (zadatak 4. CPP API i asinhrona promena konteksta)
  39:src/main.cpp  **** #include "../test/ConsumerProducer_CPP_API_test.hpp"
  40:src/main.cpp  **** #include "System_Mode_test.hpp"
  41:src/main.cpp  **** 
  42:src/main.cpp  **** #endif
GAS LISTING /tmp/ccQjYMtJ.s 			page 3


  43:src/main.cpp  **** 
  44:src/main.cpp  **** void userMain() {
  41              		.loc 1 44 17
  42              		.cfi_startproc
  43 0000 130101FE 		addi	sp,sp,-32
  44              		.cfi_def_cfa_offset 32
  45 0004 233C1100 		sd	ra,24(sp)
  46 0008 23388100 		sd	s0,16(sp)
  47 000c 23349100 		sd	s1,8(sp)
  48 0010 23302101 		sd	s2,0(sp)
  49              		.cfi_offset 1, -8
  50              		.cfi_offset 8, -16
  51              		.cfi_offset 9, -24
  52              		.cfi_offset 18, -32
  53 0014 13040102 		addi	s0,sp,32
  54              		.cfi_def_cfa 8, 0
  45:src/main.cpp  ****     printString("Unesite broj testa? [1-7]\n");
  55              		.loc 1 45 5
  56              		.loc 1 45 16 is_stmt 0
  57 0018 17050000 		lla	a0,.LC0
  57      13050500 
  58 0020 97000000 		call	_Z11printStringPKc
  58      E7800000 
  59              	.LVL0:
  46:src/main.cpp  ****     int test = getc() - '0';
  60              		.loc 1 46 5 is_stmt 1
  61              		.loc 1 46 20 is_stmt 0
  62 0028 97000000 		call	_Z4getcv
  62      E7800000 
  63              	.LVL1:
  64 0030 1B090500 		sext.w	s2,a0
  65              		.loc 1 46 25
  66 0034 9B0405FD 		addiw	s1,a0,-48
  67              	.LVL2:
  47:src/main.cpp  ****     getc(); // Enter posle broja
  68              		.loc 1 47 5 is_stmt 1
  69              		.loc 1 47 9 is_stmt 0
  70 0038 97000000 		call	_Z4getcv
  70      E7800000 
  71              	.LVL3:
  48:src/main.cpp  **** 
  49:src/main.cpp  ****     if ((test >= 1 && test <= 2) || test == 7) {
  72              		.loc 1 49 5 is_stmt 1
  50:src/main.cpp  ****         if (LEVEL_2_IMPLEMENTED == 0) {
  51:src/main.cpp  ****             printString("Nije navedeno da je zadatak 2 implementiran\n");
  52:src/main.cpp  ****             return;
  53:src/main.cpp  ****         }
  54:src/main.cpp  ****     }
  55:src/main.cpp  **** 
  56:src/main.cpp  ****     if (test >= 3 && test <= 4) {
  73              		.loc 1 56 5
  74              		.loc 1 56 19 is_stmt 0
  75 0040 1B07D9FC 		addiw	a4,s2,-51
  76              		.loc 1 56 5
  77 0044 93071000 		li	a5,1
  78 0048 63F2E704 		bleu	a4,a5,.L11
  57:src/main.cpp  ****         if (LEVEL_3_IMPLEMENTED == 0) {
GAS LISTING /tmp/ccQjYMtJ.s 			page 4


  58:src/main.cpp  ****             printString("Nije navedeno da je zadatak 3 implementiran\n");
  59:src/main.cpp  ****             return;
  60:src/main.cpp  ****         }
  61:src/main.cpp  ****     }
  62:src/main.cpp  **** 
  63:src/main.cpp  ****     if (test >= 5 && test <= 6) {
  79              		.loc 1 63 5 is_stmt 1
  80              		.loc 1 63 19 is_stmt 0
  81 004c 1B09B9FC 		addiw	s2,s2,-53
  82              	.LVL4:
  83              		.loc 1 63 5
  84 0050 93071000 		li	a5,1
  85 0054 63F02707 		bleu	s2,a5,.L12
  64:src/main.cpp  ****         if (LEVEL_4_IMPLEMENTED == 0) {
  65:src/main.cpp  ****             printString("Nije navedeno da je zadatak 4 implementiran\n");
  66:src/main.cpp  ****             return;
  67:src/main.cpp  ****         }
  68:src/main.cpp  ****     }
  69:src/main.cpp  **** 
  70:src/main.cpp  ****     switch (test) {
  86              		.loc 1 70 5 is_stmt 1
  87 0058 93076000 		li	a5,6
  88 005c 63C69706 		bgt	s1,a5,.L5
  89 0060 93073000 		li	a5,3
  90 0064 63DCF402 		bge	s1,a5,.L1
  91 0068 93071000 		li	a5,1
  92 006c 6384F408 		beq	s1,a5,.L6
  93 0070 93072000 		li	a5,2
  94 0074 639EF408 		bne	s1,a5,.L8
  71:src/main.cpp  ****         case 1:
  72:src/main.cpp  **** #if LEVEL_2_IMPLEMENTED == 1
  73:src/main.cpp  ****             Threads_C_API_test();
  74:src/main.cpp  ****             printString("TEST 1 (zadatak 2, niti C API i sinhrona promena konteksta)\n");
  75:src/main.cpp  **** #endif
  76:src/main.cpp  ****             break;
  77:src/main.cpp  ****         case 2:
  95              		.loc 1 77 9
  78:src/main.cpp  **** #if LEVEL_2_IMPLEMENTED == 1
  79:src/main.cpp  ****             //Threads_CPP_API_test();
  80:src/main.cpp  ****             printString("TEST 2 (zadatak 2., niti CPP API i sinhrona promena konteksta)\n");
  96              		.loc 1 80 13
  97              		.loc 1 80 24 is_stmt 0
  98 0078 17050000 		lla	a0,.LC4
  98      13050500 
  99 0080 97000000 		call	_Z11printStringPKc
  99      E7800000 
 100              	.LVL5:
  81:src/main.cpp  **** #endif
  82:src/main.cpp  ****             break;
 101              		.loc 1 82 13 is_stmt 1
 102 0088 6F004001 		j	.L1
 103              	.LVL6:
 104              	.L11:
  57:src/main.cpp  ****             printString("Nije navedeno da je zadatak 3 implementiran\n");
 105              		.loc 1 57 9
  58:src/main.cpp  ****             return;
 106              		.loc 1 58 13
GAS LISTING /tmp/ccQjYMtJ.s 			page 5


  58:src/main.cpp  ****             return;
 107              		.loc 1 58 24 is_stmt 0
 108 008c 17050000 		lla	a0,.LC1
 108      13050500 
 109 0094 97000000 		call	_Z11printStringPKc
 109      E7800000 
 110              	.LVL7:
  59:src/main.cpp  ****         }
 111              		.loc 1 59 13 is_stmt 1
 112              	.L1:
  83:src/main.cpp  ****         case 3:
  84:src/main.cpp  **** #if LEVEL_3_IMPLEMENTED == 1
  85:src/main.cpp  ****             producerConsumer_C_API();
  86:src/main.cpp  ****             printString("TEST 3 (zadatak 3., kompletan C API sa semaforima, sinhrona promena kontek
  87:src/main.cpp  **** #endif
  88:src/main.cpp  ****             break;
  89:src/main.cpp  ****         case 4:
  90:src/main.cpp  **** #if LEVEL_3_IMPLEMENTED == 1
  91:src/main.cpp  ****             producerConsumer_CPP_Sync_API();
  92:src/main.cpp  ****             printString("TEST 4 (zadatak 3., kompletan CPP API sa semaforima, sinhrona promena kont
  93:src/main.cpp  **** #endif
  94:src/main.cpp  ****             break;
  95:src/main.cpp  ****         case 5:
  96:src/main.cpp  **** #if LEVEL_4_IMPLEMENTED == 1
  97:src/main.cpp  ****             testSleeping();
  98:src/main.cpp  ****             printString("TEST 5 (zadatak 4., thread_sleep test C API)\n");
  99:src/main.cpp  **** #endif
 100:src/main.cpp  ****             break;
 101:src/main.cpp  ****         case 6:
 102:src/main.cpp  **** #if LEVEL_4_IMPLEMENTED == 1
 103:src/main.cpp  ****             testConsumerProducer();
 104:src/main.cpp  ****             printString("TEST 6 (zadatak 4. CPP API i asinhrona promena konteksta)\n");
 105:src/main.cpp  **** #endif
 106:src/main.cpp  ****             break;
 107:src/main.cpp  ****         case 7:
 108:src/main.cpp  **** #if LEVEL_2_IMPLEMENTED == 1
 109:src/main.cpp  ****             //System_Mode_test();
 110:src/main.cpp  ****             printString("Test se nije uspesno zavrsio\n");
 111:src/main.cpp  ****             printString("TEST 7 (zadatak 2., testiranje da li se korisnicki kod izvrsava u korisnic
 112:src/main.cpp  **** #endif
 113:src/main.cpp  ****             break;
 114:src/main.cpp  ****         default:
 115:src/main.cpp  ****             printString("Niste uneli odgovarajuci broj za test\n");
 116:src/main.cpp  ****     }
 117:src/main.cpp  **** }
 113              		.loc 1 117 1 is_stmt 0
 114 009c 83308101 		ld	ra,24(sp)
 115              		.cfi_remember_state
 116              		.cfi_restore 1
 117 00a0 03340101 		ld	s0,16(sp)
 118              		.cfi_restore 8
 119              		.cfi_def_cfa 2, 32
 120 00a4 83348100 		ld	s1,8(sp)
 121              		.cfi_restore 9
 122 00a8 03390100 		ld	s2,0(sp)
 123              		.cfi_restore 18
 124 00ac 13010102 		addi	sp,sp,32
GAS LISTING /tmp/ccQjYMtJ.s 			page 6


 125              		.cfi_def_cfa_offset 0
 126 00b0 67800000 		jr	ra
 127              	.L12:
 128              		.cfi_restore_state
  64:src/main.cpp  ****             printString("Nije navedeno da je zadatak 4 implementiran\n");
 129              		.loc 1 64 9 is_stmt 1
  65:src/main.cpp  ****             return;
 130              		.loc 1 65 13
  65:src/main.cpp  ****             return;
 131              		.loc 1 65 24 is_stmt 0
 132 00b4 17050000 		lla	a0,.LC2
 132      13050500 
 133 00bc 97000000 		call	_Z11printStringPKc
 133      E7800000 
 134              	.LVL8:
  66:src/main.cpp  ****         }
 135              		.loc 1 66 13 is_stmt 1
 136 00c4 6FF09FFD 		j	.L1
 137              	.L5:
  70:src/main.cpp  ****         case 1:
 138              		.loc 1 70 5 is_stmt 0
 139 00c8 93077000 		li	a5,7
 140 00cc 6392F404 		bne	s1,a5,.L8
 107:src/main.cpp  **** #if LEVEL_2_IMPLEMENTED == 1
 141              		.loc 1 107 9 is_stmt 1
 110:src/main.cpp  ****             printString("TEST 7 (zadatak 2., testiranje da li se korisnicki kod izvrsava u korisnic
 142              		.loc 1 110 13
 110:src/main.cpp  ****             printString("TEST 7 (zadatak 2., testiranje da li se korisnicki kod izvrsava u korisnic
 143              		.loc 1 110 24 is_stmt 0
 144 00d0 17050000 		lla	a0,.LC5
 144      13050500 
 145 00d8 97000000 		call	_Z11printStringPKc
 145      E7800000 
 146              	.LVL9:
 111:src/main.cpp  **** #endif
 147              		.loc 1 111 13 is_stmt 1
 111:src/main.cpp  **** #endif
 148              		.loc 1 111 24 is_stmt 0
 149 00e0 17050000 		lla	a0,.LC6
 149      13050500 
 150 00e8 97000000 		call	_Z11printStringPKc
 150      E7800000 
 151              	.LVL10:
 113:src/main.cpp  ****         default:
 152              		.loc 1 113 13 is_stmt 1
 153 00f0 6FF0DFFA 		j	.L1
 154              	.L6:
  71:src/main.cpp  **** #if LEVEL_2_IMPLEMENTED == 1
 155              		.loc 1 71 9
  73:src/main.cpp  ****             printString("TEST 1 (zadatak 2, niti C API i sinhrona promena konteksta)\n");
 156              		.loc 1 73 13
  73:src/main.cpp  ****             printString("TEST 1 (zadatak 2, niti C API i sinhrona promena konteksta)\n");
 157              		.loc 1 73 31 is_stmt 0
 158 00f4 97000000 		call	_Z18Threads_C_API_testv
 158      E7800000 
 159              	.LVL11:
  74:src/main.cpp  **** #endif
GAS LISTING /tmp/ccQjYMtJ.s 			page 7


 160              		.loc 1 74 13 is_stmt 1
  74:src/main.cpp  **** #endif
 161              		.loc 1 74 24 is_stmt 0
 162 00fc 17050000 		lla	a0,.LC3
 162      13050500 
 163 0104 97000000 		call	_Z11printStringPKc
 163      E7800000 
 164              	.LVL12:
  76:src/main.cpp  ****         case 2:
 165              		.loc 1 76 13 is_stmt 1
 166 010c 6FF01FF9 		j	.L1
 167              	.L8:
 114:src/main.cpp  ****             printString("Niste uneli odgovarajuci broj za test\n");
 168              		.loc 1 114 9
 115:src/main.cpp  ****     }
 169              		.loc 1 115 13
 115:src/main.cpp  ****     }
 170              		.loc 1 115 24 is_stmt 0
 171 0110 17050000 		lla	a0,.LC7
 171      13050500 
 172 0118 97000000 		call	_Z11printStringPKc
 172      E7800000 
 173              	.LVL13:
 174 0120 6FF0DFF7 		j	.L1
 175              		.cfi_endproc
 176              	.LFE32:
 178              		.section	.rodata.str1.8
 179 019f 00       		.align	3
 180              	.LC8:
 181 01a0 410A00   		.string	"A\n"
 182 01a3 00000000 		.align	3
 182      00
 183              	.LC9:
 184 01a8 0A00     		.string	"\n"
 185              		.text
 186              		.align	2
 187              		.globl	_Z2faPv
 189              	_Z2faPv:
 190              	.LFB33:
 118:src/main.cpp  **** 
 119:src/main.cpp  **** void fa(void*){
 191              		.loc 1 119 15 is_stmt 1
 192              		.cfi_startproc
 193 0124 130101FE 		addi	sp,sp,-32
 194              		.cfi_def_cfa_offset 32
 195 0128 233C1100 		sd	ra,24(sp)
 196 012c 23388100 		sd	s0,16(sp)
 197 0130 23349100 		sd	s1,8(sp)
 198              		.cfi_offset 1, -8
 199              		.cfi_offset 8, -16
 200              		.cfi_offset 9, -24
 201 0134 13040102 		addi	s0,sp,32
 202              		.cfi_def_cfa 8, 0
 120:src/main.cpp  ****     //running je nitA
 121:src/main.cpp  ****     //threadJoin(nitB);
 122:src/main.cpp  ****     for(int i=0;i<10;i++){
 203              		.loc 1 122 5
GAS LISTING /tmp/ccQjYMtJ.s 			page 8


 204              	.LVL14:
 205              	.LBB23:
 206              		.loc 1 122 13 is_stmt 0
 207 0138 93040000 		li	s1,0
 208              	.LVL15:
 209              	.L15:
 210              		.loc 1 122 18 is_stmt 1 discriminator 3
 211 013c 93079000 		li	a5,9
 212 0140 63CE9700 		bgt	s1,a5,.L14
 123:src/main.cpp  ****         printString("A\n");
 213              		.loc 1 123 9 discriminator 2
 214              		.loc 1 123 20 is_stmt 0 discriminator 2
 215 0144 17050000 		lla	a0,.LC8
 215      13050500 
 216 014c 97000000 		call	_Z11printStringPKc
 216      E7800000 
 217              	.LVL16:
 122:src/main.cpp  ****         printString("A\n");
 218              		.loc 1 122 5 is_stmt 1 discriminator 2
 219 0154 9B841400 		addiw	s1,s1,1
 220              	.LVL17:
 221 0158 6FF05FFE 		j	.L15
 222              	.LVL18:
 223              	.L14:
 224              	.LBE23:
 124:src/main.cpp  **** 
 125:src/main.cpp  ****     }
 126:src/main.cpp  ****     printString("\n");
 225              		.loc 1 126 5
 226              		.loc 1 126 16 is_stmt 0
 227 015c 17050000 		lla	a0,.LC9
 227      13050500 
 228 0164 97000000 		call	_Z11printStringPKc
 228      E7800000 
 229              	.LVL19:
 127:src/main.cpp  ****     _thread::running->setFinished(true);
 230              		.loc 1 127 5 is_stmt 1
 231              	.LBB24:
 232              	.LBB25:
 233              		.file 2 "src/../h/_thread.hpp"
   1:src/../h/_thread.hpp **** //
   2:src/../h/_thread.hpp **** // Created by basara on 19.6.24..
   3:src/../h/_thread.hpp **** //
   4:src/../h/_thread.hpp **** 
   5:src/../h/_thread.hpp **** #ifndef PROJECT_BASE_HPP
   6:src/../h/_thread.hpp **** #define PROJECT_BASE_HPP
   7:src/../h/_thread.hpp **** 
   8:src/../h/_thread.hpp **** #include "../lib/hw.h"
   9:src/../h/_thread.hpp **** #include "scheduler.hpp"
  10:src/../h/_thread.hpp **** 
  11:src/../h/_thread.hpp **** typedef _thread* thread_t;
  12:src/../h/_thread.hpp **** class _thread{
  13:src/../h/_thread.hpp **** public:
  14:src/../h/_thread.hpp ****     static _thread *running;
  15:src/../h/_thread.hpp **** 
  16:src/../h/_thread.hpp ****     ~_thread() {delete[] stack;}
  17:src/../h/_thread.hpp **** 
GAS LISTING /tmp/ccQjYMtJ.s 			page 9


  18:src/../h/_thread.hpp ****     bool isFinished() const { return finished; }
  19:src/../h/_thread.hpp **** 
  20:src/../h/_thread.hpp ****     void setFinished(bool fin) { _thread::finished = fin; }
 234              		.loc 2 20 34
 235              		.loc 2 20 52 is_stmt 0
 236 016c 97070000 		ld	a5,_ZN7_thread7runningE
 236      83B70700 
 237 0174 13071000 		li	a4,1
 238 0178 2384E702 		sb	a4,40(a5)
 239              	.LVL20:
 240              	.LBE25:
 241              	.LBE24:
 128:src/main.cpp  ****     thread_dispatch();
 242              		.loc 1 128 5 is_stmt 1
 243              		.loc 1 128 20 is_stmt 0
 244 017c 97000000 		call	_Z15thread_dispatchv
 244      E7800000 
 245              	.LVL21:
 129:src/main.cpp  **** }
 246              		.loc 1 129 1
 247 0184 83308101 		ld	ra,24(sp)
 248              		.cfi_restore 1
 249 0188 03340101 		ld	s0,16(sp)
 250              		.cfi_restore 8
 251              		.cfi_def_cfa 2, 32
 252 018c 83348100 		ld	s1,8(sp)
 253              		.cfi_restore 9
 254              	.LVL22:
 255 0190 13010102 		addi	sp,sp,32
 256              		.cfi_def_cfa_offset 0
 257 0194 67800000 		jr	ra
 258              		.cfi_endproc
 259              	.LFE33:
 261              		.section	.rodata.str1.8
 262 01aa 00000000 		.align	3
 262      0000
 263              	.LC10:
 264 01b0 420A00   		.string	"B\n"
 265              		.text
 266              		.align	2
 267              		.globl	_Z2fbPv
 269              	_Z2fbPv:
 270              	.LFB34:
 130:src/main.cpp  **** 
 131:src/main.cpp  **** void fb(void*){
 271              		.loc 1 131 15 is_stmt 1
 272              		.cfi_startproc
 273 0198 130101FE 		addi	sp,sp,-32
 274              		.cfi_def_cfa_offset 32
 275 019c 233C1100 		sd	ra,24(sp)
 276 01a0 23388100 		sd	s0,16(sp)
 277 01a4 23349100 		sd	s1,8(sp)
 278              		.cfi_offset 1, -8
 279              		.cfi_offset 8, -16
 280              		.cfi_offset 9, -24
 281 01a8 13040102 		addi	s0,sp,32
 282              		.cfi_def_cfa 8, 0
GAS LISTING /tmp/ccQjYMtJ.s 			page 10


 132:src/main.cpp  ****     //threadJoin(nitC);
 133:src/main.cpp  ****     for(int i=0;i<10;i++){
 283              		.loc 1 133 5
 284              	.LVL23:
 285              	.LBB26:
 286              		.loc 1 133 13 is_stmt 0
 287 01ac 93040000 		li	s1,0
 288              	.LVL24:
 289              	.L19:
 290              		.loc 1 133 18 is_stmt 1 discriminator 3
 291 01b0 93079000 		li	a5,9
 292 01b4 63CE9700 		bgt	s1,a5,.L18
 134:src/main.cpp  ****         printString("B\n");
 293              		.loc 1 134 9 discriminator 2
 294              		.loc 1 134 20 is_stmt 0 discriminator 2
 295 01b8 17050000 		lla	a0,.LC10
 295      13050500 
 296 01c0 97000000 		call	_Z11printStringPKc
 296      E7800000 
 297              	.LVL25:
 133:src/main.cpp  ****         printString("B\n");
 298              		.loc 1 133 5 is_stmt 1 discriminator 2
 299 01c8 9B841400 		addiw	s1,s1,1
 300              	.LVL26:
 301 01cc 6FF05FFE 		j	.L19
 302              	.LVL27:
 303              	.L18:
 304              	.LBE26:
 135:src/main.cpp  **** 
 136:src/main.cpp  ****     }
 137:src/main.cpp  ****     printString("\n");
 305              		.loc 1 137 5
 306              		.loc 1 137 16 is_stmt 0
 307 01d0 17050000 		lla	a0,.LC9
 307      13050500 
 308 01d8 97000000 		call	_Z11printStringPKc
 308      E7800000 
 309              	.LVL28:
 138:src/main.cpp  ****     _thread::running->setFinished(true);
 310              		.loc 1 138 5 is_stmt 1
 311              	.LBB27:
 312              	.LBB28:
 313              		.loc 2 20 34
 314              		.loc 2 20 52 is_stmt 0
 315 01e0 97070000 		ld	a5,_ZN7_thread7runningE
 315      83B70700 
 316 01e8 13071000 		li	a4,1
 317 01ec 2384E702 		sb	a4,40(a5)
 318              	.LVL29:
 319              	.LBE28:
 320              	.LBE27:
 139:src/main.cpp  ****     thread_dispatch();
 321              		.loc 1 139 5 is_stmt 1
 322              		.loc 1 139 20 is_stmt 0
 323 01f0 97000000 		call	_Z15thread_dispatchv
 323      E7800000 
 324              	.LVL30:
GAS LISTING /tmp/ccQjYMtJ.s 			page 11


 140:src/main.cpp  **** }
 325              		.loc 1 140 1
 326 01f8 83308101 		ld	ra,24(sp)
 327              		.cfi_restore 1
 328 01fc 03340101 		ld	s0,16(sp)
 329              		.cfi_restore 8
 330              		.cfi_def_cfa 2, 32
 331 0200 83348100 		ld	s1,8(sp)
 332              		.cfi_restore 9
 333              	.LVL31:
 334 0204 13010102 		addi	sp,sp,32
 335              		.cfi_def_cfa_offset 0
 336 0208 67800000 		jr	ra
 337              		.cfi_endproc
 338              	.LFE34:
 340              		.section	.rodata.str1.8
 341 01b3 00000000 		.align	3
 341      00
 342              	.LC11:
 343 01b8 430A00   		.string	"C\n"
 344              		.text
 345              		.align	2
 346              		.globl	_Z2fcPv
 348              	_Z2fcPv:
 349              	.LFB35:
 141:src/main.cpp  **** 
 142:src/main.cpp  **** void fc(void*){
 350              		.loc 1 142 15 is_stmt 1
 351              		.cfi_startproc
 352 020c 130101FE 		addi	sp,sp,-32
 353              		.cfi_def_cfa_offset 32
 354 0210 233C1100 		sd	ra,24(sp)
 355 0214 23388100 		sd	s0,16(sp)
 356 0218 23349100 		sd	s1,8(sp)
 357              		.cfi_offset 1, -8
 358              		.cfi_offset 8, -16
 359              		.cfi_offset 9, -24
 360 021c 13040102 		addi	s0,sp,32
 361              		.cfi_def_cfa 8, 0
 143:src/main.cpp  ****     for(int i=0;i<10;i++){
 362              		.loc 1 143 5
 363              	.LVL32:
 364              	.LBB29:
 365              		.loc 1 143 13 is_stmt 0
 366 0220 93040000 		li	s1,0
 367              	.LVL33:
 368              	.L23:
 369              		.loc 1 143 18 is_stmt 1 discriminator 3
 370 0224 93079000 		li	a5,9
 371 0228 63CE9700 		bgt	s1,a5,.L22
 144:src/main.cpp  ****         printString("C\n");
 372              		.loc 1 144 9 discriminator 2
 373              		.loc 1 144 20 is_stmt 0 discriminator 2
 374 022c 17050000 		lla	a0,.LC11
 374      13050500 
 375 0234 97000000 		call	_Z11printStringPKc
 375      E7800000 
GAS LISTING /tmp/ccQjYMtJ.s 			page 12


 376              	.LVL34:
 143:src/main.cpp  ****     for(int i=0;i<10;i++){
 377              		.loc 1 143 5 is_stmt 1 discriminator 2
 378 023c 9B841400 		addiw	s1,s1,1
 379              	.LVL35:
 380 0240 6FF05FFE 		j	.L23
 381              	.LVL36:
 382              	.L22:
 383              	.LBE29:
 145:src/main.cpp  **** 
 146:src/main.cpp  ****     }
 147:src/main.cpp  ****     printString("\n");
 384              		.loc 1 147 5
 385              		.loc 1 147 16 is_stmt 0
 386 0244 17050000 		lla	a0,.LC9
 386      13050500 
 387 024c 97000000 		call	_Z11printStringPKc
 387      E7800000 
 388              	.LVL37:
 148:src/main.cpp  **** 
 149:src/main.cpp  ****     _thread::running->setFinished(true);
 389              		.loc 1 149 5 is_stmt 1
 390              	.LBB30:
 391              	.LBB31:
 392              		.loc 2 20 34
 393              		.loc 2 20 52 is_stmt 0
 394 0254 97070000 		ld	a5,_ZN7_thread7runningE
 394      83B70700 
 395 025c 13071000 		li	a4,1
 396 0260 2384E702 		sb	a4,40(a5)
 397              	.LVL38:
 398              	.LBE31:
 399              	.LBE30:
 150:src/main.cpp  ****     thread_dispatch();
 400              		.loc 1 150 5 is_stmt 1
 401              		.loc 1 150 20 is_stmt 0
 402 0264 97000000 		call	_Z15thread_dispatchv
 402      E7800000 
 403              	.LVL39:
 151:src/main.cpp  **** }
 404              		.loc 1 151 1
 405 026c 83308101 		ld	ra,24(sp)
 406              		.cfi_restore 1
 407 0270 03340101 		ld	s0,16(sp)
 408              		.cfi_restore 8
 409              		.cfi_def_cfa 2, 32
 410 0274 83348100 		ld	s1,8(sp)
 411              		.cfi_restore 9
 412              	.LVL40:
 413 0278 13010102 		addi	sp,sp,32
 414              		.cfi_def_cfa_offset 0
 415 027c 67800000 		jr	ra
 416              		.cfi_endproc
 417              	.LFE35:
 419              		.section	.rodata.str1.8
 420 01bb 00000000 		.align	3
 420      00
GAS LISTING /tmp/ccQjYMtJ.s 			page 13


 421              	.LC12:
 422 01c0 5A415652 		.string	"ZAVRSENA JE WRAPPER FJA\n"
 422      53454E41 
 422      204A4520 
 422      57524150 
 422      50455220 
 423              		.text
 424              		.align	2
 425              		.globl	_Z7wrapperPv
 427              	_Z7wrapperPv:
 428              	.LFB36:
 152:src/main.cpp  **** 
 153:src/main.cpp  **** 
 154:src/main.cpp  **** 
 155:src/main.cpp  **** void wrapper(void* arg){
 429              		.loc 1 155 24 is_stmt 1
 430              		.cfi_startproc
 431              	.LVL41:
 432 0280 130101FF 		addi	sp,sp,-16
 433              		.cfi_def_cfa_offset 16
 434 0284 23341100 		sd	ra,8(sp)
 435 0288 23308100 		sd	s0,0(sp)
 436              		.cfi_offset 1, -8
 437              		.cfi_offset 8, -16
 438 028c 13040101 		addi	s0,sp,16
 439              		.cfi_def_cfa 8, 0
 156:src/main.cpp  ****     thread_create(&nitA, fa, nullptr);
 440              		.loc 1 156 5
 441              		.loc 1 156 18 is_stmt 0
 442 0290 13060000 		li	a2,0
 443 0294 97050000 		lla	a1,_Z2faPv
 443      93850500 
 444 029c 17050000 		lla	a0,nitA
 444      13050500 
 445              	.LVL42:
 446 02a4 97000000 		call	_Z13thread_createPP7_threadPFvPvES2_
 446      E7800000 
 447              	.LVL43:
 157:src/main.cpp  ****     thread_create(&nitB, fb, nullptr);
 448              		.loc 1 157 5 is_stmt 1
 449              		.loc 1 157 18 is_stmt 0
 450 02ac 13060000 		li	a2,0
 451 02b0 97050000 		lla	a1,_Z2fbPv
 451      93850500 
 452 02b8 17050000 		lla	a0,nitB
 452      13050500 
 453 02c0 97000000 		call	_Z13thread_createPP7_threadPFvPvES2_
 453      E7800000 
 454              	.LVL44:
 158:src/main.cpp  ****     thread_create(&nitC, fc, nullptr);
 455              		.loc 1 158 5 is_stmt 1
 456              		.loc 1 158 18 is_stmt 0
 457 02c8 13060000 		li	a2,0
 458 02cc 97050000 		lla	a1,_Z2fcPv
 458      93850500 
 459 02d4 17050000 		lla	a0,nitC
 459      13050500 
GAS LISTING /tmp/ccQjYMtJ.s 			page 14


 460 02dc 97000000 		call	_Z13thread_createPP7_threadPFvPvES2_
 460      E7800000 
 461              	.LVL45:
 462 02e4 6F00C000 		j	.L28
 463              	.L26:
 159:src/main.cpp  **** 
 160:src/main.cpp  ****     while(!nitA->isFinished() || !nitB->isFinished() || !nitC->isFinished()){
 161:src/main.cpp  ****         thread_dispatch();
 464              		.loc 1 161 9 is_stmt 1 discriminator 5
 465              		.loc 1 161 24 is_stmt 0 discriminator 5
 466 02e8 97000000 		call	_Z15thread_dispatchv
 466      E7800000 
 467              	.LVL46:
 468              	.L28:
 160:src/main.cpp  ****         thread_dispatch();
 469              		.loc 1 160 5 is_stmt 1
 160:src/main.cpp  ****         thread_dispatch();
 470              		.loc 1 160 54
 160:src/main.cpp  ****         thread_dispatch();
 471              		.loc 1 160 28 is_stmt 0
 472 02f0 97070000 		ld	a5,nitA
 472      83B70700 
 473              	.LVL47:
 474              	.LBB32:
 475              	.LBB33:
  18:src/../h/_thread.hpp **** 
 476              		.loc 2 18 31 is_stmt 1
  18:src/../h/_thread.hpp **** 
 477              		.loc 2 18 38 is_stmt 0
 478 02f8 83C78702 		lbu	a5,40(a5)
 479              	.LVL48:
 480              	.LBE33:
 481              	.LBE32:
 160:src/main.cpp  ****         thread_dispatch();
 482              		.loc 1 160 54
 483 02fc E38607FE 		beqz	a5,.L26
 160:src/main.cpp  ****         thread_dispatch();
 484              		.loc 1 160 51 discriminator 2
 485 0300 97070000 		ld	a5,nitB
 485      83B70700 
 486              	.LVL49:
 487              	.LBB34:
 488              	.LBB35:
  18:src/../h/_thread.hpp **** 
 489              		.loc 2 18 31 is_stmt 1 discriminator 2
  18:src/../h/_thread.hpp **** 
 490              		.loc 2 18 38 is_stmt 0 discriminator 2
 491 0308 83C78702 		lbu	a5,40(a5)
 492              	.LVL50:
 493              	.LBE35:
 494              	.LBE34:
 160:src/main.cpp  ****         thread_dispatch();
 495              		.loc 1 160 31 discriminator 2
 496 030c E38E07FC 		beqz	a5,.L26
 160:src/main.cpp  ****         thread_dispatch();
 497              		.loc 1 160 74 discriminator 4
 498 0310 97070000 		ld	a5,nitC
GAS LISTING /tmp/ccQjYMtJ.s 			page 15


 498      83B70700 
 499              	.LVL51:
 500              	.LBB36:
 501              	.LBB37:
  18:src/../h/_thread.hpp **** 
 502              		.loc 2 18 31 is_stmt 1 discriminator 4
  18:src/../h/_thread.hpp **** 
 503              		.loc 2 18 38 is_stmt 0 discriminator 4
 504 0318 83C78702 		lbu	a5,40(a5)
 505              	.LVL52:
 506              	.LBE37:
 507              	.LBE36:
 160:src/main.cpp  ****         thread_dispatch();
 508              		.loc 1 160 54 discriminator 4
 509 031c E38607FC 		beqz	a5,.L26
 162:src/main.cpp  ****     }
 163:src/main.cpp  **** 
 164:src/main.cpp  ****     printString("ZAVRSENA JE WRAPPER FJA\n");
 510              		.loc 1 164 5 is_stmt 1
 511              		.loc 1 164 16 is_stmt 0
 512 0320 17050000 		lla	a0,.LC12
 512      13050500 
 513 0328 97000000 		call	_Z11printStringPKc
 513      E7800000 
 514              	.LVL53:
 165:src/main.cpp  ****     _thread::running->setFinished(true);
 515              		.loc 1 165 5 is_stmt 1
 516              	.LBB38:
 517              	.LBB39:
 518              		.loc 2 20 34
 519              		.loc 2 20 52 is_stmt 0
 520 0330 97070000 		ld	a5,_ZN7_thread7runningE
 520      83B70700 
 521 0338 13071000 		li	a4,1
 522 033c 2384E702 		sb	a4,40(a5)
 523              	.LVL54:
 524              	.LBE39:
 525              	.LBE38:
 166:src/main.cpp  ****     thread_dispatch();
 526              		.loc 1 166 5 is_stmt 1
 527              		.loc 1 166 20 is_stmt 0
 528 0340 97000000 		call	_Z15thread_dispatchv
 528      E7800000 
 529              	.LVL55:
 167:src/main.cpp  **** }
 530              		.loc 1 167 1
 531 0348 83308100 		ld	ra,8(sp)
 532              		.cfi_restore 1
 533 034c 03340100 		ld	s0,0(sp)
 534              		.cfi_restore 8
 535              		.cfi_def_cfa 2, 16
 536 0350 13010101 		addi	sp,sp,16
 537              		.cfi_def_cfa_offset 0
 538 0354 67800000 		jr	ra
 539              		.cfi_endproc
 540              	.LFE36:
 542              		.align	2
GAS LISTING /tmp/ccQjYMtJ.s 			page 16


 543              		.globl	main
 545              	main:
 546              	.LFB37:
 168:src/main.cpp  **** 
 169:src/main.cpp  **** int main()
 170:src/main.cpp  **** {
 547              		.loc 1 170 1 is_stmt 1
 548              		.cfi_startproc
 549 0358 130101FE 		addi	sp,sp,-32
 550              		.cfi_def_cfa_offset 32
 551 035c 233C1100 		sd	ra,24(sp)
 552 0360 23388100 		sd	s0,16(sp)
 553              		.cfi_offset 1, -8
 554              		.cfi_offset 8, -16
 555 0364 13040102 		addi	s0,sp,32
 556              		.cfi_def_cfa 8, 0
 171:src/main.cpp  ****     Riscv::w_stvec((uint64) &Riscv::interruptRoutine);    //upisuje adresu prekidne rutine
 557              		.loc 1 171 5
 558              		.loc 1 171 19 is_stmt 0
 559 0368 97070000 		lla	a5,_ZN5Riscv16interruptRoutineEv
 559      93870700 
 560              	.LVL56:
 561              	.LBB40:
 562              	.LBB41:
 563              		.file 3 "src/../h/riscv.hpp"
   1:src/../h/riscv.hpp **** //
   2:src/../h/riscv.hpp **** // Created by marko on 20.4.22..
   3:src/../h/riscv.hpp **** //
   4:src/../h/riscv.hpp **** 
   5:src/../h/riscv.hpp **** #ifndef OS_PROJEKAT_RISCV_HPP
   6:src/../h/riscv.hpp **** #define OS_PROJEKAT_RISCV_HPP
   7:src/../h/riscv.hpp **** 
   8:src/../h/riscv.hpp **** 
   9:src/../h/riscv.hpp **** #include "../lib/hw.h"
  10:src/../h/riscv.hpp **** 
  11:src/../h/riscv.hpp **** 
  12:src/../h/riscv.hpp **** class Riscv
  13:src/../h/riscv.hpp **** {
  14:src/../h/riscv.hpp **** public:
  15:src/../h/riscv.hpp **** 
  16:src/../h/riscv.hpp ****     // pop status.spp and sstatus.spie bits
  17:src/../h/riscv.hpp ****     static void popSppSpie();
  18:src/../h/riscv.hpp ****     //implementaciju ove metode stavljam u cpp zato sto je vazno da ova staticka metoda
  19:src/../h/riscv.hpp ****     //bude ne inline, da bi se ovaj kod pozvao i da bi se promenio ra registar
  20:src/../h/riscv.hpp ****     //bitno je da znamo odakle se desio poziv
  21:src/../h/riscv.hpp ****     //jedini nacin da promenimo rezim privilegije je sa funkcijama koje se vracaju iz prekidne ruti
  22:src/../h/riscv.hpp ****     //pomocu sret, konekts novonapravljene niti nece ici preko normalne prekidne rutine vec ce ici 
  23:src/../h/riscv.hpp ****     //threadWrapera i u okviru njegove funckije treba izaci iz prekidne rutine
  24:src/../h/riscv.hpp ****     //sret ce se vratiti tamo gde je sepc rekao
  25:src/../h/riscv.hpp **** 
  26:src/../h/riscv.hpp ****     //preko name manlinga uazi se u definiciju koja je napisana u fajlu preko asemblera
  27:src/../h/riscv.hpp ****     static void interruptRoutine();
  28:src/../h/riscv.hpp **** 
  29:src/../h/riscv.hpp ****     // push x3..x31 registers onto stack
  30:src/../h/riscv.hpp ****     static void pushRegisters();
  31:src/../h/riscv.hpp **** 
  32:src/../h/riscv.hpp ****     // pop x3..x31 registers onto stack
GAS LISTING /tmp/ccQjYMtJ.s 			page 17


  33:src/../h/riscv.hpp ****     static void popRegisters();
  34:src/../h/riscv.hpp **** 
  35:src/../h/riscv.hpp ****     // read register scause
  36:src/../h/riscv.hpp ****     static uint64 r_scause();
  37:src/../h/riscv.hpp **** 
  38:src/../h/riscv.hpp ****     // write register scause
  39:src/../h/riscv.hpp ****     static void w_scause(uint64 scause);
  40:src/../h/riscv.hpp **** 
  41:src/../h/riscv.hpp ****     // read register sepc
  42:src/../h/riscv.hpp ****     static uint64 r_sepc();
  43:src/../h/riscv.hpp **** 
  44:src/../h/riscv.hpp ****     // write register sepc
  45:src/../h/riscv.hpp ****     static void w_sepc(uint64 sepc);
  46:src/../h/riscv.hpp **** 
  47:src/../h/riscv.hpp ****     // read register stvec
  48:src/../h/riscv.hpp ****     static uint64 r_stvec();
  49:src/../h/riscv.hpp **** 
  50:src/../h/riscv.hpp ****     // write register stvec
  51:src/../h/riscv.hpp ****     static void w_stvec(uint64 stvec);
  52:src/../h/riscv.hpp **** 
  53:src/../h/riscv.hpp ****     // read register stval
  54:src/../h/riscv.hpp ****     static uint64 r_stval();
  55:src/../h/riscv.hpp **** 
  56:src/../h/riscv.hpp ****     // write register stval
  57:src/../h/riscv.hpp ****     static void w_stval(uint64 stval);
  58:src/../h/riscv.hpp **** 
  59:src/../h/riscv.hpp ****     enum BitMaskSip
  60:src/../h/riscv.hpp ****     {
  61:src/../h/riscv.hpp ****         SIP_SSIP = (1 << 1),
  62:src/../h/riscv.hpp ****         SIP_STIP = (1 << 5),
  63:src/../h/riscv.hpp ****         SIP_SEIP = (1 << 9),
  64:src/../h/riscv.hpp ****     };
  65:src/../h/riscv.hpp **** 
  66:src/../h/riscv.hpp ****     // mask set register sip
  67:src/../h/riscv.hpp ****     static void ms_sip(uint64 mask);
  68:src/../h/riscv.hpp **** 
  69:src/../h/riscv.hpp ****     // mask clear register sip
  70:src/../h/riscv.hpp ****     static void mc_sip(uint64 mask);
  71:src/../h/riscv.hpp **** 
  72:src/../h/riscv.hpp ****     // read register sip
  73:src/../h/riscv.hpp ****     static uint64 r_sip();
  74:src/../h/riscv.hpp **** 
  75:src/../h/riscv.hpp ****     // write register sip
  76:src/../h/riscv.hpp ****     static void w_sip(uint64 sip);
  77:src/../h/riscv.hpp **** 
  78:src/../h/riscv.hpp ****     enum BitMaskSstatus
  79:src/../h/riscv.hpp ****     {
  80:src/../h/riscv.hpp ****         SSTATUS_SIE = (1 << 1),
  81:src/../h/riscv.hpp ****         SSTATUS_SPIE = (1 << 5),
  82:src/../h/riscv.hpp ****         SSTATUS_SPP = (1 << 8),
  83:src/../h/riscv.hpp ****     };
  84:src/../h/riscv.hpp **** 
  85:src/../h/riscv.hpp ****     // mask set register sstatus
  86:src/../h/riscv.hpp ****     static void ms_sstatus(uint64 mask);
  87:src/../h/riscv.hpp **** 
  88:src/../h/riscv.hpp ****     // mask clear register sstatus
  89:src/../h/riscv.hpp ****     static void mc_sstatus(uint64 mask);
GAS LISTING /tmp/ccQjYMtJ.s 			page 18


  90:src/../h/riscv.hpp **** 
  91:src/../h/riscv.hpp ****     // read register sstatus
  92:src/../h/riscv.hpp ****     static uint64 r_sstatus();
  93:src/../h/riscv.hpp **** 
  94:src/../h/riscv.hpp ****     // write register sstatus
  95:src/../h/riscv.hpp ****     static void w_sstatus(uint64 sstatus);
  96:src/../h/riscv.hpp **** 
  97:src/../h/riscv.hpp **** private:
  98:src/../h/riscv.hpp ****     static void interruptRoutineHandler();
  99:src/../h/riscv.hpp **** };
 100:src/../h/riscv.hpp **** 
 101:src/../h/riscv.hpp **** inline uint64 Riscv::r_scause()
 102:src/../h/riscv.hpp **** {
 103:src/../h/riscv.hpp ****     uint64 volatile scause;
 104:src/../h/riscv.hpp ****     __asm__ volatile ("csrr %[scause], scause" : [scause] "=r"(scause));
 105:src/../h/riscv.hpp ****     return scause;
 106:src/../h/riscv.hpp **** }
 107:src/../h/riscv.hpp **** 
 108:src/../h/riscv.hpp **** inline void Riscv::w_scause(uint64 scause)
 109:src/../h/riscv.hpp **** {
 110:src/../h/riscv.hpp ****     __asm__ volatile ("csrw scause, %[scause]" : : [scause] "r"(scause));
 111:src/../h/riscv.hpp **** }
 112:src/../h/riscv.hpp **** 
 113:src/../h/riscv.hpp **** inline uint64 Riscv::r_sepc()
 114:src/../h/riscv.hpp **** {
 115:src/../h/riscv.hpp ****     uint64 volatile sepc;
 116:src/../h/riscv.hpp ****     __asm__ volatile ("csrr %[sepc], sepc" : [sepc] "=r"(sepc));
 117:src/../h/riscv.hpp ****     return sepc;
 118:src/../h/riscv.hpp **** }
 119:src/../h/riscv.hpp **** 
 120:src/../h/riscv.hpp **** inline void Riscv::w_sepc(uint64 sepc)
 121:src/../h/riscv.hpp **** {
 122:src/../h/riscv.hpp ****     __asm__ volatile ("csrw sepc, %[sepc]" : : [sepc] "r"(sepc));
 123:src/../h/riscv.hpp **** }
 124:src/../h/riscv.hpp **** 
 125:src/../h/riscv.hpp **** inline uint64 Riscv::r_stvec()
 126:src/../h/riscv.hpp **** {
 127:src/../h/riscv.hpp ****     uint64 volatile stvec;
 128:src/../h/riscv.hpp ****     __asm__ volatile ("csrr %[stvec], stvec" : [stvec] "=r"(stvec));
 129:src/../h/riscv.hpp ****     return stvec;
 130:src/../h/riscv.hpp **** }
 131:src/../h/riscv.hpp **** 
 132:src/../h/riscv.hpp **** inline void Riscv::w_stvec(uint64 stvec)
 133:src/../h/riscv.hpp **** {
 134:src/../h/riscv.hpp ****     __asm__ volatile ("csrw stvec, %[stvec]" : : [stvec] "r"(stvec));
 564              		.loc 3 134 5 is_stmt 1
 565              		.loc 3 134 69 is_stmt 0
 566              	 #APP
 567              	# 134 "src/../h/riscv.hpp" 1
 135              	}
 568              		csrw stvec, a5
 569              	# 0 "" 2
 570              	.LVL57:
 571              	 #NO_APP
 572              	.LBE41:
 573              	.LBE40:
 172:src/main.cpp  ****     //Riscv: :ms_sstatus (Riscv:: SSTATUS_SIE);
GAS LISTING /tmp/ccQjYMtJ.s 			page 19


 173:src/main.cpp  ****     thread_t thread1;
 574              		.loc 1 173 5 is_stmt 1
 174:src/main.cpp  ****     //idle nit(nit koja nema fju koja treba da izvrsava)
 175:src/main.cpp  ****     thread_create(&thread1, nullptr, nullptr);
 575              		.loc 1 175 5
 576              		.loc 1 175 18 is_stmt 0
 577 0374 13060000 		li	a2,0
 578 0378 93050000 		li	a1,0
 579 037c 130584FE 		addi	a0,s0,-24
 580 0380 97000000 		call	_Z13thread_createPP7_threadPFvPvES2_
 580      E7800000 
 581              	.LVL58:
 176:src/main.cpp  ****     _thread::running = thread1;
 582              		.loc 1 176 5 is_stmt 1
 583              		.loc 1 176 22 is_stmt 0
 584 0388 833784FE 		ld	a5,-24(s0)
 585 038c 17070000 		sd	a5,_ZN7_thread7runningE,a4
 585      2330F700 
 177:src/main.cpp  **** 
 178:src/main.cpp  ****     thread_t thread2;
 586              		.loc 1 178 5 is_stmt 1
 179:src/main.cpp  ****     thread_create(&thread2, reinterpret_cast<void (*)(void *)>(userMain), nullptr);
 587              		.loc 1 179 5
 588              		.loc 1 179 18 is_stmt 0
 589 0394 13060000 		li	a2,0
 590 0398 97050000 		lla	a1,_Z8userMainv
 590      93850500 
 591 03a0 130504FE 		addi	a0,s0,-32
 592 03a4 97000000 		call	_Z13thread_createPP7_threadPFvPvES2_
 592      E7800000 
 593              	.LVL59:
 594              	.L32:
 180:src/main.cpp  **** 
 181:src/main.cpp  ****     while (!(thread2->isFinished())) {
 595              		.loc 1 181 5 is_stmt 1
 596              		.loc 1 181 12
 597              		.loc 1 181 33 is_stmt 0
 598 03ac 833704FE 		ld	a5,-32(s0)
 599              	.LVL60:
 600              	.LBB42:
 601              	.LBB43:
  18:src/../h/_thread.hpp **** 
 602              		.loc 2 18 31 is_stmt 1
  18:src/../h/_thread.hpp **** 
 603              		.loc 2 18 38 is_stmt 0
 604 03b0 83C78702 		lbu	a5,40(a5)
 605              	.LVL61:
 606              	.LBE43:
 607              	.LBE42:
 608              		.loc 1 181 12
 609 03b4 63980700 		bnez	a5,.L31
 182:src/main.cpp  ****         thread_dispatch();
 610              		.loc 1 182 9 is_stmt 1
 611              		.loc 1 182 24 is_stmt 0
 612 03b8 97000000 		call	_Z15thread_dispatchv
 612      E7800000 
 613              	.LVL62:
GAS LISTING /tmp/ccQjYMtJ.s 			page 20


 614 03c0 6FF0DFFE 		j	.L32
 615              	.L31:
 183:src/main.cpp  ****     }
 184:src/main.cpp  **** 
 185:src/main.cpp  ****     return 0;
 616              		.loc 1 185 5 is_stmt 1
 186:src/main.cpp  **** }
 617              		.loc 1 186 1 is_stmt 0
 618 03c4 13050000 		li	a0,0
 619 03c8 83308101 		ld	ra,24(sp)
 620              		.cfi_restore 1
 621 03cc 03340101 		ld	s0,16(sp)
 622              		.cfi_restore 8
 623              		.cfi_def_cfa 2, 32
 624 03d0 13010102 		addi	sp,sp,32
 625              		.cfi_def_cfa_offset 0
 626 03d4 67800000 		jr	ra
 627              		.cfi_endproc
 628              	.LFE37:
 630              		.globl	nitC
 631              		.globl	nitB
 632              		.globl	nitA
 633              		.section	.sbss,"aw",@nobits
 634              		.align	3
 637              	nitC:
 638 0000 00000000 		.zero	8
 638      00000000 
 641              	nitB:
 642 0008 00000000 		.zero	8
 642      00000000 
 645              	nitA:
 646 0010 00000000 		.zero	8
 646      00000000 
 647              		.text
 648              	.Letext0:
 649              		.file 4 "src/../h/../lib/hw.h"
 650              		.file 5 "src/../h/syscall_c.hpp"
 651              		.file 6 "src/../test/printing.hpp"
 652              		.file 7 "src/../test/Threads_C_API_test.hpp"
GAS LISTING /tmp/ccQjYMtJ.s 			page 21


DEFINED SYMBOLS
                            *ABS*:0000000000000000 main.cpp
     /tmp/ccQjYMtJ.s:38     .text:0000000000000000 _Z8userMainv
     /tmp/ccQjYMtJ.s:42     .text:0000000000000000 .L0 
     /tmp/ccQjYMtJ.s:43     .text:0000000000000000 .L0 
     /tmp/ccQjYMtJ.s:44     .text:0000000000000004 .L0 
     /tmp/ccQjYMtJ.s:49     .text:0000000000000014 .L0 
     /tmp/ccQjYMtJ.s:50     .text:0000000000000014 .L0 
     /tmp/ccQjYMtJ.s:51     .text:0000000000000014 .L0 
     /tmp/ccQjYMtJ.s:52     .text:0000000000000014 .L0 
     /tmp/ccQjYMtJ.s:54     .text:0000000000000018 .L0 
     /tmp/ccQjYMtJ.s:56     .text:0000000000000018 .L0 
     /tmp/ccQjYMtJ.s:57     .text:0000000000000018 .L0 
     /tmp/ccQjYMtJ.s:61     .text:0000000000000028 .L0 
     /tmp/ccQjYMtJ.s:62     .text:0000000000000028 .L0 
     /tmp/ccQjYMtJ.s:66     .text:0000000000000034 .L0 
     /tmp/ccQjYMtJ.s:69     .text:0000000000000038 .L0 
     /tmp/ccQjYMtJ.s:70     .text:0000000000000038 .L0 
     /tmp/ccQjYMtJ.s:73     .text:0000000000000040 .L0 
     /tmp/ccQjYMtJ.s:74     .text:0000000000000040 .L0 
     /tmp/ccQjYMtJ.s:75     .text:0000000000000040 .L0 
     /tmp/ccQjYMtJ.s:77     .text:0000000000000044 .L0 
     /tmp/ccQjYMtJ.s:80     .text:000000000000004c .L0 
     /tmp/ccQjYMtJ.s:81     .text:000000000000004c .L0 
     /tmp/ccQjYMtJ.s:84     .text:0000000000000050 .L0 
     /tmp/ccQjYMtJ.s:87     .text:0000000000000058 .L0 
     /tmp/ccQjYMtJ.s:96     .text:0000000000000078 .L0 
     /tmp/ccQjYMtJ.s:97     .text:0000000000000078 .L0 
     /tmp/ccQjYMtJ.s:98     .text:0000000000000078 .L0 
     /tmp/ccQjYMtJ.s:102    .text:0000000000000088 .L0 
     /tmp/ccQjYMtJ.s:106    .text:000000000000008c .L0 
     /tmp/ccQjYMtJ.s:107    .text:000000000000008c .L0 
     /tmp/ccQjYMtJ.s:108    .text:000000000000008c .L0 
     /tmp/ccQjYMtJ.s:113    .text:000000000000009c .L0 
     /tmp/ccQjYMtJ.s:114    .text:000000000000009c .L0 
     /tmp/ccQjYMtJ.s:115    .text:00000000000000a0 .L0 
     /tmp/ccQjYMtJ.s:116    .text:00000000000000a0 .L0 
     /tmp/ccQjYMtJ.s:118    .text:00000000000000a4 .L0 
     /tmp/ccQjYMtJ.s:119    .text:00000000000000a4 .L0 
     /tmp/ccQjYMtJ.s:121    .text:00000000000000a8 .L0 
     /tmp/ccQjYMtJ.s:123    .text:00000000000000ac .L0 
     /tmp/ccQjYMtJ.s:125    .text:00000000000000b0 .L0 
     /tmp/ccQjYMtJ.s:128    .text:00000000000000b4 .L0 
     /tmp/ccQjYMtJ.s:130    .text:00000000000000b4 .L0 
     /tmp/ccQjYMtJ.s:131    .text:00000000000000b4 .L0 
     /tmp/ccQjYMtJ.s:132    .text:00000000000000b4 .L0 
     /tmp/ccQjYMtJ.s:136    .text:00000000000000c4 .L0 
     /tmp/ccQjYMtJ.s:139    .text:00000000000000c8 .L0 
     /tmp/ccQjYMtJ.s:142    .text:00000000000000d0 .L0 
     /tmp/ccQjYMtJ.s:143    .text:00000000000000d0 .L0 
     /tmp/ccQjYMtJ.s:144    .text:00000000000000d0 .L0 
     /tmp/ccQjYMtJ.s:148    .text:00000000000000e0 .L0 
     /tmp/ccQjYMtJ.s:149    .text:00000000000000e0 .L0 
     /tmp/ccQjYMtJ.s:153    .text:00000000000000f0 .L0 
     /tmp/ccQjYMtJ.s:156    .text:00000000000000f4 .L0 
     /tmp/ccQjYMtJ.s:157    .text:00000000000000f4 .L0 
     /tmp/ccQjYMtJ.s:158    .text:00000000000000f4 .L0 
GAS LISTING /tmp/ccQjYMtJ.s 			page 22


     /tmp/ccQjYMtJ.s:161    .text:00000000000000fc .L0 
     /tmp/ccQjYMtJ.s:162    .text:00000000000000fc .L0 
     /tmp/ccQjYMtJ.s:166    .text:000000000000010c .L0 
     /tmp/ccQjYMtJ.s:169    .text:0000000000000110 .L0 
     /tmp/ccQjYMtJ.s:170    .text:0000000000000110 .L0 
     /tmp/ccQjYMtJ.s:171    .text:0000000000000110 .L0 
     /tmp/ccQjYMtJ.s:175    .text:0000000000000124 .L0 
     /tmp/ccQjYMtJ.s:189    .text:0000000000000124 _Z2faPv
     /tmp/ccQjYMtJ.s:192    .text:0000000000000124 .L0 
     /tmp/ccQjYMtJ.s:193    .text:0000000000000124 .L0 
     /tmp/ccQjYMtJ.s:194    .text:0000000000000128 .L0 
     /tmp/ccQjYMtJ.s:198    .text:0000000000000134 .L0 
     /tmp/ccQjYMtJ.s:199    .text:0000000000000134 .L0 
     /tmp/ccQjYMtJ.s:200    .text:0000000000000134 .L0 
     /tmp/ccQjYMtJ.s:202    .text:0000000000000138 .L0 
     /tmp/ccQjYMtJ.s:206    .text:0000000000000138 .L0 
     /tmp/ccQjYMtJ.s:207    .text:0000000000000138 .L0 
     /tmp/ccQjYMtJ.s:211    .text:000000000000013c .L0 
     /tmp/ccQjYMtJ.s:214    .text:0000000000000144 .L0 
     /tmp/ccQjYMtJ.s:215    .text:0000000000000144 .L0 
     /tmp/ccQjYMtJ.s:219    .text:0000000000000154 .L0 
     /tmp/ccQjYMtJ.s:226    .text:000000000000015c .L0 
     /tmp/ccQjYMtJ.s:227    .text:000000000000015c .L0 
     /tmp/ccQjYMtJ.s:234    .text:000000000000016c .L0 
     /tmp/ccQjYMtJ.s:235    .text:000000000000016c .L0 
     /tmp/ccQjYMtJ.s:236    .text:000000000000016c .L0 
     /tmp/ccQjYMtJ.s:243    .text:000000000000017c .L0 
     /tmp/ccQjYMtJ.s:244    .text:000000000000017c .L0 
     /tmp/ccQjYMtJ.s:247    .text:0000000000000184 .L0 
     /tmp/ccQjYMtJ.s:248    .text:0000000000000188 .L0 
     /tmp/ccQjYMtJ.s:250    .text:000000000000018c .L0 
     /tmp/ccQjYMtJ.s:251    .text:000000000000018c .L0 
     /tmp/ccQjYMtJ.s:253    .text:0000000000000190 .L0 
     /tmp/ccQjYMtJ.s:256    .text:0000000000000194 .L0 
     /tmp/ccQjYMtJ.s:258    .text:0000000000000198 .L0 
     /tmp/ccQjYMtJ.s:269    .text:0000000000000198 _Z2fbPv
     /tmp/ccQjYMtJ.s:272    .text:0000000000000198 .L0 
     /tmp/ccQjYMtJ.s:273    .text:0000000000000198 .L0 
     /tmp/ccQjYMtJ.s:274    .text:000000000000019c .L0 
     /tmp/ccQjYMtJ.s:278    .text:00000000000001a8 .L0 
     /tmp/ccQjYMtJ.s:279    .text:00000000000001a8 .L0 
     /tmp/ccQjYMtJ.s:280    .text:00000000000001a8 .L0 
     /tmp/ccQjYMtJ.s:282    .text:00000000000001ac .L0 
     /tmp/ccQjYMtJ.s:286    .text:00000000000001ac .L0 
     /tmp/ccQjYMtJ.s:287    .text:00000000000001ac .L0 
     /tmp/ccQjYMtJ.s:291    .text:00000000000001b0 .L0 
     /tmp/ccQjYMtJ.s:294    .text:00000000000001b8 .L0 
     /tmp/ccQjYMtJ.s:295    .text:00000000000001b8 .L0 
     /tmp/ccQjYMtJ.s:299    .text:00000000000001c8 .L0 
     /tmp/ccQjYMtJ.s:306    .text:00000000000001d0 .L0 
     /tmp/ccQjYMtJ.s:307    .text:00000000000001d0 .L0 
     /tmp/ccQjYMtJ.s:313    .text:00000000000001e0 .L0 
     /tmp/ccQjYMtJ.s:314    .text:00000000000001e0 .L0 
     /tmp/ccQjYMtJ.s:315    .text:00000000000001e0 .L0 
     /tmp/ccQjYMtJ.s:322    .text:00000000000001f0 .L0 
     /tmp/ccQjYMtJ.s:323    .text:00000000000001f0 .L0 
     /tmp/ccQjYMtJ.s:326    .text:00000000000001f8 .L0 
GAS LISTING /tmp/ccQjYMtJ.s 			page 23


     /tmp/ccQjYMtJ.s:327    .text:00000000000001fc .L0 
     /tmp/ccQjYMtJ.s:329    .text:0000000000000200 .L0 
     /tmp/ccQjYMtJ.s:330    .text:0000000000000200 .L0 
     /tmp/ccQjYMtJ.s:332    .text:0000000000000204 .L0 
     /tmp/ccQjYMtJ.s:335    .text:0000000000000208 .L0 
     /tmp/ccQjYMtJ.s:337    .text:000000000000020c .L0 
     /tmp/ccQjYMtJ.s:348    .text:000000000000020c _Z2fcPv
     /tmp/ccQjYMtJ.s:351    .text:000000000000020c .L0 
     /tmp/ccQjYMtJ.s:352    .text:000000000000020c .L0 
     /tmp/ccQjYMtJ.s:353    .text:0000000000000210 .L0 
     /tmp/ccQjYMtJ.s:357    .text:000000000000021c .L0 
     /tmp/ccQjYMtJ.s:358    .text:000000000000021c .L0 
     /tmp/ccQjYMtJ.s:359    .text:000000000000021c .L0 
     /tmp/ccQjYMtJ.s:361    .text:0000000000000220 .L0 
     /tmp/ccQjYMtJ.s:365    .text:0000000000000220 .L0 
     /tmp/ccQjYMtJ.s:366    .text:0000000000000220 .L0 
     /tmp/ccQjYMtJ.s:370    .text:0000000000000224 .L0 
     /tmp/ccQjYMtJ.s:373    .text:000000000000022c .L0 
     /tmp/ccQjYMtJ.s:374    .text:000000000000022c .L0 
     /tmp/ccQjYMtJ.s:378    .text:000000000000023c .L0 
     /tmp/ccQjYMtJ.s:385    .text:0000000000000244 .L0 
     /tmp/ccQjYMtJ.s:386    .text:0000000000000244 .L0 
     /tmp/ccQjYMtJ.s:392    .text:0000000000000254 .L0 
     /tmp/ccQjYMtJ.s:393    .text:0000000000000254 .L0 
     /tmp/ccQjYMtJ.s:394    .text:0000000000000254 .L0 
     /tmp/ccQjYMtJ.s:401    .text:0000000000000264 .L0 
     /tmp/ccQjYMtJ.s:402    .text:0000000000000264 .L0 
     /tmp/ccQjYMtJ.s:405    .text:000000000000026c .L0 
     /tmp/ccQjYMtJ.s:406    .text:0000000000000270 .L0 
     /tmp/ccQjYMtJ.s:408    .text:0000000000000274 .L0 
     /tmp/ccQjYMtJ.s:409    .text:0000000000000274 .L0 
     /tmp/ccQjYMtJ.s:411    .text:0000000000000278 .L0 
     /tmp/ccQjYMtJ.s:414    .text:000000000000027c .L0 
     /tmp/ccQjYMtJ.s:416    .text:0000000000000280 .L0 
     /tmp/ccQjYMtJ.s:427    .text:0000000000000280 _Z7wrapperPv
     /tmp/ccQjYMtJ.s:430    .text:0000000000000280 .L0 
     /tmp/ccQjYMtJ.s:432    .text:0000000000000280 .L0 
     /tmp/ccQjYMtJ.s:433    .text:0000000000000284 .L0 
     /tmp/ccQjYMtJ.s:436    .text:000000000000028c .L0 
     /tmp/ccQjYMtJ.s:437    .text:000000000000028c .L0 
     /tmp/ccQjYMtJ.s:439    .text:0000000000000290 .L0 
     /tmp/ccQjYMtJ.s:441    .text:0000000000000290 .L0 
     /tmp/ccQjYMtJ.s:442    .text:0000000000000290 .L0 
     /tmp/ccQjYMtJ.s:645    .sbss:0000000000000010 nitA
     /tmp/ccQjYMtJ.s:449    .text:00000000000002ac .L0 
     /tmp/ccQjYMtJ.s:450    .text:00000000000002ac .L0 
     /tmp/ccQjYMtJ.s:641    .sbss:0000000000000008 nitB
     /tmp/ccQjYMtJ.s:456    .text:00000000000002c8 .L0 
     /tmp/ccQjYMtJ.s:457    .text:00000000000002c8 .L0 
     /tmp/ccQjYMtJ.s:637    .sbss:0000000000000000 nitC
     /tmp/ccQjYMtJ.s:465    .text:00000000000002e8 .L0 
     /tmp/ccQjYMtJ.s:466    .text:00000000000002e8 .L0 
     /tmp/ccQjYMtJ.s:470    .text:00000000000002f0 .L0 
     /tmp/ccQjYMtJ.s:471    .text:00000000000002f0 .L0 
     /tmp/ccQjYMtJ.s:472    .text:00000000000002f0 .L0 
     /tmp/ccQjYMtJ.s:477    .text:00000000000002f8 .L0 
     /tmp/ccQjYMtJ.s:478    .text:00000000000002f8 .L0 
GAS LISTING /tmp/ccQjYMtJ.s 			page 24


     /tmp/ccQjYMtJ.s:483    .text:00000000000002fc .L0 
     /tmp/ccQjYMtJ.s:485    .text:0000000000000300 .L0 
     /tmp/ccQjYMtJ.s:490    .text:0000000000000308 .L0 
     /tmp/ccQjYMtJ.s:491    .text:0000000000000308 .L0 
     /tmp/ccQjYMtJ.s:496    .text:000000000000030c .L0 
     /tmp/ccQjYMtJ.s:498    .text:0000000000000310 .L0 
     /tmp/ccQjYMtJ.s:503    .text:0000000000000318 .L0 
     /tmp/ccQjYMtJ.s:504    .text:0000000000000318 .L0 
     /tmp/ccQjYMtJ.s:509    .text:000000000000031c .L0 
     /tmp/ccQjYMtJ.s:511    .text:0000000000000320 .L0 
     /tmp/ccQjYMtJ.s:512    .text:0000000000000320 .L0 
     /tmp/ccQjYMtJ.s:518    .text:0000000000000330 .L0 
     /tmp/ccQjYMtJ.s:519    .text:0000000000000330 .L0 
     /tmp/ccQjYMtJ.s:520    .text:0000000000000330 .L0 
     /tmp/ccQjYMtJ.s:527    .text:0000000000000340 .L0 
     /tmp/ccQjYMtJ.s:528    .text:0000000000000340 .L0 
     /tmp/ccQjYMtJ.s:531    .text:0000000000000348 .L0 
     /tmp/ccQjYMtJ.s:532    .text:000000000000034c .L0 
     /tmp/ccQjYMtJ.s:534    .text:0000000000000350 .L0 
     /tmp/ccQjYMtJ.s:535    .text:0000000000000350 .L0 
     /tmp/ccQjYMtJ.s:537    .text:0000000000000354 .L0 
     /tmp/ccQjYMtJ.s:539    .text:0000000000000358 .L0 
     /tmp/ccQjYMtJ.s:545    .text:0000000000000358 main
     /tmp/ccQjYMtJ.s:548    .text:0000000000000358 .L0 
     /tmp/ccQjYMtJ.s:549    .text:0000000000000358 .L0 
     /tmp/ccQjYMtJ.s:550    .text:000000000000035c .L0 
     /tmp/ccQjYMtJ.s:553    .text:0000000000000364 .L0 
     /tmp/ccQjYMtJ.s:554    .text:0000000000000364 .L0 
     /tmp/ccQjYMtJ.s:556    .text:0000000000000368 .L0 
     /tmp/ccQjYMtJ.s:558    .text:0000000000000368 .L0 
     /tmp/ccQjYMtJ.s:559    .text:0000000000000368 .L0 
     /tmp/ccQjYMtJ.s:565    .text:0000000000000370 .L0 
  src/../h/riscv.hpp:134    .text:0000000000000370 .L0 
     /tmp/ccQjYMtJ.s:575    .text:0000000000000374 .L0 
     /tmp/ccQjYMtJ.s:576    .text:0000000000000374 .L0 
     /tmp/ccQjYMtJ.s:577    .text:0000000000000374 .L0 
     /tmp/ccQjYMtJ.s:583    .text:0000000000000388 .L0 
     /tmp/ccQjYMtJ.s:584    .text:0000000000000388 .L0 
     /tmp/ccQjYMtJ.s:587    .text:0000000000000394 .L0 
     /tmp/ccQjYMtJ.s:588    .text:0000000000000394 .L0 
     /tmp/ccQjYMtJ.s:589    .text:0000000000000394 .L0 
     /tmp/ccQjYMtJ.s:596    .text:00000000000003ac .L0 
     /tmp/ccQjYMtJ.s:597    .text:00000000000003ac .L0 
     /tmp/ccQjYMtJ.s:598    .text:00000000000003ac .L0 
     /tmp/ccQjYMtJ.s:603    .text:00000000000003b0 .L0 
     /tmp/ccQjYMtJ.s:604    .text:00000000000003b0 .L0 
     /tmp/ccQjYMtJ.s:609    .text:00000000000003b4 .L0 
     /tmp/ccQjYMtJ.s:611    .text:00000000000003b8 .L0 
     /tmp/ccQjYMtJ.s:612    .text:00000000000003b8 .L0 
     /tmp/ccQjYMtJ.s:617    .text:00000000000003c4 .L0 
     /tmp/ccQjYMtJ.s:618    .text:00000000000003c4 .L0 
     /tmp/ccQjYMtJ.s:620    .text:00000000000003cc .L0 
     /tmp/ccQjYMtJ.s:622    .text:00000000000003d0 .L0 
     /tmp/ccQjYMtJ.s:623    .text:00000000000003d0 .L0 
     /tmp/ccQjYMtJ.s:625    .text:00000000000003d4 .L0 
     /tmp/ccQjYMtJ.s:627    .text:00000000000003d8 .L0 
     /tmp/ccQjYMtJ.s:653    .text:00000000000003d8 .L0 
GAS LISTING /tmp/ccQjYMtJ.s 			page 25


     /tmp/ccQjYMtJ.s:11     .rodata.str1.8:0000000000000000 .LC0
     /tmp/ccQjYMtJ.s:57     .text:0000000000000018 .L0 
     /tmp/ccQjYMtJ.s:23     .rodata.str1.8:00000000000000c0 .LC4
     /tmp/ccQjYMtJ.s:98     .text:0000000000000078 .L0 
     /tmp/ccQjYMtJ.s:14     .rodata.str1.8:0000000000000020 .LC1
     /tmp/ccQjYMtJ.s:108    .text:000000000000008c .L0 
     /tmp/ccQjYMtJ.s:17     .rodata.str1.8:0000000000000050 .LC2
     /tmp/ccQjYMtJ.s:132    .text:00000000000000b4 .L0 
     /tmp/ccQjYMtJ.s:26     .rodata.str1.8:0000000000000100 .LC5
     /tmp/ccQjYMtJ.s:144    .text:00000000000000d0 .L0 
     /tmp/ccQjYMtJ.s:29     .rodata.str1.8:0000000000000120 .LC6
     /tmp/ccQjYMtJ.s:149    .text:00000000000000e0 .L0 
     /tmp/ccQjYMtJ.s:20     .rodata.str1.8:0000000000000080 .LC3
     /tmp/ccQjYMtJ.s:162    .text:00000000000000fc .L0 
     /tmp/ccQjYMtJ.s:32     .rodata.str1.8:0000000000000178 .LC7
     /tmp/ccQjYMtJ.s:171    .text:0000000000000110 .L0 
     /tmp/ccQjYMtJ.s:180    .rodata.str1.8:00000000000001a0 .LC8
     /tmp/ccQjYMtJ.s:215    .text:0000000000000144 .L0 
     /tmp/ccQjYMtJ.s:183    .rodata.str1.8:00000000000001a8 .LC9
     /tmp/ccQjYMtJ.s:227    .text:000000000000015c .L0 
     /tmp/ccQjYMtJ.s:236    .text:000000000000016c .L0 
     /tmp/ccQjYMtJ.s:263    .rodata.str1.8:00000000000001b0 .LC10
     /tmp/ccQjYMtJ.s:295    .text:00000000000001b8 .L0 
     /tmp/ccQjYMtJ.s:307    .text:00000000000001d0 .L0 
     /tmp/ccQjYMtJ.s:315    .text:00000000000001e0 .L0 
     /tmp/ccQjYMtJ.s:342    .rodata.str1.8:00000000000001b8 .LC11
     /tmp/ccQjYMtJ.s:374    .text:000000000000022c .L0 
     /tmp/ccQjYMtJ.s:386    .text:0000000000000244 .L0 
     /tmp/ccQjYMtJ.s:394    .text:0000000000000254 .L0 
     /tmp/ccQjYMtJ.s:443    .text:0000000000000294 .L0 
     /tmp/ccQjYMtJ.s:444    .text:000000000000029c .L0 
     /tmp/ccQjYMtJ.s:451    .text:00000000000002b0 .L0 
     /tmp/ccQjYMtJ.s:452    .text:00000000000002b8 .L0 
     /tmp/ccQjYMtJ.s:458    .text:00000000000002cc .L0 
     /tmp/ccQjYMtJ.s:459    .text:00000000000002d4 .L0 
     /tmp/ccQjYMtJ.s:472    .text:00000000000002f0 .L0 
     /tmp/ccQjYMtJ.s:485    .text:0000000000000300 .L0 
     /tmp/ccQjYMtJ.s:498    .text:0000000000000310 .L0 
     /tmp/ccQjYMtJ.s:421    .rodata.str1.8:00000000000001c0 .LC12
     /tmp/ccQjYMtJ.s:512    .text:0000000000000320 .L0 
     /tmp/ccQjYMtJ.s:520    .text:0000000000000330 .L0 
     /tmp/ccQjYMtJ.s:559    .text:0000000000000368 .L0 
     /tmp/ccQjYMtJ.s:585    .text:000000000000038c .L0 
     /tmp/ccQjYMtJ.s:590    .text:0000000000000398 .L0 
     /tmp/ccQjYMtJ.s:104    .text:000000000000008c .L11
     /tmp/ccQjYMtJ.s:127    .text:00000000000000b4 .L12
     /tmp/ccQjYMtJ.s:137    .text:00000000000000c8 .L5
     /tmp/ccQjYMtJ.s:112    .text:000000000000009c .L1
     /tmp/ccQjYMtJ.s:154    .text:00000000000000f4 .L6
     /tmp/ccQjYMtJ.s:167    .text:0000000000000110 .L8
     /tmp/ccQjYMtJ.s:223    .text:000000000000015c .L14
     /tmp/ccQjYMtJ.s:209    .text:000000000000013c .L15
     /tmp/ccQjYMtJ.s:303    .text:00000000000001d0 .L18
     /tmp/ccQjYMtJ.s:289    .text:00000000000001b0 .L19
     /tmp/ccQjYMtJ.s:382    .text:0000000000000244 .L22
     /tmp/ccQjYMtJ.s:368    .text:0000000000000224 .L23
     /tmp/ccQjYMtJ.s:468    .text:00000000000002f0 .L28
GAS LISTING /tmp/ccQjYMtJ.s 			page 26


     /tmp/ccQjYMtJ.s:463    .text:00000000000002e8 .L26
     /tmp/ccQjYMtJ.s:615    .text:00000000000003c4 .L31
     /tmp/ccQjYMtJ.s:594    .text:00000000000003ac .L32
     /tmp/ccQjYMtJ.s:1883   .debug_abbrev:0000000000000000 .Ldebug_abbrev0
     /tmp/ccQjYMtJ.s:2914   .debug_str:000000000000009d .LASF109
     /tmp/ccQjYMtJ.s:2998   .debug_str:00000000000003fd .LASF110
     /tmp/ccQjYMtJ.s:2972   .debug_str:0000000000000327 .LASF111
     /tmp/ccQjYMtJ.s:8      .text:0000000000000000 .Ltext0
     /tmp/ccQjYMtJ.s:648    .text:00000000000003d8 .Letext0
     /tmp/ccQjYMtJ.s:2882   .debug_line:0000000000000000 .Ldebug_line0
     /tmp/ccQjYMtJ.s:3020   .debug_str:00000000000004d1 .LASF0
     /tmp/ccQjYMtJ.s:3032   .debug_str:0000000000000531 .LASF1
     /tmp/ccQjYMtJ.s:3010   .debug_str:0000000000000492 .LASF2
     /tmp/ccQjYMtJ.s:2986   .debug_str:00000000000003c8 .LASF4
     /tmp/ccQjYMtJ.s:3072   .debug_str:000000000000063e .LASF3
     /tmp/ccQjYMtJ.s:2916   .debug_str:0000000000000161 .LASF5
     /tmp/ccQjYMtJ.s:3034   .debug_str:0000000000000544 .LASF6
     /tmp/ccQjYMtJ.s:3018   .debug_str:00000000000004be .LASF7
     /tmp/ccQjYMtJ.s:3098   .debug_str:0000000000000718 .LASF8
     /tmp/ccQjYMtJ.s:2970   .debug_str:0000000000000319 .LASF9
     /tmp/ccQjYMtJ.s:3048   .debug_str:00000000000005a0 .LASF10
     /tmp/ccQjYMtJ.s:3090   .debug_str:00000000000006e5 .LASF11
     /tmp/ccQjYMtJ.s:2918   .debug_str:0000000000000168 .LASF12
     /tmp/ccQjYMtJ.s:2892   .debug_str:0000000000000030 .LASF13
     /tmp/ccQjYMtJ.s:2924   .debug_str:0000000000000196 .LASF14
     /tmp/ccQjYMtJ.s:3064   .debug_str:0000000000000601 .LASF15
     /tmp/ccQjYMtJ.s:2932   .debug_str:00000000000001f6 .LASF16
     /tmp/ccQjYMtJ.s:3030   .debug_str:000000000000052b .LASF57
     /tmp/ccQjYMtJ.s:3062   .debug_str:00000000000005f6 .LASF17
     /tmp/ccQjYMtJ.s:3108   .debug_str:000000000000075c .LASF19
     /tmp/ccQjYMtJ.s:2980   .debug_str:0000000000000399 .LASF18
     /tmp/ccQjYMtJ.s:3046   .debug_str:0000000000000582 .LASF20
     /tmp/ccQjYMtJ.s:2912   .debug_str:000000000000008f .LASF21
     /tmp/ccQjYMtJ.s:2948   .debug_str:000000000000027c .LASF22
     /tmp/ccQjYMtJ.s:3080   .debug_str:0000000000000698 .LASF23
     /tmp/ccQjYMtJ.s:2888   .debug_str:0000000000000011 .LASF24
     /tmp/ccQjYMtJ.s:2894   .debug_str:0000000000000040 .LASF25
     /tmp/ccQjYMtJ.s:3078   .debug_str:0000000000000683 .LASF27
     /tmp/ccQjYMtJ.s:2946   .debug_str:0000000000000273 .LASF29
     /tmp/ccQjYMtJ.s:2944   .debug_str:000000000000025e .LASF31
     /tmp/ccQjYMtJ.s:3076   .debug_str:000000000000067c .LASF26
     /tmp/ccQjYMtJ.s:3052   .debug_str:00000000000005b4 .LASF28
     /tmp/ccQjYMtJ.s:3088   .debug_str:00000000000006de .LASF30
     /tmp/ccQjYMtJ.s:3082   .debug_str:00000000000006a5 .LASF32
     /tmp/ccQjYMtJ.s:2964   .debug_str:00000000000002f0 .LASF33
     /tmp/ccQjYMtJ.s:2934   .debug_str:000000000000020c .LASF34
     /tmp/ccQjYMtJ.s:2886   .debug_str:0000000000000009 .LASF35
     /tmp/ccQjYMtJ.s:2978   .debug_str:0000000000000385 .LASF36
     /tmp/ccQjYMtJ.s:2952   .debug_str:000000000000029f .LASF37
     /tmp/ccQjYMtJ.s:2920   .debug_str:0000000000000178 .LASF38
     /tmp/ccQjYMtJ.s:3112   .debug_str:000000000000077f .LASF39
     /tmp/ccQjYMtJ.s:2954   .debug_str:00000000000002a7 .LASF40
     /tmp/ccQjYMtJ.s:3022   .debug_str:00000000000004de .LASF41
     /tmp/ccQjYMtJ.s:3104   .debug_str:0000000000000744 .LASF42
     /tmp/ccQjYMtJ.s:2910   .debug_str:0000000000000088 .LASF43
     /tmp/ccQjYMtJ.s:2962   .debug_str:00000000000002dd .LASF44
     /tmp/ccQjYMtJ.s:2968   .debug_str:0000000000000313 .LASF45
GAS LISTING /tmp/ccQjYMtJ.s 			page 27


     /tmp/ccQjYMtJ.s:3086   .debug_str:00000000000006cc .LASF46
     /tmp/ccQjYMtJ.s:2908   .debug_str:0000000000000082 .LASF47
     /tmp/ccQjYMtJ.s:3116   .debug_str:000000000000078f .LASF48
     /tmp/ccQjYMtJ.s:3110   .debug_str:0000000000000774 .LASF49
     /tmp/ccQjYMtJ.s:3068   .debug_str:000000000000061d .LASF50
     /tmp/ccQjYMtJ.s:2992   .debug_str:00000000000003dd .LASF51
     /tmp/ccQjYMtJ.s:3002   .debug_str:0000000000000418 .LASF52
     /tmp/ccQjYMtJ.s:2922   .debug_str:000000000000018c .LASF53
     /tmp/ccQjYMtJ.s:2982   .debug_str:00000000000003aa .LASF54
     /tmp/ccQjYMtJ.s:3014   .debug_str:00000000000004ac .LASF55
     /tmp/ccQjYMtJ.s:2974   .debug_str:0000000000000352 .LASF56
     /tmp/ccQjYMtJ.s:3056   .debug_str:00000000000005cc .LASF74
     /tmp/ccQjYMtJ.s:2926   .debug_str:00000000000001a2 .LASF76
     /tmp/ccQjYMtJ.s:2984   .debug_str:00000000000003c0 .LASF58
     /tmp/ccQjYMtJ.s:2898   .debug_str:0000000000000055 .LASF112
     /tmp/ccQjYMtJ.s:2950   .debug_str:0000000000000297 .LASF113
     /tmp/ccQjYMtJ.s:3094   .debug_str:0000000000000707 .LASF59
     /tmp/ccQjYMtJ.s:3038   .debug_str:0000000000000562 .LASF61
     /tmp/ccQjYMtJ.s:3036   .debug_str:0000000000000557 .LASF85
     /tmp/ccQjYMtJ.s:3008   .debug_str:0000000000000477 .LASF90
     /tmp/ccQjYMtJ.s:3012   .debug_str:00000000000004a0 .LASF60
     /tmp/ccQjYMtJ.s:3006   .debug_str:000000000000045c .LASF62
     /tmp/ccQjYMtJ.s:3100   .debug_str:0000000000000728 .LASF63
     /tmp/ccQjYMtJ.s:3074   .debug_str:0000000000000650 .LASF64
     /tmp/ccQjYMtJ.s:3050   .debug_str:00000000000005af .LASF114
     /tmp/ccQjYMtJ.s:3066   .debug_str:0000000000000617 .LASF65
     /tmp/ccQjYMtJ.s:3084   .debug_str:00000000000006b8 .LASF66
     /tmp/ccQjYMtJ.s:2904   .debug_str:000000000000006d .LASF67
     /tmp/ccQjYMtJ.s:2966   .debug_str:00000000000002f8 .LASF68
     /tmp/ccQjYMtJ.s:3028   .debug_str:0000000000000510 .LASF69
     /tmp/ccQjYMtJ.s:2990   .debug_str:00000000000003d8 .LASF70
     /tmp/ccQjYMtJ.s:3026   .debug_str:000000000000050a .LASF71
     /tmp/ccQjYMtJ.s:2994   .debug_str:00000000000003e8 .LASF72
     /tmp/ccQjYMtJ.s:2988   .debug_str:00000000000003cf .LASF73
     /tmp/ccQjYMtJ.s:3102   .debug_str:0000000000000736 .LASF115
     /tmp/ccQjYMtJ.s:3004   .debug_str:0000000000000430 .LASF116
     /tmp/ccQjYMtJ.s:2928   .debug_str:00000000000001c7 .LASF75
     /tmp/ccQjYMtJ.s:2930   .debug_str:00000000000001d7 .LASF77
     /tmp/ccQjYMtJ.s:3000   .debug_str:000000000000040a .LASF78
     /tmp/ccQjYMtJ.s:2976   .debug_str:0000000000000368 .LASF79
     /tmp/ccQjYMtJ.s:2884   .debug_str:0000000000000000 .LASF80
     /tmp/ccQjYMtJ.s:2958   .debug_str:00000000000002c3 .LASF81
     /tmp/ccQjYMtJ.s:2942   .debug_str:0000000000000259 .LASF82
     /tmp/ccQjYMtJ.s:2890   .debug_str:000000000000002b .LASF83
     /tmp/ccQjYMtJ.s:3042   .debug_str:0000000000000578 .LASF84
     /tmp/ccQjYMtJ.s:3044   .debug_str:000000000000057d .LASF86
     /tmp/ccQjYMtJ.s:546    .text:0000000000000358 .LFB37
     /tmp/ccQjYMtJ.s:628    .text:00000000000003d8 .LFE37
     /tmp/ccQjYMtJ.s:2900   .debug_str:000000000000005d .LASF87
     /tmp/ccQjYMtJ.s:2902   .debug_str:0000000000000065 .LASF88
     /tmp/ccQjYMtJ.s:561    .text:0000000000000370 .LBB40
     /tmp/ccQjYMtJ.s:573    .text:0000000000000374 .LBE40
     /tmp/ccQjYMtJ.s:600    .text:00000000000003b0 .LBB42
     /tmp/ccQjYMtJ.s:607    .text:00000000000003b4 .LBE42
     /tmp/ccQjYMtJ.s:2726   .debug_loc:0000000000000000 .LLST12
     /tmp/ccQjYMtJ.s:581    .text:0000000000000388 .LVL58
     /tmp/ccQjYMtJ.s:593    .text:00000000000003ac .LVL59
GAS LISTING /tmp/ccQjYMtJ.s 			page 28


     /tmp/ccQjYMtJ.s:613    .text:00000000000003c0 .LVL62
     /tmp/ccQjYMtJ.s:3114   .debug_str:0000000000000787 .LASF89
     /tmp/ccQjYMtJ.s:3060   .debug_str:00000000000005e9 .LASF91
     /tmp/ccQjYMtJ.s:428    .text:0000000000000280 .LFB36
     /tmp/ccQjYMtJ.s:540    .text:0000000000000358 .LFE36
     /tmp/ccQjYMtJ.s:2733   .debug_loc:0000000000000023 .LLST7
     /tmp/ccQjYMtJ.s:474    .text:00000000000002f8 .LBB32
     /tmp/ccQjYMtJ.s:481    .text:00000000000002fc .LBE32
     /tmp/ccQjYMtJ.s:2747   .debug_loc:000000000000005c .LLST8
     /tmp/ccQjYMtJ.s:487    .text:0000000000000308 .LBB34
     /tmp/ccQjYMtJ.s:494    .text:000000000000030c .LBE34
     /tmp/ccQjYMtJ.s:2754   .debug_loc:000000000000007f .LLST9
     /tmp/ccQjYMtJ.s:500    .text:0000000000000318 .LBB36
     /tmp/ccQjYMtJ.s:507    .text:000000000000031c .LBE36
     /tmp/ccQjYMtJ.s:2761   .debug_loc:00000000000000a2 .LLST10
     /tmp/ccQjYMtJ.s:516    .text:0000000000000330 .LBB38
     /tmp/ccQjYMtJ.s:525    .text:0000000000000340 .LBE38
     /tmp/ccQjYMtJ.s:2768   .debug_loc:00000000000000c5 .LLST11
     /tmp/ccQjYMtJ.s:447    .text:00000000000002ac .LVL43
     /tmp/ccQjYMtJ.s:454    .text:00000000000002c8 .LVL44
     /tmp/ccQjYMtJ.s:461    .text:00000000000002e4 .LVL45
     /tmp/ccQjYMtJ.s:467    .text:00000000000002f0 .LVL46
     /tmp/ccQjYMtJ.s:514    .text:0000000000000330 .LVL53
     /tmp/ccQjYMtJ.s:529    .text:0000000000000348 .LVL55
     /tmp/ccQjYMtJ.s:2956   .debug_str:00000000000002bb .LASF92
     /tmp/ccQjYMtJ.s:349    .text:000000000000020c .LFB35
     /tmp/ccQjYMtJ.s:417    .text:0000000000000280 .LFE35
     /tmp/ccQjYMtJ.s:364    .text:0000000000000220 .LBB29
     /tmp/ccQjYMtJ.s:383    .text:0000000000000244 .LBE29
     /tmp/ccQjYMtJ.s:2776   .debug_loc:00000000000000e9 .LLST5
     /tmp/ccQjYMtJ.s:376    .text:000000000000023c .LVL34
     /tmp/ccQjYMtJ.s:390    .text:0000000000000254 .LBB30
     /tmp/ccQjYMtJ.s:399    .text:0000000000000264 .LBE30
     /tmp/ccQjYMtJ.s:2792   .debug_loc:0000000000000133 .LLST6
     /tmp/ccQjYMtJ.s:388    .text:0000000000000254 .LVL37
     /tmp/ccQjYMtJ.s:403    .text:000000000000026c .LVL39
     /tmp/ccQjYMtJ.s:3096   .debug_str:0000000000000710 .LASF93
     /tmp/ccQjYMtJ.s:270    .text:0000000000000198 .LFB34
     /tmp/ccQjYMtJ.s:338    .text:000000000000020c .LFE34
     /tmp/ccQjYMtJ.s:285    .text:00000000000001ac .LBB26
     /tmp/ccQjYMtJ.s:304    .text:00000000000001d0 .LBE26
     /tmp/ccQjYMtJ.s:2800   .debug_loc:0000000000000157 .LLST3
     /tmp/ccQjYMtJ.s:297    .text:00000000000001c8 .LVL25
     /tmp/ccQjYMtJ.s:311    .text:00000000000001e0 .LBB27
     /tmp/ccQjYMtJ.s:320    .text:00000000000001f0 .LBE27
     /tmp/ccQjYMtJ.s:2816   .debug_loc:00000000000001a1 .LLST4
     /tmp/ccQjYMtJ.s:309    .text:00000000000001e0 .LVL28
     /tmp/ccQjYMtJ.s:324    .text:00000000000001f8 .LVL30
     /tmp/ccQjYMtJ.s:3016   .debug_str:00000000000004b6 .LASF94
     /tmp/ccQjYMtJ.s:190    .text:0000000000000124 .LFB33
     /tmp/ccQjYMtJ.s:259    .text:0000000000000198 .LFE33
     /tmp/ccQjYMtJ.s:205    .text:0000000000000138 .LBB23
     /tmp/ccQjYMtJ.s:224    .text:000000000000015c .LBE23
     /tmp/ccQjYMtJ.s:2824   .debug_loc:00000000000001c5 .LLST1
     /tmp/ccQjYMtJ.s:217    .text:0000000000000154 .LVL16
     /tmp/ccQjYMtJ.s:231    .text:000000000000016c .LBB24
     /tmp/ccQjYMtJ.s:241    .text:000000000000017c .LBE24
GAS LISTING /tmp/ccQjYMtJ.s 			page 29


     /tmp/ccQjYMtJ.s:2840   .debug_loc:000000000000020f .LLST2
     /tmp/ccQjYMtJ.s:229    .text:000000000000016c .LVL19
     /tmp/ccQjYMtJ.s:245    .text:0000000000000184 .LVL21
     /tmp/ccQjYMtJ.s:2906   .debug_str:0000000000000079 .LASF95
     /tmp/ccQjYMtJ.s:2996   .debug_str:00000000000003f0 .LASF96
     /tmp/ccQjYMtJ.s:39     .text:0000000000000000 .LFB32
     /tmp/ccQjYMtJ.s:176    .text:0000000000000124 .LFE32
     /tmp/ccQjYMtJ.s:3058   .debug_str:00000000000005e4 .LASF97
     /tmp/ccQjYMtJ.s:2848   .debug_loc:0000000000000233 .LLST0
     /tmp/ccQjYMtJ.s:59     .text:0000000000000028 .LVL0
     /tmp/ccQjYMtJ.s:63     .text:0000000000000030 .LVL1
     /tmp/ccQjYMtJ.s:71     .text:0000000000000040 .LVL3
     /tmp/ccQjYMtJ.s:100    .text:0000000000000088 .LVL5
     /tmp/ccQjYMtJ.s:110    .text:000000000000009c .LVL7
     /tmp/ccQjYMtJ.s:134    .text:00000000000000c4 .LVL8
     /tmp/ccQjYMtJ.s:146    .text:00000000000000e0 .LVL9
     /tmp/ccQjYMtJ.s:151    .text:00000000000000f0 .LVL10
     /tmp/ccQjYMtJ.s:159    .text:00000000000000fc .LVL11
     /tmp/ccQjYMtJ.s:164    .text:000000000000010c .LVL12
     /tmp/ccQjYMtJ.s:173    .text:0000000000000120 .LVL13
     /tmp/ccQjYMtJ.s:3106   .debug_str:0000000000000757 .LASF98
     /tmp/ccQjYMtJ.s:3040   .debug_str:0000000000000572 .LASF99
     /tmp/ccQjYMtJ.s:3024   .debug_str:00000000000004e5 .LASF100
     /tmp/ccQjYMtJ.s:2936   .debug_str:0000000000000220 .LASF102
     /tmp/ccQjYMtJ.s:2960   .debug_str:00000000000002c8 .LASF101
     /tmp/ccQjYMtJ.s:2940   .debug_str:0000000000000246 .LASF103
     /tmp/ccQjYMtJ.s:2896   .debug_str:0000000000000049 .LASF104
     /tmp/ccQjYMtJ.s:3070   .debug_str:0000000000000635 .LASF105
     /tmp/ccQjYMtJ.s:3054   .debug_str:00000000000005c7 .LASF106
     /tmp/ccQjYMtJ.s:2938   .debug_str:000000000000022e .LASF107
     /tmp/ccQjYMtJ.s:3092   .debug_str:00000000000006f4 .LASF108
     /tmp/ccQjYMtJ.s:599    .text:00000000000003b0 .LVL60
     /tmp/ccQjYMtJ.s:605    .text:00000000000003b4 .LVL61
     /tmp/ccQjYMtJ.s:431    .text:0000000000000280 .LVL41
     /tmp/ccQjYMtJ.s:445    .text:00000000000002a4 .LVL42
     /tmp/ccQjYMtJ.s:473    .text:00000000000002f8 .LVL47
     /tmp/ccQjYMtJ.s:479    .text:00000000000002fc .LVL48
     /tmp/ccQjYMtJ.s:486    .text:0000000000000308 .LVL49
     /tmp/ccQjYMtJ.s:492    .text:000000000000030c .LVL50
     /tmp/ccQjYMtJ.s:499    .text:0000000000000318 .LVL51
     /tmp/ccQjYMtJ.s:505    .text:000000000000031c .LVL52
     /tmp/ccQjYMtJ.s:523    .text:0000000000000340 .LVL54
     /tmp/ccQjYMtJ.s:363    .text:0000000000000220 .LVL32
     /tmp/ccQjYMtJ.s:367    .text:0000000000000224 .LVL33
     /tmp/ccQjYMtJ.s:379    .text:0000000000000240 .LVL35
     /tmp/ccQjYMtJ.s:381    .text:0000000000000244 .LVL36
     /tmp/ccQjYMtJ.s:412    .text:0000000000000278 .LVL40
     /tmp/ccQjYMtJ.s:397    .text:0000000000000264 .LVL38
     /tmp/ccQjYMtJ.s:284    .text:00000000000001ac .LVL23
     /tmp/ccQjYMtJ.s:288    .text:00000000000001b0 .LVL24
     /tmp/ccQjYMtJ.s:300    .text:00000000000001cc .LVL26
     /tmp/ccQjYMtJ.s:302    .text:00000000000001d0 .LVL27
     /tmp/ccQjYMtJ.s:333    .text:0000000000000204 .LVL31
     /tmp/ccQjYMtJ.s:318    .text:00000000000001f0 .LVL29
     /tmp/ccQjYMtJ.s:204    .text:0000000000000138 .LVL14
     /tmp/ccQjYMtJ.s:208    .text:000000000000013c .LVL15
     /tmp/ccQjYMtJ.s:220    .text:0000000000000158 .LVL17
GAS LISTING /tmp/ccQjYMtJ.s 			page 30


     /tmp/ccQjYMtJ.s:222    .text:000000000000015c .LVL18
     /tmp/ccQjYMtJ.s:254    .text:0000000000000190 .LVL22
     /tmp/ccQjYMtJ.s:239    .text:000000000000017c .LVL20
     /tmp/ccQjYMtJ.s:67     .text:0000000000000038 .LVL2
     /tmp/ccQjYMtJ.s:82     .text:0000000000000050 .LVL4
     /tmp/ccQjYMtJ.s:103    .text:000000000000008c .LVL6
     /tmp/ccQjYMtJ.s:654    .debug_info:0000000000000000 .Ldebug_info0

UNDEFINED SYMBOLS
_Z11printStringPKc
_Z4getcv
_Z18Threads_C_API_testv
_ZN7_thread7runningE
_Z15thread_dispatchv
_Z13thread_createPP7_threadPFvPvES2_
_ZN5Riscv16interruptRoutineEv
