GAS LISTING /tmp/ccBvfaXD.s 			page 1


   1              		.file	"main.cpp"
   2              		.option nopic
   3              		.option norelax
   4              		.attribute arch, "rv64i2p0_m2p0_a2p0"
   5              		.attribute unaligned_access, 0
   6              		.attribute stack_align, 16
   7              		.text
   8              	.Ltext0:
   9              		.section	.rodata.str1.8,"aMS",@progbits,1
  10              		.align	3
  11              	.LC0:
  12 0000 556E6573 		.string	"Unesite broj testa? [1-7]\n"
  12      69746520 
  12      62726F6A 
  12      20746573 
  12      74613F20 
  13 001b 00000000 		.align	3
  13      00
  14              	.LC1:
  15 0020 4E696A65 		.string	"Nije navedeno da je zadatak 4 implementiran\n"
  15      206E6176 
  15      6564656E 
  15      6F206461 
  15      206A6520 
  16 004d 000000   		.align	3
  17              	.LC2:
  18 0050 54455354 		.string	"TEST 1 (zadatak 2, niti C API i sinhrona promena konteksta)\n"
  18      20312028 
  18      7A616461 
  18      74616B20 
  18      322C206E 
  19 008d 000000   		.align	3
  20              	.LC3:
  21 0090 54455354 		.string	"TEST 2 (zadatak 2., niti CPP API i sinhrona promena konteksta)\n"
  21      20322028 
  21      7A616461 
  21      74616B20 
  21      322E2C20 
  22              		.align	3
  23              	.LC4:
  24 00d0 54455354 		.string	"TEST 3 (zadatak 3., kompletan C API sa semaforima, sinhrona promena konteksta)\n"
  24      20332028 
  24      7A616461 
  24      74616B20 
  24      332E2C20 
  25              		.align	3
  26              	.LC5:
  27 0120 54455354 		.string	"TEST 4 (zadatak 3., kompletan CPP API sa semaforima, sinhrona promena konteksta)\n"
  27      20342028 
  27      7A616461 
  27      74616B20 
  27      332E2C20 
  28 0172 00000000 		.align	3
  28      0000
  29              	.LC6:
  30 0178 54657374 		.string	"Test se nije uspesno zavrsio\n"
  30      20736520 
GAS LISTING /tmp/ccBvfaXD.s 			page 2


  30      6E696A65 
  30      20757370 
  30      65736E6F 
  31 0196 0000     		.align	3
  32              	.LC7:
  33 0198 54455354 		.string	"TEST 7 (zadatak 2., testiranje da li se korisnicki kod izvrsava u korisnickom rezimu)\n"
  33      20372028 
  33      7A616461 
  33      74616B20 
  33      322E2C20 
  34 01ef 00       		.align	3
  35              	.LC8:
  36 01f0 4E697374 		.string	"Niste uneli odgovarajuci broj za test\n"
  36      6520756E 
  36      656C6920 
  36      6F64676F 
  36      76617261 
  37              		.text
  38              		.align	2
  39              		.globl	_Z8userMainv
  41              	_Z8userMainv:
  42              	.LFB33:
  43              		.file 1 "src/main.cpp"
   1:src/main.cpp  **** #include "../h/riscv.hpp"
   2:src/main.cpp  **** #include "../h/_thread.hpp"
   3:src/main.cpp  **** #include "../h/syscall_c.hpp"
   4:src/main.cpp  **** #include "../test/printing.hpp"
   5:src/main.cpp  **** #include "../h/MemoryAllocator.h"
   6:src/main.cpp  **** 
   7:src/main.cpp  **** 
   8:src/main.cpp  **** //#include "../test/userMain.cpp"
   9:src/main.cpp  **** thread_t nitA;
  10:src/main.cpp  **** thread_t nitB;
  11:src/main.cpp  **** thread_t nitC;
  12:src/main.cpp  **** 
  13:src/main.cpp  **** 
  14:src/main.cpp  **** 
  15:src/main.cpp  **** 
  16:src/main.cpp  **** #define LEVEL_1_IMPLEMENTED 1
  17:src/main.cpp  **** #define LEVEL_2_IMPLEMENTED 1
  18:src/main.cpp  **** #define LEVEL_3_IMPLEMENTED 1
  19:src/main.cpp  **** #define LEVEL_4_IMPLEMENTED 0
  20:src/main.cpp  **** 
  21:src/main.cpp  **** #if LEVEL_2_IMPLEMENTED == 1
  22:src/main.cpp  **** // TEST 1 (zadatak 2, niti C API i sinhrona promena konteksta)
  23:src/main.cpp  **** #include "../test/Threads_C_API_test.hpp"
  24:src/main.cpp  **** // TEST 2 (zadatak 2., niti CPP API i sinhrona promena konteksta)
  25:src/main.cpp  **** #include "../test/Threads_CPP_API_test.hpp"
  26:src/main.cpp  **** // TEST 7 (zadatak 2., testiranje da li se korisnicki kod izvrsava u korisnickom rezimu)
  27:src/main.cpp  **** //#include "../test/System_Mode_test.hpp"
  28:src/main.cpp  **** #endif
  29:src/main.cpp  **** 
  30:src/main.cpp  **** #if LEVEL_3_IMPLEMENTED == 1
  31:src/main.cpp  **** // TEST 3 (zadatak 3., kompletan C API sa semaforima, sinhrona promena konteksta)
  32:src/main.cpp  **** #include "../test/ConsumerProducer_C_API_test.hpp"
  33:src/main.cpp  **** // TEST 4 (zadatak 3., kompletan CPP API sa semaforima, sinhrona promena konteksta)
  34:src/main.cpp  **** #include "../test/ConsumerProducer_CPP_Sync_API_test.hpp"
GAS LISTING /tmp/ccBvfaXD.s 			page 3


  35:src/main.cpp  **** #endif
  36:src/main.cpp  **** 
  37:src/main.cpp  **** #if LEVEL_4_IMPLEMENTED == 1
  38:src/main.cpp  **** // TEST 5 (zadatak 4., thread_sleep test C API)
  39:src/main.cpp  **** #include "../test/ThreadSleep_C_API_test.hpp"
  40:src/main.cpp  **** // TEST 6 (zadatak 4. CPP API i asinhrona promena konteksta)
  41:src/main.cpp  **** #include "../test/ConsumerProducer_CPP_API_test.hpp"
  42:src/main.cpp  **** #include "System_Mode_test.hpp"
  43:src/main.cpp  **** 
  44:src/main.cpp  **** #endif
  45:src/main.cpp  **** 
  46:src/main.cpp  **** void userMain() {
  44              		.loc 1 46 17
  45              		.cfi_startproc
  46 0000 130101FE 		addi	sp,sp,-32
  47              		.cfi_def_cfa_offset 32
  48 0004 233C1100 		sd	ra,24(sp)
  49 0008 23388100 		sd	s0,16(sp)
  50 000c 23349100 		sd	s1,8(sp)
  51 0010 23302101 		sd	s2,0(sp)
  52              		.cfi_offset 1, -8
  53              		.cfi_offset 8, -16
  54              		.cfi_offset 9, -24
  55              		.cfi_offset 18, -32
  56 0014 13040102 		addi	s0,sp,32
  57              		.cfi_def_cfa 8, 0
  47:src/main.cpp  ****     printString("Unesite broj testa? [1-7]\n");
  58              		.loc 1 47 5
  59              		.loc 1 47 16 is_stmt 0
  60 0018 17050000 		lla	a0,.LC0
  60      13050500 
  61 0020 97000000 		call	_Z11printStringPKc
  61      E7800000 
  62              	.LVL0:
  48:src/main.cpp  ****     int test = getc() - '0';
  63              		.loc 1 48 5 is_stmt 1
  64              		.loc 1 48 20 is_stmt 0
  65 0028 97000000 		call	_Z4getcv
  65      E7800000 
  66              	.LVL1:
  67 0030 13090500 		mv	s2,a0
  68              		.loc 1 48 25
  69 0034 9B0405FD 		addiw	s1,a0,-48
  70              	.LVL2:
  49:src/main.cpp  ****     getc(); // Enter posle broja
  71              		.loc 1 49 5 is_stmt 1
  72              		.loc 1 49 9 is_stmt 0
  73 0038 97000000 		call	_Z4getcv
  73      E7800000 
  74              	.LVL3:
  50:src/main.cpp  **** 
  51:src/main.cpp  ****     if ((test >= 1 && test <= 2) || test == 7) {
  75              		.loc 1 51 5 is_stmt 1
  52:src/main.cpp  ****         if (LEVEL_2_IMPLEMENTED == 0) {
  53:src/main.cpp  ****             printString("Nije navedeno da je zadatak 2 implementiran\n");
  54:src/main.cpp  ****             return;
  55:src/main.cpp  ****         }
GAS LISTING /tmp/ccBvfaXD.s 			page 4


  56:src/main.cpp  ****     }
  57:src/main.cpp  **** 
  58:src/main.cpp  ****     if (test >= 3 && test <= 4) {
  76              		.loc 1 58 5
  59:src/main.cpp  ****         if (LEVEL_3_IMPLEMENTED == 0) {
  60:src/main.cpp  ****             printString("Nije navedeno da je zadatak 3 implementiran\n");
  61:src/main.cpp  ****             return;
  62:src/main.cpp  ****         }
  63:src/main.cpp  ****     }
  64:src/main.cpp  **** 
  65:src/main.cpp  ****     if (test >= 5 && test <= 6) {
  77              		.loc 1 65 5
  78              		.loc 1 65 19 is_stmt 0
  79 0040 1B09B9FC 		addiw	s2,s2,-53
  80              		.loc 1 65 5
  81 0044 93071000 		li	a5,1
  82 0048 63F42703 		bleu	s2,a5,.L12
  66:src/main.cpp  ****         if (LEVEL_4_IMPLEMENTED == 0) {
  67:src/main.cpp  ****             printString("Nije navedeno da je zadatak 4 implementiran\n");
  68:src/main.cpp  ****             return;
  69:src/main.cpp  ****         }
  70:src/main.cpp  ****     }
  71:src/main.cpp  **** 
  72:src/main.cpp  ****     switch (test) {
  83              		.loc 1 72 5 is_stmt 1
  84 004c 93077000 		li	a5,7
  85 0050 63EE970C 		bgtu	s1,a5,.L4
  86 0054 93942400 		slli	s1,s1,2
  87 0058 17070000 		lla	a4,.L6
  87      13070700 
  88 0060 B384E400 		add	s1,s1,a4
  89 0064 83A70400 		lw	a5,0(s1)
  90 0068 B387E700 		add	a5,a5,a4
  91 006c 67800700 		jr	a5
  92              		.section	.rodata
  93              		.align	2
  94              		.align	2
  95              	.L6:
  96 0000 00000000 		.word	.L4-.L6
  97 0004 00000000 		.word	.L10-.L6
  98 0008 00000000 		.word	.L9-.L6
  99 000c 00000000 		.word	.L8-.L6
 100 0010 00000000 		.word	.L7-.L6
 101 0014 00000000 		.word	.L1-.L6
 102 0018 00000000 		.word	.L1-.L6
 103 001c 00000000 		.word	.L5-.L6
 104              		.text
 105              	.L12:
  66:src/main.cpp  ****         if (LEVEL_4_IMPLEMENTED == 0) {
 106              		.loc 1 66 9
  67:src/main.cpp  ****             return;
 107              		.loc 1 67 13
  67:src/main.cpp  ****             return;
 108              		.loc 1 67 24 is_stmt 0
 109 0070 17050000 		lla	a0,.LC1
 109      13050500 
 110 0078 97000000 		call	_Z11printStringPKc
GAS LISTING /tmp/ccBvfaXD.s 			page 5


 110      E7800000 
 111              	.LVL4:
  68:src/main.cpp  ****         }
 112              		.loc 1 68 13 is_stmt 1
 113              	.L1:
  73:src/main.cpp  ****         case 1:
  74:src/main.cpp  **** #if LEVEL_2_IMPLEMENTED == 1
  75:src/main.cpp  ****             Threads_C_API_test();
  76:src/main.cpp  ****             printString("TEST 1 (zadatak 2, niti C API i sinhrona promena konteksta)\n");
  77:src/main.cpp  **** #endif
  78:src/main.cpp  ****             break;
  79:src/main.cpp  ****         case 2:
  80:src/main.cpp  **** #if LEVEL_2_IMPLEMENTED == 1
  81:src/main.cpp  ****             Threads_CPP_API_test();
  82:src/main.cpp  ****             printString("TEST 2 (zadatak 2., niti CPP API i sinhrona promena konteksta)\n");
  83:src/main.cpp  **** #endif
  84:src/main.cpp  ****             break;
  85:src/main.cpp  ****         case 3:
  86:src/main.cpp  **** #if LEVEL_3_IMPLEMENTED == 1
  87:src/main.cpp  ****             producerConsumer_C_API();
  88:src/main.cpp  ****             printString("TEST 3 (zadatak 3., kompletan C API sa semaforima, sinhrona promena kontek
  89:src/main.cpp  **** #endif
  90:src/main.cpp  ****             break;
  91:src/main.cpp  ****         case 4:
  92:src/main.cpp  **** #if LEVEL_3_IMPLEMENTED == 1
  93:src/main.cpp  ****             producerConsumer_CPP_Sync_API();
  94:src/main.cpp  ****             printString("TEST 4 (zadatak 3., kompletan CPP API sa semaforima, sinhrona promena kont
  95:src/main.cpp  **** #endif
  96:src/main.cpp  ****             break;
  97:src/main.cpp  ****         case 5:
  98:src/main.cpp  **** #if LEVEL_4_IMPLEMENTED == 1
  99:src/main.cpp  ****             testSleeping();
 100:src/main.cpp  ****             printString("TEST 5 (zadatak 4., thread_sleep test C API)\n");
 101:src/main.cpp  **** #endif
 102:src/main.cpp  ****             break;
 103:src/main.cpp  ****         case 6:
 104:src/main.cpp  **** #if LEVEL_4_IMPLEMENTED == 1
 105:src/main.cpp  ****             testConsumerProducer();
 106:src/main.cpp  ****             printString("TEST 6 (zadatak 4. CPP API i asinhrona promena konteksta)\n");
 107:src/main.cpp  **** #endif
 108:src/main.cpp  ****             break;
 109:src/main.cpp  ****         case 7:
 110:src/main.cpp  **** #if LEVEL_2_IMPLEMENTED == 1
 111:src/main.cpp  ****             //System_Mode_test();
 112:src/main.cpp  ****             printString("Test se nije uspesno zavrsio\n");
 113:src/main.cpp  ****             printString("TEST 7 (zadatak 2., testiranje da li se korisnicki kod izvrsava u korisnic
 114:src/main.cpp  **** #endif
 115:src/main.cpp  ****             break;
 116:src/main.cpp  ****         default:
 117:src/main.cpp  ****             printString("Niste uneli odgovarajuci broj za test\n");
 118:src/main.cpp  ****     }
 119:src/main.cpp  **** }
 114              		.loc 1 119 1 is_stmt 0
 115 0080 83308101 		ld	ra,24(sp)
 116              		.cfi_remember_state
 117              		.cfi_restore 1
 118 0084 03340101 		ld	s0,16(sp)
GAS LISTING /tmp/ccBvfaXD.s 			page 6


 119              		.cfi_restore 8
 120              		.cfi_def_cfa 2, 32
 121 0088 83348100 		ld	s1,8(sp)
 122              		.cfi_restore 9
 123 008c 03390100 		ld	s2,0(sp)
 124              		.cfi_restore 18
 125 0090 13010102 		addi	sp,sp,32
 126              		.cfi_def_cfa_offset 0
 127 0094 67800000 		jr	ra
 128              	.L10:
 129              		.cfi_restore_state
  73:src/main.cpp  ****         case 1:
 130              		.loc 1 73 9 is_stmt 1
  75:src/main.cpp  ****             printString("TEST 1 (zadatak 2, niti C API i sinhrona promena konteksta)\n");
 131              		.loc 1 75 13
  75:src/main.cpp  ****             printString("TEST 1 (zadatak 2, niti C API i sinhrona promena konteksta)\n");
 132              		.loc 1 75 31 is_stmt 0
 133 0098 97000000 		call	_Z18Threads_C_API_testv
 133      E7800000 
 134              	.LVL5:
  76:src/main.cpp  **** #endif
 135              		.loc 1 76 13 is_stmt 1
  76:src/main.cpp  **** #endif
 136              		.loc 1 76 24 is_stmt 0
 137 00a0 17050000 		lla	a0,.LC2
 137      13050500 
 138 00a8 97000000 		call	_Z11printStringPKc
 138      E7800000 
 139              	.LVL6:
  78:src/main.cpp  ****         case 2:
 140              		.loc 1 78 13 is_stmt 1
 141 00b0 6FF01FFD 		j	.L1
 142              	.L9:
  79:src/main.cpp  **** #if LEVEL_2_IMPLEMENTED == 1
 143              		.loc 1 79 9
  81:src/main.cpp  ****             printString("TEST 2 (zadatak 2., niti CPP API i sinhrona promena konteksta)\n");
 144              		.loc 1 81 13
  81:src/main.cpp  ****             printString("TEST 2 (zadatak 2., niti CPP API i sinhrona promena konteksta)\n");
 145              		.loc 1 81 33 is_stmt 0
 146 00b4 97000000 		call	_Z20Threads_CPP_API_testv
 146      E7800000 
 147              	.LVL7:
  82:src/main.cpp  **** #endif
 148              		.loc 1 82 13 is_stmt 1
  82:src/main.cpp  **** #endif
 149              		.loc 1 82 24 is_stmt 0
 150 00bc 17050000 		lla	a0,.LC3
 150      13050500 
 151 00c4 97000000 		call	_Z11printStringPKc
 151      E7800000 
 152              	.LVL8:
  84:src/main.cpp  ****         case 3:
 153              		.loc 1 84 13 is_stmt 1
 154 00cc 6FF05FFB 		j	.L1
 155              	.L8:
  85:src/main.cpp  **** #if LEVEL_3_IMPLEMENTED == 1
 156              		.loc 1 85 9
GAS LISTING /tmp/ccBvfaXD.s 			page 7


  87:src/main.cpp  ****             printString("TEST 3 (zadatak 3., kompletan C API sa semaforima, sinhrona promena kontek
 157              		.loc 1 87 13
  87:src/main.cpp  ****             printString("TEST 3 (zadatak 3., kompletan C API sa semaforima, sinhrona promena kontek
 158              		.loc 1 87 35 is_stmt 0
 159 00d0 97000000 		call	_Z22producerConsumer_C_APIv
 159      E7800000 
 160              	.LVL9:
  88:src/main.cpp  **** #endif
 161              		.loc 1 88 13 is_stmt 1
  88:src/main.cpp  **** #endif
 162              		.loc 1 88 24 is_stmt 0
 163 00d8 17050000 		lla	a0,.LC4
 163      13050500 
 164 00e0 97000000 		call	_Z11printStringPKc
 164      E7800000 
 165              	.LVL10:
  90:src/main.cpp  ****         case 4:
 166              		.loc 1 90 13 is_stmt 1
 167 00e8 6FF09FF9 		j	.L1
 168              	.L7:
  91:src/main.cpp  **** #if LEVEL_3_IMPLEMENTED == 1
 169              		.loc 1 91 9
  93:src/main.cpp  ****             printString("TEST 4 (zadatak 3., kompletan CPP API sa semaforima, sinhrona promena kont
 170              		.loc 1 93 13
  93:src/main.cpp  ****             printString("TEST 4 (zadatak 3., kompletan CPP API sa semaforima, sinhrona promena kont
 171              		.loc 1 93 42 is_stmt 0
 172 00ec 97000000 		call	_Z29producerConsumer_CPP_Sync_APIv
 172      E7800000 
 173              	.LVL11:
  94:src/main.cpp  **** #endif
 174              		.loc 1 94 13 is_stmt 1
  94:src/main.cpp  **** #endif
 175              		.loc 1 94 24 is_stmt 0
 176 00f4 17050000 		lla	a0,.LC5
 176      13050500 
 177 00fc 97000000 		call	_Z11printStringPKc
 177      E7800000 
 178              	.LVL12:
  96:src/main.cpp  ****         case 5:
 179              		.loc 1 96 13 is_stmt 1
 180 0104 6FF0DFF7 		j	.L1
 181              	.L5:
 109:src/main.cpp  **** #if LEVEL_2_IMPLEMENTED == 1
 182              		.loc 1 109 9
 112:src/main.cpp  ****             printString("TEST 7 (zadatak 2., testiranje da li se korisnicki kod izvrsava u korisnic
 183              		.loc 1 112 13
 112:src/main.cpp  ****             printString("TEST 7 (zadatak 2., testiranje da li se korisnicki kod izvrsava u korisnic
 184              		.loc 1 112 24 is_stmt 0
 185 0108 17050000 		lla	a0,.LC6
 185      13050500 
 186 0110 97000000 		call	_Z11printStringPKc
 186      E7800000 
 187              	.LVL13:
 113:src/main.cpp  **** #endif
 188              		.loc 1 113 13 is_stmt 1
 113:src/main.cpp  **** #endif
 189              		.loc 1 113 24 is_stmt 0
GAS LISTING /tmp/ccBvfaXD.s 			page 8


 190 0118 17050000 		lla	a0,.LC7
 190      13050500 
 191 0120 97000000 		call	_Z11printStringPKc
 191      E7800000 
 192              	.LVL14:
 115:src/main.cpp  ****         default:
 193              		.loc 1 115 13 is_stmt 1
 194 0128 6FF09FF5 		j	.L1
 195              	.L4:
 116:src/main.cpp  ****             printString("Niste uneli odgovarajuci broj za test\n");
 196              		.loc 1 116 9
 117:src/main.cpp  ****     }
 197              		.loc 1 117 13
 117:src/main.cpp  ****     }
 198              		.loc 1 117 24 is_stmt 0
 199 012c 17050000 		lla	a0,.LC8
 199      13050500 
 200 0134 97000000 		call	_Z11printStringPKc
 200      E7800000 
 201              	.LVL15:
 202 013c 6FF05FF4 		j	.L1
 203              		.cfi_endproc
 204              	.LFE33:
 206              		.section	.rodata.str1.8
 207 0217 00       		.align	3
 208              	.LC9:
 209 0218 5A415652 		.string	"ZAVRSENA JE WRAPPER FJA\n"
 209      53454E41 
 209      204A4520 
 209      57524150 
 209      50455220 
 210              		.text
 211              		.align	2
 212              		.globl	_Z7wrapperPv
 214              	_Z7wrapperPv:
 215              	.LFB34:
 120:src/main.cpp  **** 
 121:src/main.cpp  **** 
 122:src/main.cpp  **** 
 123:src/main.cpp  **** 
 124:src/main.cpp  **** 
 125:src/main.cpp  **** void wrapper(void* arg){
 216              		.loc 1 125 24 is_stmt 1
 217              		.cfi_startproc
 218              	.LVL16:
 219 0140 130101FF 		addi	sp,sp,-16
 220              		.cfi_def_cfa_offset 16
 221 0144 23341100 		sd	ra,8(sp)
 222 0148 23308100 		sd	s0,0(sp)
 223              		.cfi_offset 1, -8
 224              		.cfi_offset 8, -16
 225 014c 13040101 		addi	s0,sp,16
 226              		.cfi_def_cfa 8, 0
 227 0150 6F00C000 		j	.L16
 228              	.LVL17:
 229              	.L14:
 126:src/main.cpp  **** 
GAS LISTING /tmp/ccBvfaXD.s 			page 9


 127:src/main.cpp  ****     while(!nitA->isFinished() || !nitB->isFinished() || !nitC->isFinished()){
 128:src/main.cpp  ****         thread_dispatch();
 230              		.loc 1 128 9 discriminator 5
 231              		.loc 1 128 24 is_stmt 0 discriminator 5
 232 0154 97000000 		call	_Z15thread_dispatchv
 232      E7800000 
 233              	.LVL18:
 234              	.L16:
 127:src/main.cpp  ****         thread_dispatch();
 235              		.loc 1 127 5 is_stmt 1
 127:src/main.cpp  ****         thread_dispatch();
 236              		.loc 1 127 54
 127:src/main.cpp  ****         thread_dispatch();
 237              		.loc 1 127 28 is_stmt 0
 238 015c 97070000 		ld	a5,nitA
 238      83B70700 
 239              	.LVL19:
 240              	.LBB16:
 241              	.LBB17:
 242              		.file 2 "src/../h/_thread.hpp"
   1:src/../h/_thread.hpp **** //
   2:src/../h/_thread.hpp **** // Created by basara on 19.6.24..
   3:src/../h/_thread.hpp **** //
   4:src/../h/_thread.hpp **** 
   5:src/../h/_thread.hpp **** #ifndef PROJECT_BASE_HPP
   6:src/../h/_thread.hpp **** #define PROJECT_BASE_HPP
   7:src/../h/_thread.hpp **** 
   8:src/../h/_thread.hpp **** #include "../lib/hw.h"
   9:src/../h/_thread.hpp **** #include "scheduler.hpp"
  10:src/../h/_thread.hpp **** 
  11:src/../h/_thread.hpp **** typedef _thread* thread_t;
  12:src/../h/_thread.hpp **** class _thread{
  13:src/../h/_thread.hpp **** public:
  14:src/../h/_thread.hpp ****     static _thread *running;
  15:src/../h/_thread.hpp **** 
  16:src/../h/_thread.hpp ****     using Body = void (*)(void(*)); //pokazivac na funkciju koja nema argumente ni povratnu vrednos
  17:src/../h/_thread.hpp **** 
  18:src/../h/_thread.hpp ****     ~_thread() {delete[] stack;}
  19:src/../h/_thread.hpp **** 
  20:src/../h/_thread.hpp ****     bool isFinished() const { return finished; }
 243              		.loc 2 20 31 is_stmt 1
 244              		.loc 2 20 38 is_stmt 0
 245 0164 83C78702 		lbu	a5,40(a5)
 246              	.LVL20:
 247              	.LBE17:
 248              	.LBE16:
 127:src/main.cpp  ****         thread_dispatch();
 249              		.loc 1 127 54
 250 0168 E38607FE 		beqz	a5,.L14
 127:src/main.cpp  ****         thread_dispatch();
 251              		.loc 1 127 51 discriminator 2
 252 016c 97070000 		ld	a5,nitB
 252      83B70700 
 253              	.LVL21:
 254              	.LBB18:
 255              	.LBB19:
 256              		.loc 2 20 31 is_stmt 1 discriminator 2
GAS LISTING /tmp/ccBvfaXD.s 			page 10


 257              		.loc 2 20 38 is_stmt 0 discriminator 2
 258 0174 83C78702 		lbu	a5,40(a5)
 259              	.LVL22:
 260              	.LBE19:
 261              	.LBE18:
 127:src/main.cpp  ****         thread_dispatch();
 262              		.loc 1 127 31 discriminator 2
 263 0178 E38E07FC 		beqz	a5,.L14
 127:src/main.cpp  ****         thread_dispatch();
 264              		.loc 1 127 74 discriminator 4
 265 017c 97070000 		ld	a5,nitC
 265      83B70700 
 266              	.LVL23:
 267              	.LBB20:
 268              	.LBB21:
 269              		.loc 2 20 31 is_stmt 1 discriminator 4
 270              		.loc 2 20 38 is_stmt 0 discriminator 4
 271 0184 83C78702 		lbu	a5,40(a5)
 272              	.LVL24:
 273              	.LBE21:
 274              	.LBE20:
 127:src/main.cpp  ****         thread_dispatch();
 275              		.loc 1 127 54 discriminator 4
 276 0188 E38607FC 		beqz	a5,.L14
 129:src/main.cpp  ****     }
 130:src/main.cpp  **** 
 131:src/main.cpp  ****     printString("ZAVRSENA JE WRAPPER FJA\n");
 277              		.loc 1 131 5 is_stmt 1
 278              		.loc 1 131 16 is_stmt 0
 279 018c 17050000 		lla	a0,.LC9
 279      13050500 
 280 0194 97000000 		call	_Z11printStringPKc
 280      E7800000 
 281              	.LVL25:
 132:src/main.cpp  ****     _thread::running->setFinished(true);
 282              		.loc 1 132 5 is_stmt 1
 283              	.LBB22:
 284              	.LBB23:
  21:src/../h/_thread.hpp **** 
  22:src/../h/_thread.hpp ****     void setFinished(bool fin) { _thread::finished = fin; }
 285              		.loc 2 22 34
 286              		.loc 2 22 52 is_stmt 0
 287 019c 97070000 		ld	a5,_ZN7_thread7runningE
 287      83B70700 
 288 01a4 13071000 		li	a4,1
 289 01a8 2384E702 		sb	a4,40(a5)
 290              	.LVL26:
 291              	.LBE23:
 292              	.LBE22:
 133:src/main.cpp  ****     thread_dispatch();
 293              		.loc 1 133 5 is_stmt 1
 294              		.loc 1 133 20 is_stmt 0
 295 01ac 97000000 		call	_Z15thread_dispatchv
 295      E7800000 
 296              	.LVL27:
 134:src/main.cpp  **** }
 297              		.loc 1 134 1
GAS LISTING /tmp/ccBvfaXD.s 			page 11


 298 01b4 83308100 		ld	ra,8(sp)
 299              		.cfi_restore 1
 300 01b8 03340100 		ld	s0,0(sp)
 301              		.cfi_restore 8
 302              		.cfi_def_cfa 2, 16
 303 01bc 13010101 		addi	sp,sp,16
 304              		.cfi_def_cfa_offset 0
 305 01c0 67800000 		jr	ra
 306              		.cfi_endproc
 307              	.LFE34:
 309              		.align	2
 310              		.globl	main
 312              	main:
 313              	.LFB35:
 135:src/main.cpp  **** 
 136:src/main.cpp  **** int main()
 137:src/main.cpp  **** {
 314              		.loc 1 137 1 is_stmt 1
 315              		.cfi_startproc
 316 01c4 130101FE 		addi	sp,sp,-32
 317              		.cfi_def_cfa_offset 32
 318 01c8 233C1100 		sd	ra,24(sp)
 319 01cc 23388100 		sd	s0,16(sp)
 320              		.cfi_offset 1, -8
 321              		.cfi_offset 8, -16
 322 01d0 13040102 		addi	s0,sp,32
 323              		.cfi_def_cfa 8, 0
 138:src/main.cpp  ****     MemoryAllocator::init_mem();
 324              		.loc 1 138 5
 325              	.LBB24:
 326              	.LBB25:
 327              		.file 3 "src/../h/MemoryAllocator.h"
   1:src/../h/MemoryAllocator.h **** //
   2:src/../h/MemoryAllocator.h **** // Created by basara on 9.8.24..
   3:src/../h/MemoryAllocator.h **** //
   4:src/../h/MemoryAllocator.h **** 
   5:src/../h/MemoryAllocator.h **** #ifndef OS1_PROJEKAT_MEMORYALLOCATOR_H
   6:src/../h/MemoryAllocator.h **** #define OS1_PROJEKAT_MEMORYALLOCATOR_H
   7:src/../h/MemoryAllocator.h **** 
   8:src/../h/MemoryAllocator.h **** #include "../lib/hw.h"
   9:src/../h/MemoryAllocator.h **** 
  10:src/../h/MemoryAllocator.h **** struct Mem_Block {
  11:src/../h/MemoryAllocator.h ****     Mem_Block* next=nullptr;
  12:src/../h/MemoryAllocator.h ****     Mem_Block* prev=nullptr;
  13:src/../h/MemoryAllocator.h ****     size_t size;
  14:src/../h/MemoryAllocator.h **** };
  15:src/../h/MemoryAllocator.h **** 
  16:src/../h/MemoryAllocator.h **** 
  17:src/../h/MemoryAllocator.h **** class MemoryAllocator {
  18:src/../h/MemoryAllocator.h **** public:
  19:src/../h/MemoryAllocator.h **** 
  20:src/../h/MemoryAllocator.h ****     static void* mem_alloc(size_t size);
  21:src/../h/MemoryAllocator.h **** 
  22:src/../h/MemoryAllocator.h ****     static int mem_free(void*);
  23:src/../h/MemoryAllocator.h **** 
  24:src/../h/MemoryAllocator.h ****     static void init_mem(){
  25:src/../h/MemoryAllocator.h ****         free_Block = (Mem_Block*)HEAP_START_ADDR;
GAS LISTING /tmp/ccBvfaXD.s 			page 12


 328              		.loc 3 25 9
 329              		.loc 3 25 20 is_stmt 0
 330 01d4 97070000 		ld	a5,HEAP_START_ADDR
 330      83B70700 
 331 01dc 97060000 		lla	a3,_ZN15MemoryAllocator10free_BlockE
 331      93860600 
 332 01e4 23B0F600 		sd	a5,0(a3)
  26:src/../h/MemoryAllocator.h ****         free_Block->size = (size_t)HEAP_END_ADDR - (size_t)HEAP_START_ADDR;
 333              		.loc 3 26 9 is_stmt 1
 334              		.loc 3 26 50 is_stmt 0
 335 01e8 17070000 		ld	a4,HEAP_END_ADDR
 335      03370700 
 336 01f0 3307F740 		sub	a4,a4,a5
 337              		.loc 3 26 26
 338 01f4 23B8E700 		sd	a4,16(a5)
  27:src/../h/MemoryAllocator.h ****         free_Block->next = nullptr;
 339              		.loc 3 27 9 is_stmt 1
 340              		.loc 3 27 26 is_stmt 0
 341 01f8 23B00700 		sd	zero,0(a5)
  28:src/../h/MemoryAllocator.h ****         free_Block->prev = nullptr;
 342              		.loc 3 28 9 is_stmt 1
 343              		.loc 3 28 21 is_stmt 0
 344 01fc 83B70600 		ld	a5,0(a3)
 345              		.loc 3 28 26
 346 0200 23B40700 		sd	zero,8(a5)
 347              	.LBE25:
 348              	.LBE24:
 139:src/main.cpp  ****     Riscv::w_stvec((uint64) &Riscv::interruptRoutine);    //upisuje adresu prekidne rutine
 349              		.loc 1 139 5 is_stmt 1
 350              		.loc 1 139 19 is_stmt 0
 351 0204 97070000 		lla	a5,_ZN5Riscv16interruptRoutineEv
 351      93870700 
 352              	.LVL28:
 353              	.LBB26:
 354              	.LBB27:
 355              		.file 4 "src/../h/riscv.hpp"
   1:src/../h/riscv.hpp **** //
   2:src/../h/riscv.hpp **** // Created by marko on 20.4.22..
   3:src/../h/riscv.hpp **** //
   4:src/../h/riscv.hpp **** 
   5:src/../h/riscv.hpp **** #ifndef OS_PROJEKAT_RISCV_HPP
   6:src/../h/riscv.hpp **** #define OS_PROJEKAT_RISCV_HPP
   7:src/../h/riscv.hpp **** 
   8:src/../h/riscv.hpp **** 
   9:src/../h/riscv.hpp **** #include "../lib/hw.h"
  10:src/../h/riscv.hpp **** 
  11:src/../h/riscv.hpp **** 
  12:src/../h/riscv.hpp **** class Riscv
  13:src/../h/riscv.hpp **** {
  14:src/../h/riscv.hpp **** public:
  15:src/../h/riscv.hpp **** 
  16:src/../h/riscv.hpp ****     // pop status.spp and sstatus.spie bits
  17:src/../h/riscv.hpp ****     static void popSppSpie();
  18:src/../h/riscv.hpp ****     //implementaciju ove metode stavljam u cpp zato sto je vazno da ova staticka metoda
  19:src/../h/riscv.hpp ****     //bude ne inline, da bi se ovaj kod pozvao i da bi se promenio ra registar
  20:src/../h/riscv.hpp ****     //bitno je da znamo odakle se desio poziv
  21:src/../h/riscv.hpp ****     //jedini nacin da promenimo rezim privilegije je sa funkcijama koje se vracaju iz prekidne ruti
GAS LISTING /tmp/ccBvfaXD.s 			page 13


  22:src/../h/riscv.hpp ****     //pomocu sret, konekts novonapravljene niti nece ici preko normalne prekidne rutine vec ce ici 
  23:src/../h/riscv.hpp ****     //threadWrapera i u okviru njegove funckije treba izaci iz prekidne rutine
  24:src/../h/riscv.hpp ****     //sret ce se vratiti tamo gde je sepc rekao
  25:src/../h/riscv.hpp **** 
  26:src/../h/riscv.hpp ****     //preko name manlinga uazi se u definiciju koja je napisana u fajlu preko asemblera
  27:src/../h/riscv.hpp ****     static void interruptRoutine();
  28:src/../h/riscv.hpp **** 
  29:src/../h/riscv.hpp ****     // push x3..x31 registers onto stack
  30:src/../h/riscv.hpp ****     static void pushRegisters();
  31:src/../h/riscv.hpp **** 
  32:src/../h/riscv.hpp ****     // pop x3..x31 registers onto stack
  33:src/../h/riscv.hpp ****     static void popRegisters();
  34:src/../h/riscv.hpp **** 
  35:src/../h/riscv.hpp ****     // read register scause
  36:src/../h/riscv.hpp ****     static uint64 r_scause();
  37:src/../h/riscv.hpp **** 
  38:src/../h/riscv.hpp ****     // write register scause
  39:src/../h/riscv.hpp ****     static void w_scause(uint64 scause);
  40:src/../h/riscv.hpp **** 
  41:src/../h/riscv.hpp ****     // read register sepc
  42:src/../h/riscv.hpp ****     static uint64 r_sepc();
  43:src/../h/riscv.hpp **** 
  44:src/../h/riscv.hpp ****     // write register sepc
  45:src/../h/riscv.hpp ****     static void w_sepc(uint64 sepc);
  46:src/../h/riscv.hpp **** 
  47:src/../h/riscv.hpp ****     // read register stvec
  48:src/../h/riscv.hpp ****     static uint64 r_stvec();
  49:src/../h/riscv.hpp **** 
  50:src/../h/riscv.hpp ****     // write register stvec
  51:src/../h/riscv.hpp ****     static void w_stvec(uint64 stvec);
  52:src/../h/riscv.hpp **** 
  53:src/../h/riscv.hpp ****     // read register stval
  54:src/../h/riscv.hpp ****     static uint64 r_stval();
  55:src/../h/riscv.hpp **** 
  56:src/../h/riscv.hpp ****     // write register stval
  57:src/../h/riscv.hpp ****     static void w_stval(uint64 stval);
  58:src/../h/riscv.hpp **** 
  59:src/../h/riscv.hpp ****     enum BitMaskSip
  60:src/../h/riscv.hpp ****     {
  61:src/../h/riscv.hpp ****         SIP_SSIP = (1 << 1),
  62:src/../h/riscv.hpp ****         SIP_STIP = (1 << 5),
  63:src/../h/riscv.hpp ****         SIP_SEIP = (1 << 9),
  64:src/../h/riscv.hpp ****     };
  65:src/../h/riscv.hpp **** 
  66:src/../h/riscv.hpp ****     // mask set register sip
  67:src/../h/riscv.hpp ****     static void ms_sip(uint64 mask);
  68:src/../h/riscv.hpp **** 
  69:src/../h/riscv.hpp ****     // mask clear register sip
  70:src/../h/riscv.hpp ****     static void mc_sip(uint64 mask);
  71:src/../h/riscv.hpp **** 
  72:src/../h/riscv.hpp ****     // read register sip
  73:src/../h/riscv.hpp ****     static uint64 r_sip();
  74:src/../h/riscv.hpp **** 
  75:src/../h/riscv.hpp ****     // write register sip
  76:src/../h/riscv.hpp ****     static void w_sip(uint64 sip);
  77:src/../h/riscv.hpp **** 
  78:src/../h/riscv.hpp ****     enum BitMaskSstatus
GAS LISTING /tmp/ccBvfaXD.s 			page 14


  79:src/../h/riscv.hpp ****     {
  80:src/../h/riscv.hpp ****         SSTATUS_SIE = (1 << 1),
  81:src/../h/riscv.hpp ****         SSTATUS_SPIE = (1 << 5),
  82:src/../h/riscv.hpp ****         SSTATUS_SPP = (1 << 8),
  83:src/../h/riscv.hpp ****     };
  84:src/../h/riscv.hpp **** 
  85:src/../h/riscv.hpp ****     // mask set register sstatus
  86:src/../h/riscv.hpp ****     static void ms_sstatus(uint64 mask);
  87:src/../h/riscv.hpp **** 
  88:src/../h/riscv.hpp ****     // mask clear register sstatus
  89:src/../h/riscv.hpp ****     static void mc_sstatus(uint64 mask);
  90:src/../h/riscv.hpp **** 
  91:src/../h/riscv.hpp ****     // read register sstatus
  92:src/../h/riscv.hpp ****     static uint64 r_sstatus();
  93:src/../h/riscv.hpp **** 
  94:src/../h/riscv.hpp ****     // write register sstatus
  95:src/../h/riscv.hpp ****     static void w_sstatus(uint64 sstatus);
  96:src/../h/riscv.hpp **** 
  97:src/../h/riscv.hpp **** private:
  98:src/../h/riscv.hpp ****     static void interruptRoutineHandler();
  99:src/../h/riscv.hpp **** };
 100:src/../h/riscv.hpp **** 
 101:src/../h/riscv.hpp **** inline uint64 Riscv::r_scause()
 102:src/../h/riscv.hpp **** {
 103:src/../h/riscv.hpp ****     uint64 volatile scause;
 104:src/../h/riscv.hpp ****     __asm__ volatile ("csrr %[scause], scause" : [scause] "=r"(scause));
 105:src/../h/riscv.hpp ****     return scause;
 106:src/../h/riscv.hpp **** }
 107:src/../h/riscv.hpp **** 
 108:src/../h/riscv.hpp **** inline void Riscv::w_scause(uint64 scause)
 109:src/../h/riscv.hpp **** {
 110:src/../h/riscv.hpp ****     __asm__ volatile ("csrw scause, %[scause]" : : [scause] "r"(scause));
 111:src/../h/riscv.hpp **** }
 112:src/../h/riscv.hpp **** 
 113:src/../h/riscv.hpp **** inline uint64 Riscv::r_sepc()
 114:src/../h/riscv.hpp **** {
 115:src/../h/riscv.hpp ****     uint64 volatile sepc;
 116:src/../h/riscv.hpp ****     __asm__ volatile ("csrr %[sepc], sepc" : [sepc] "=r"(sepc));
 117:src/../h/riscv.hpp ****     return sepc;
 118:src/../h/riscv.hpp **** }
 119:src/../h/riscv.hpp **** 
 120:src/../h/riscv.hpp **** inline void Riscv::w_sepc(uint64 sepc)
 121:src/../h/riscv.hpp **** {
 122:src/../h/riscv.hpp ****     __asm__ volatile ("csrw sepc, %[sepc]" : : [sepc] "r"(sepc));
 123:src/../h/riscv.hpp **** }
 124:src/../h/riscv.hpp **** 
 125:src/../h/riscv.hpp **** inline uint64 Riscv::r_stvec()
 126:src/../h/riscv.hpp **** {
 127:src/../h/riscv.hpp ****     uint64 volatile stvec;
 128:src/../h/riscv.hpp ****     __asm__ volatile ("csrr %[stvec], stvec" : [stvec] "=r"(stvec));
 129:src/../h/riscv.hpp ****     return stvec;
 130:src/../h/riscv.hpp **** }
 131:src/../h/riscv.hpp **** 
 132:src/../h/riscv.hpp **** inline void Riscv::w_stvec(uint64 stvec)
 133:src/../h/riscv.hpp **** {
 134:src/../h/riscv.hpp ****     __asm__ volatile ("csrw stvec, %[stvec]" : : [stvec] "r"(stvec));
 356              		.loc 4 134 5 is_stmt 1
GAS LISTING /tmp/ccBvfaXD.s 			page 15


 357              		.loc 4 134 69 is_stmt 0
 358              	 #APP
 359              	# 134 "src/../h/riscv.hpp" 1
 135              	}
 360              		csrw stvec, a5
 361              	# 0 "" 2
 362              	.LVL29:
 363              	 #NO_APP
 364              	.LBE27:
 365              	.LBE26:
 140:src/main.cpp  ****     //Riscv: :ms_sstatus (Riscv:: SSTATUS_SIE);
 141:src/main.cpp  ****     thread_t thread1;
 366              		.loc 1 141 5 is_stmt 1
 142:src/main.cpp  ****    // mem_alloc(52);
 143:src/main.cpp  ****     //idle nit(nit koja nema fju koja treba da izvrsava)
 144:src/main.cpp  ****     thread_create(&thread1, nullptr, nullptr);
 367              		.loc 1 144 5
 368              		.loc 1 144 18 is_stmt 0
 369 0210 13060000 		li	a2,0
 370 0214 93050000 		li	a1,0
 371 0218 130584FE 		addi	a0,s0,-24
 372 021c 97000000 		call	_Z13thread_createPP7_threadPFvPvES2_
 372      E7800000 
 373              	.LVL30:
 145:src/main.cpp  ****     _thread::running = thread1;
 374              		.loc 1 145 5 is_stmt 1
 375              		.loc 1 145 22 is_stmt 0
 376 0224 833784FE 		ld	a5,-24(s0)
 377 0228 17070000 		sd	a5,_ZN7_thread7runningE,a4
 377      2330F700 
 146:src/main.cpp  ****     thread_t thread2;
 378              		.loc 1 146 5 is_stmt 1
 147:src/main.cpp  ****     thread_create(&thread2, reinterpret_cast<void (*)(void *)>(userMain), nullptr);
 379              		.loc 1 147 5
 380              		.loc 1 147 18 is_stmt 0
 381 0230 13060000 		li	a2,0
 382 0234 97050000 		lla	a1,_Z8userMainv
 382      93850500 
 383 023c 130504FE 		addi	a0,s0,-32
 384 0240 97000000 		call	_Z13thread_createPP7_threadPFvPvES2_
 384      E7800000 
 385              	.LVL31:
 386              	.L20:
 148:src/main.cpp  **** 
 149:src/main.cpp  ****     while (!(thread2->isFinished())) {
 387              		.loc 1 149 5 is_stmt 1
 388              		.loc 1 149 12
 389              		.loc 1 149 33 is_stmt 0
 390 0248 833704FE 		ld	a5,-32(s0)
 391              	.LVL32:
 392              	.LBB28:
 393              	.LBB29:
  20:src/../h/_thread.hpp **** 
 394              		.loc 2 20 31 is_stmt 1
  20:src/../h/_thread.hpp **** 
 395              		.loc 2 20 38 is_stmt 0
 396 024c 83C78702 		lbu	a5,40(a5)
GAS LISTING /tmp/ccBvfaXD.s 			page 16


 397              	.LVL33:
 398              	.LBE29:
 399              	.LBE28:
 400              		.loc 1 149 12
 401 0250 63980700 		bnez	a5,.L19
 150:src/main.cpp  ****         thread_dispatch();
 402              		.loc 1 150 9 is_stmt 1
 403              		.loc 1 150 24 is_stmt 0
 404 0254 97000000 		call	_Z15thread_dispatchv
 404      E7800000 
 405              	.LVL34:
 406 025c 6FF0DFFE 		j	.L20
 407              	.L19:
 151:src/main.cpp  ****     }
 152:src/main.cpp  **** 
 153:src/main.cpp  ****     return 0;
 408              		.loc 1 153 5 is_stmt 1
 154:src/main.cpp  **** }
 409              		.loc 1 154 1 is_stmt 0
 410 0260 13050000 		li	a0,0
 411 0264 83308101 		ld	ra,24(sp)
 412              		.cfi_restore 1
 413 0268 03340101 		ld	s0,16(sp)
 414              		.cfi_restore 8
 415              		.cfi_def_cfa 2, 32
 416 026c 13010102 		addi	sp,sp,32
 417              		.cfi_def_cfa_offset 0
 418 0270 67800000 		jr	ra
 419              		.cfi_endproc
 420              	.LFE35:
 422              		.globl	nitC
 423              		.globl	nitB
 424              		.globl	nitA
 425              		.section	.sbss,"aw",@nobits
 426              		.align	3
 429              	nitC:
 430 0000 00000000 		.zero	8
 430      00000000 
 433              	nitB:
 434 0008 00000000 		.zero	8
 434      00000000 
 437              	nitA:
 438 0010 00000000 		.zero	8
 438      00000000 
 439              		.text
 440              	.Letext0:
 441              		.file 5 "src/../h/../lib/hw.h"
 442              		.file 6 "src/../h/syscall_c.hpp"
 443              		.file 7 "src/../test/printing.hpp"
 444              		.file 8 "src/../test/Threads_C_API_test.hpp"
 445              		.file 9 "src/../test/Threads_CPP_API_test.hpp"
 446              		.file 10 "src/../test/ConsumerProducer_C_API_test.hpp"
 447              		.file 11 "src/../test/ConsumerProducer_CPP_Sync_API_test.hpp"
GAS LISTING /tmp/ccBvfaXD.s 			page 17


DEFINED SYMBOLS
                            *ABS*:0000000000000000 main.cpp
     /tmp/ccBvfaXD.s:41     .text:0000000000000000 _Z8userMainv
     /tmp/ccBvfaXD.s:45     .text:0000000000000000 .L0 
     /tmp/ccBvfaXD.s:46     .text:0000000000000000 .L0 
     /tmp/ccBvfaXD.s:47     .text:0000000000000004 .L0 
     /tmp/ccBvfaXD.s:52     .text:0000000000000014 .L0 
     /tmp/ccBvfaXD.s:53     .text:0000000000000014 .L0 
     /tmp/ccBvfaXD.s:54     .text:0000000000000014 .L0 
     /tmp/ccBvfaXD.s:55     .text:0000000000000014 .L0 
     /tmp/ccBvfaXD.s:57     .text:0000000000000018 .L0 
     /tmp/ccBvfaXD.s:59     .text:0000000000000018 .L0 
     /tmp/ccBvfaXD.s:60     .text:0000000000000018 .L0 
     /tmp/ccBvfaXD.s:64     .text:0000000000000028 .L0 
     /tmp/ccBvfaXD.s:65     .text:0000000000000028 .L0 
     /tmp/ccBvfaXD.s:69     .text:0000000000000034 .L0 
     /tmp/ccBvfaXD.s:72     .text:0000000000000038 .L0 
     /tmp/ccBvfaXD.s:73     .text:0000000000000038 .L0 
     /tmp/ccBvfaXD.s:76     .text:0000000000000040 .L0 
     /tmp/ccBvfaXD.s:77     .text:0000000000000040 .L0 
     /tmp/ccBvfaXD.s:78     .text:0000000000000040 .L0 
     /tmp/ccBvfaXD.s:79     .text:0000000000000040 .L0 
     /tmp/ccBvfaXD.s:81     .text:0000000000000044 .L0 
     /tmp/ccBvfaXD.s:84     .text:000000000000004c .L0 
     /tmp/ccBvfaXD.s:107    .text:0000000000000070 .L0 
     /tmp/ccBvfaXD.s:108    .text:0000000000000070 .L0 
     /tmp/ccBvfaXD.s:109    .text:0000000000000070 .L0 
     /tmp/ccBvfaXD.s:114    .text:0000000000000080 .L0 
     /tmp/ccBvfaXD.s:115    .text:0000000000000080 .L0 
     /tmp/ccBvfaXD.s:116    .text:0000000000000084 .L0 
     /tmp/ccBvfaXD.s:117    .text:0000000000000084 .L0 
     /tmp/ccBvfaXD.s:119    .text:0000000000000088 .L0 
     /tmp/ccBvfaXD.s:120    .text:0000000000000088 .L0 
     /tmp/ccBvfaXD.s:122    .text:000000000000008c .L0 
     /tmp/ccBvfaXD.s:124    .text:0000000000000090 .L0 
     /tmp/ccBvfaXD.s:126    .text:0000000000000094 .L0 
     /tmp/ccBvfaXD.s:129    .text:0000000000000098 .L0 
     /tmp/ccBvfaXD.s:131    .text:0000000000000098 .L0 
     /tmp/ccBvfaXD.s:132    .text:0000000000000098 .L0 
     /tmp/ccBvfaXD.s:133    .text:0000000000000098 .L0 
     /tmp/ccBvfaXD.s:136    .text:00000000000000a0 .L0 
     /tmp/ccBvfaXD.s:137    .text:00000000000000a0 .L0 
     /tmp/ccBvfaXD.s:141    .text:00000000000000b0 .L0 
     /tmp/ccBvfaXD.s:144    .text:00000000000000b4 .L0 
     /tmp/ccBvfaXD.s:145    .text:00000000000000b4 .L0 
     /tmp/ccBvfaXD.s:146    .text:00000000000000b4 .L0 
     /tmp/ccBvfaXD.s:149    .text:00000000000000bc .L0 
     /tmp/ccBvfaXD.s:150    .text:00000000000000bc .L0 
     /tmp/ccBvfaXD.s:154    .text:00000000000000cc .L0 
     /tmp/ccBvfaXD.s:157    .text:00000000000000d0 .L0 
     /tmp/ccBvfaXD.s:158    .text:00000000000000d0 .L0 
     /tmp/ccBvfaXD.s:159    .text:00000000000000d0 .L0 
     /tmp/ccBvfaXD.s:162    .text:00000000000000d8 .L0 
     /tmp/ccBvfaXD.s:163    .text:00000000000000d8 .L0 
     /tmp/ccBvfaXD.s:167    .text:00000000000000e8 .L0 
     /tmp/ccBvfaXD.s:170    .text:00000000000000ec .L0 
     /tmp/ccBvfaXD.s:171    .text:00000000000000ec .L0 
GAS LISTING /tmp/ccBvfaXD.s 			page 18


     /tmp/ccBvfaXD.s:172    .text:00000000000000ec .L0 
     /tmp/ccBvfaXD.s:175    .text:00000000000000f4 .L0 
     /tmp/ccBvfaXD.s:176    .text:00000000000000f4 .L0 
     /tmp/ccBvfaXD.s:180    .text:0000000000000104 .L0 
     /tmp/ccBvfaXD.s:183    .text:0000000000000108 .L0 
     /tmp/ccBvfaXD.s:184    .text:0000000000000108 .L0 
     /tmp/ccBvfaXD.s:185    .text:0000000000000108 .L0 
     /tmp/ccBvfaXD.s:189    .text:0000000000000118 .L0 
     /tmp/ccBvfaXD.s:190    .text:0000000000000118 .L0 
     /tmp/ccBvfaXD.s:194    .text:0000000000000128 .L0 
     /tmp/ccBvfaXD.s:197    .text:000000000000012c .L0 
     /tmp/ccBvfaXD.s:198    .text:000000000000012c .L0 
     /tmp/ccBvfaXD.s:199    .text:000000000000012c .L0 
     /tmp/ccBvfaXD.s:203    .text:0000000000000140 .L0 
     /tmp/ccBvfaXD.s:214    .text:0000000000000140 _Z7wrapperPv
     /tmp/ccBvfaXD.s:217    .text:0000000000000140 .L0 
     /tmp/ccBvfaXD.s:219    .text:0000000000000140 .L0 
     /tmp/ccBvfaXD.s:220    .text:0000000000000144 .L0 
     /tmp/ccBvfaXD.s:223    .text:000000000000014c .L0 
     /tmp/ccBvfaXD.s:224    .text:000000000000014c .L0 
     /tmp/ccBvfaXD.s:226    .text:0000000000000150 .L0 
     /tmp/ccBvfaXD.s:231    .text:0000000000000154 .L0 
     /tmp/ccBvfaXD.s:232    .text:0000000000000154 .L0 
     /tmp/ccBvfaXD.s:236    .text:000000000000015c .L0 
     /tmp/ccBvfaXD.s:237    .text:000000000000015c .L0 
     /tmp/ccBvfaXD.s:437    .sbss:0000000000000010 nitA
     /tmp/ccBvfaXD.s:238    .text:000000000000015c .L0 
     /tmp/ccBvfaXD.s:244    .text:0000000000000164 .L0 
     /tmp/ccBvfaXD.s:245    .text:0000000000000164 .L0 
     /tmp/ccBvfaXD.s:250    .text:0000000000000168 .L0 
     /tmp/ccBvfaXD.s:433    .sbss:0000000000000008 nitB
     /tmp/ccBvfaXD.s:252    .text:000000000000016c .L0 
     /tmp/ccBvfaXD.s:257    .text:0000000000000174 .L0 
     /tmp/ccBvfaXD.s:258    .text:0000000000000174 .L0 
     /tmp/ccBvfaXD.s:263    .text:0000000000000178 .L0 
     /tmp/ccBvfaXD.s:429    .sbss:0000000000000000 nitC
     /tmp/ccBvfaXD.s:265    .text:000000000000017c .L0 
     /tmp/ccBvfaXD.s:270    .text:0000000000000184 .L0 
     /tmp/ccBvfaXD.s:271    .text:0000000000000184 .L0 
     /tmp/ccBvfaXD.s:276    .text:0000000000000188 .L0 
     /tmp/ccBvfaXD.s:278    .text:000000000000018c .L0 
     /tmp/ccBvfaXD.s:279    .text:000000000000018c .L0 
     /tmp/ccBvfaXD.s:285    .text:000000000000019c .L0 
     /tmp/ccBvfaXD.s:286    .text:000000000000019c .L0 
     /tmp/ccBvfaXD.s:287    .text:000000000000019c .L0 
     /tmp/ccBvfaXD.s:294    .text:00000000000001ac .L0 
     /tmp/ccBvfaXD.s:295    .text:00000000000001ac .L0 
     /tmp/ccBvfaXD.s:298    .text:00000000000001b4 .L0 
     /tmp/ccBvfaXD.s:299    .text:00000000000001b8 .L0 
     /tmp/ccBvfaXD.s:301    .text:00000000000001bc .L0 
     /tmp/ccBvfaXD.s:302    .text:00000000000001bc .L0 
     /tmp/ccBvfaXD.s:304    .text:00000000000001c0 .L0 
     /tmp/ccBvfaXD.s:306    .text:00000000000001c4 .L0 
     /tmp/ccBvfaXD.s:312    .text:00000000000001c4 main
     /tmp/ccBvfaXD.s:315    .text:00000000000001c4 .L0 
     /tmp/ccBvfaXD.s:316    .text:00000000000001c4 .L0 
     /tmp/ccBvfaXD.s:317    .text:00000000000001c8 .L0 
GAS LISTING /tmp/ccBvfaXD.s 			page 19


     /tmp/ccBvfaXD.s:320    .text:00000000000001d0 .L0 
     /tmp/ccBvfaXD.s:321    .text:00000000000001d0 .L0 
     /tmp/ccBvfaXD.s:323    .text:00000000000001d4 .L0 
     /tmp/ccBvfaXD.s:328    .text:00000000000001d4 .L0 
     /tmp/ccBvfaXD.s:329    .text:00000000000001d4 .L0 
     /tmp/ccBvfaXD.s:330    .text:00000000000001d4 .L0 
     /tmp/ccBvfaXD.s:334    .text:00000000000001e8 .L0 
     /tmp/ccBvfaXD.s:335    .text:00000000000001e8 .L0 
     /tmp/ccBvfaXD.s:338    .text:00000000000001f4 .L0 
     /tmp/ccBvfaXD.s:340    .text:00000000000001f8 .L0 
     /tmp/ccBvfaXD.s:341    .text:00000000000001f8 .L0 
     /tmp/ccBvfaXD.s:343    .text:00000000000001fc .L0 
     /tmp/ccBvfaXD.s:344    .text:00000000000001fc .L0 
     /tmp/ccBvfaXD.s:346    .text:0000000000000200 .L0 
     /tmp/ccBvfaXD.s:350    .text:0000000000000204 .L0 
     /tmp/ccBvfaXD.s:351    .text:0000000000000204 .L0 
     /tmp/ccBvfaXD.s:357    .text:000000000000020c .L0 
  src/../h/riscv.hpp:134    .text:000000000000020c .L0 
     /tmp/ccBvfaXD.s:367    .text:0000000000000210 .L0 
     /tmp/ccBvfaXD.s:368    .text:0000000000000210 .L0 
     /tmp/ccBvfaXD.s:369    .text:0000000000000210 .L0 
     /tmp/ccBvfaXD.s:375    .text:0000000000000224 .L0 
     /tmp/ccBvfaXD.s:376    .text:0000000000000224 .L0 
     /tmp/ccBvfaXD.s:379    .text:0000000000000230 .L0 
     /tmp/ccBvfaXD.s:380    .text:0000000000000230 .L0 
     /tmp/ccBvfaXD.s:381    .text:0000000000000230 .L0 
     /tmp/ccBvfaXD.s:388    .text:0000000000000248 .L0 
     /tmp/ccBvfaXD.s:389    .text:0000000000000248 .L0 
     /tmp/ccBvfaXD.s:390    .text:0000000000000248 .L0 
     /tmp/ccBvfaXD.s:395    .text:000000000000024c .L0 
     /tmp/ccBvfaXD.s:396    .text:000000000000024c .L0 
     /tmp/ccBvfaXD.s:401    .text:0000000000000250 .L0 
     /tmp/ccBvfaXD.s:403    .text:0000000000000254 .L0 
     /tmp/ccBvfaXD.s:404    .text:0000000000000254 .L0 
     /tmp/ccBvfaXD.s:409    .text:0000000000000260 .L0 
     /tmp/ccBvfaXD.s:410    .text:0000000000000260 .L0 
     /tmp/ccBvfaXD.s:412    .text:0000000000000268 .L0 
     /tmp/ccBvfaXD.s:414    .text:000000000000026c .L0 
     /tmp/ccBvfaXD.s:415    .text:000000000000026c .L0 
     /tmp/ccBvfaXD.s:417    .text:0000000000000270 .L0 
     /tmp/ccBvfaXD.s:419    .text:0000000000000274 .L0 
     /tmp/ccBvfaXD.s:448    .text:0000000000000274 .L0 
     /tmp/ccBvfaXD.s:11     .rodata.str1.8:0000000000000000 .LC0
     /tmp/ccBvfaXD.s:60     .text:0000000000000018 .L0 
     /tmp/ccBvfaXD.s:95     .rodata:0000000000000000 .L6
     /tmp/ccBvfaXD.s:87     .text:0000000000000058 .L0 
     /tmp/ccBvfaXD.s:14     .rodata.str1.8:0000000000000020 .LC1
     /tmp/ccBvfaXD.s:109    .text:0000000000000070 .L0 
     /tmp/ccBvfaXD.s:17     .rodata.str1.8:0000000000000050 .LC2
     /tmp/ccBvfaXD.s:137    .text:00000000000000a0 .L0 
     /tmp/ccBvfaXD.s:20     .rodata.str1.8:0000000000000090 .LC3
     /tmp/ccBvfaXD.s:150    .text:00000000000000bc .L0 
     /tmp/ccBvfaXD.s:23     .rodata.str1.8:00000000000000d0 .LC4
     /tmp/ccBvfaXD.s:163    .text:00000000000000d8 .L0 
     /tmp/ccBvfaXD.s:26     .rodata.str1.8:0000000000000120 .LC5
     /tmp/ccBvfaXD.s:176    .text:00000000000000f4 .L0 
     /tmp/ccBvfaXD.s:29     .rodata.str1.8:0000000000000178 .LC6
GAS LISTING /tmp/ccBvfaXD.s 			page 20


     /tmp/ccBvfaXD.s:185    .text:0000000000000108 .L0 
     /tmp/ccBvfaXD.s:32     .rodata.str1.8:0000000000000198 .LC7
     /tmp/ccBvfaXD.s:190    .text:0000000000000118 .L0 
     /tmp/ccBvfaXD.s:35     .rodata.str1.8:00000000000001f0 .LC8
     /tmp/ccBvfaXD.s:199    .text:000000000000012c .L0 
     /tmp/ccBvfaXD.s:238    .text:000000000000015c .L0 
     /tmp/ccBvfaXD.s:252    .text:000000000000016c .L0 
     /tmp/ccBvfaXD.s:265    .text:000000000000017c .L0 
     /tmp/ccBvfaXD.s:208    .rodata.str1.8:0000000000000218 .LC9
     /tmp/ccBvfaXD.s:279    .text:000000000000018c .L0 
     /tmp/ccBvfaXD.s:287    .text:000000000000019c .L0 
     /tmp/ccBvfaXD.s:330    .text:00000000000001d4 .L0 
     /tmp/ccBvfaXD.s:331    .text:00000000000001dc .L0 
     /tmp/ccBvfaXD.s:335    .text:00000000000001e8 .L0 
     /tmp/ccBvfaXD.s:351    .text:0000000000000204 .L0 
     /tmp/ccBvfaXD.s:377    .text:0000000000000228 .L0 
     /tmp/ccBvfaXD.s:382    .text:0000000000000234 .L0 
     /tmp/ccBvfaXD.s:105    .text:0000000000000070 .L12
     /tmp/ccBvfaXD.s:195    .text:000000000000012c .L4
     /tmp/ccBvfaXD.s:113    .text:0000000000000080 .L1
     /tmp/ccBvfaXD.s:234    .text:000000000000015c .L16
     /tmp/ccBvfaXD.s:229    .text:0000000000000154 .L14
     /tmp/ccBvfaXD.s:407    .text:0000000000000260 .L19
     /tmp/ccBvfaXD.s:386    .text:0000000000000248 .L20
     /tmp/ccBvfaXD.s:128    .text:0000000000000098 .L10
     /tmp/ccBvfaXD.s:142    .text:00000000000000b4 .L9
     /tmp/ccBvfaXD.s:155    .text:00000000000000d0 .L8
     /tmp/ccBvfaXD.s:168    .text:00000000000000ec .L7
     /tmp/ccBvfaXD.s:181    .text:0000000000000108 .L5
     /tmp/ccBvfaXD.s:1532   .debug_abbrev:0000000000000000 .Ldebug_abbrev0
     /tmp/ccBvfaXD.s:2464   .debug_str:00000000000000c5 .LASF122
     /tmp/ccBvfaXD.s:2554   .debug_str:0000000000000461 .LASF123
     /tmp/ccBvfaXD.s:2524   .debug_str:000000000000034c .LASF124
     /tmp/ccBvfaXD.s:8      .text:0000000000000000 .Ltext0
     /tmp/ccBvfaXD.s:440    .text:0000000000000274 .Letext0
     /tmp/ccBvfaXD.s:2428   .debug_line:0000000000000000 .Ldebug_line0
     /tmp/ccBvfaXD.s:2580   .debug_str:000000000000056c .LASF0
     /tmp/ccBvfaXD.s:2596   .debug_str:00000000000005e8 .LASF1
     /tmp/ccBvfaXD.s:2568   .debug_str:0000000000000512 .LASF2
     /tmp/ccBvfaXD.s:2538   .debug_str:00000000000003ed .LASF4
     /tmp/ccBvfaXD.s:2638   .debug_str:0000000000000728 .LASF3
     /tmp/ccBvfaXD.s:2466   .debug_str:0000000000000189 .LASF5
     /tmp/ccBvfaXD.s:2598   .debug_str:00000000000005fb .LASF6
     /tmp/ccBvfaXD.s:2578   .debug_str:0000000000000559 .LASF7
     /tmp/ccBvfaXD.s:2664   .debug_str:000000000000080b .LASF8
     /tmp/ccBvfaXD.s:2522   .debug_str:000000000000033e .LASF9
     /tmp/ccBvfaXD.s:2614   .debug_str:0000000000000687 .LASF10
     /tmp/ccBvfaXD.s:2656   .debug_str:00000000000007c6 .LASF11
     /tmp/ccBvfaXD.s:2468   .debug_str:0000000000000190 .LASF12
     /tmp/ccBvfaXD.s:2440   .debug_str:0000000000000053 .LASF13
     /tmp/ccBvfaXD.s:2474   .debug_str:00000000000001be .LASF14
     /tmp/ccBvfaXD.s:2632   .debug_str:00000000000006f1 .LASF15
     /tmp/ccBvfaXD.s:2484   .debug_str:0000000000000223 .LASF16
     /tmp/ccBvfaXD.s:2594   .debug_str:00000000000005e2 .LASF57
     /tmp/ccBvfaXD.s:2630   .debug_str:00000000000006e6 .LASF17
     /tmp/ccBvfaXD.s:2680   .debug_str:000000000000087f .LASF19
     /tmp/ccBvfaXD.s:2532   .debug_str:00000000000003be .LASF18
GAS LISTING /tmp/ccBvfaXD.s 			page 21


     /tmp/ccBvfaXD.s:2612   .debug_str:0000000000000669 .LASF20
     /tmp/ccBvfaXD.s:2462   .debug_str:00000000000000b7 .LASF21
     /tmp/ccBvfaXD.s:2500   .debug_str:00000000000002a0 .LASF22
     /tmp/ccBvfaXD.s:2646   .debug_str:0000000000000782 .LASF23
     /tmp/ccBvfaXD.s:2436   .debug_str:0000000000000034 .LASF24
     /tmp/ccBvfaXD.s:2442   .debug_str:0000000000000063 .LASF25
     /tmp/ccBvfaXD.s:2644   .debug_str:000000000000076d .LASF27
     /tmp/ccBvfaXD.s:2498   .debug_str:0000000000000297 .LASF29
     /tmp/ccBvfaXD.s:2496   .debug_str:0000000000000282 .LASF31
     /tmp/ccBvfaXD.s:2642   .debug_str:0000000000000766 .LASF26
     /tmp/ccBvfaXD.s:2620   .debug_str:00000000000006a4 .LASF28
     /tmp/ccBvfaXD.s:2654   .debug_str:00000000000007bf .LASF30
     /tmp/ccBvfaXD.s:2650   .debug_str:000000000000079a .LASF32
     /tmp/ccBvfaXD.s:2514   .debug_str:000000000000030c .LASF33
     /tmp/ccBvfaXD.s:2486   .debug_str:0000000000000239 .LASF34
     /tmp/ccBvfaXD.s:2434   .debug_str:000000000000002c .LASF35
     /tmp/ccBvfaXD.s:2530   .debug_str:00000000000003aa .LASF36
     /tmp/ccBvfaXD.s:2504   .debug_str:00000000000002c3 .LASF37
     /tmp/ccBvfaXD.s:2470   .debug_str:00000000000001a0 .LASF38
     /tmp/ccBvfaXD.s:2684   .debug_str:00000000000008a2 .LASF39
     /tmp/ccBvfaXD.s:2506   .debug_str:00000000000002cb .LASF40
     /tmp/ccBvfaXD.s:2582   .debug_str:0000000000000579 .LASF41
     /tmp/ccBvfaXD.s:2676   .debug_str:0000000000000867 .LASF42
     /tmp/ccBvfaXD.s:2460   .debug_str:00000000000000b0 .LASF43
     /tmp/ccBvfaXD.s:2512   .debug_str:00000000000002f9 .LASF44
     /tmp/ccBvfaXD.s:2520   .debug_str:0000000000000338 .LASF45
     /tmp/ccBvfaXD.s:2652   .debug_str:00000000000007ad .LASF46
     /tmp/ccBvfaXD.s:2458   .debug_str:00000000000000aa .LASF47
     /tmp/ccBvfaXD.s:2688   .debug_str:00000000000008b2 .LASF48
     /tmp/ccBvfaXD.s:2682   .debug_str:0000000000000897 .LASF49
     /tmp/ccBvfaXD.s:2634   .debug_str:0000000000000707 .LASF50
     /tmp/ccBvfaXD.s:2546   .debug_str:0000000000000423 .LASF51
     /tmp/ccBvfaXD.s:2558   .debug_str:000000000000047c .LASF52
     /tmp/ccBvfaXD.s:2472   .debug_str:00000000000001b4 .LASF53
     /tmp/ccBvfaXD.s:2534   .debug_str:00000000000003cf .LASF54
     /tmp/ccBvfaXD.s:2574   .debug_str:000000000000053f .LASF55
     /tmp/ccBvfaXD.s:2526   .debug_str:0000000000000377 .LASF56
     /tmp/ccBvfaXD.s:2624   .debug_str:00000000000006bc .LASF72
     /tmp/ccBvfaXD.s:2476   .debug_str:00000000000001ca .LASF74
     /tmp/ccBvfaXD.s:2536   .debug_str:00000000000003e5 .LASF58
     /tmp/ccBvfaXD.s:2448   .debug_str:000000000000007d .LASF80
     /tmp/ccBvfaXD.s:2502   .debug_str:00000000000002bb .LASF125
     /tmp/ccBvfaXD.s:2660   .debug_str:00000000000007e8 .LASF59
     /tmp/ccBvfaXD.s:2602   .debug_str:0000000000000619 .LASF61
     /tmp/ccBvfaXD.s:2600   .debug_str:000000000000060e .LASF95
     /tmp/ccBvfaXD.s:2566   .debug_str:00000000000004f7 .LASF100
     /tmp/ccBvfaXD.s:2570   .debug_str:0000000000000520 .LASF60
     /tmp/ccBvfaXD.s:2564   .debug_str:00000000000004dc .LASF62
     /tmp/ccBvfaXD.s:2668   .debug_str:0000000000000825 .LASF63
     /tmp/ccBvfaXD.s:2640   .debug_str:000000000000073a .LASF64
     /tmp/ccBvfaXD.s:2616   .debug_str:0000000000000696 .LASF126
     /tmp/ccBvfaXD.s:2454   .debug_str:0000000000000095 .LASF65
     /tmp/ccBvfaXD.s:2518   .debug_str:000000000000031d .LASF66
     /tmp/ccBvfaXD.s:2592   .debug_str:00000000000005c7 .LASF67
     /tmp/ccBvfaXD.s:2544   .debug_str:000000000000041e .LASF68
     /tmp/ccBvfaXD.s:2588   .debug_str:00000000000005bc .LASF69
     /tmp/ccBvfaXD.s:2548   .debug_str:000000000000042e .LASF70
GAS LISTING /tmp/ccBvfaXD.s 			page 22


     /tmp/ccBvfaXD.s:2542   .debug_str:0000000000000415 .LASF71
     /tmp/ccBvfaXD.s:2672   .debug_str:0000000000000854 .LASF127
     /tmp/ccBvfaXD.s:2562   .debug_str:00000000000004b0 .LASF128
     /tmp/ccBvfaXD.s:2478   .debug_str:00000000000001ef .LASF73
     /tmp/ccBvfaXD.s:2482   .debug_str:0000000000000204 .LASF75
     /tmp/ccBvfaXD.s:2556   .debug_str:000000000000046e .LASF76
     /tmp/ccBvfaXD.s:2528   .debug_str:000000000000038d .LASF77
     /tmp/ccBvfaXD.s:2430   .debug_str:0000000000000000 .LASF78
     /tmp/ccBvfaXD.s:2508   .debug_str:00000000000002df .LASF79
     /tmp/ccBvfaXD.s:2492   .debug_str:0000000000000273 .LASF81
     /tmp/ccBvfaXD.s:2480   .debug_str:00000000000001ff .LASF82
     /tmp/ccBvfaXD.s:2674   .debug_str:0000000000000862 .LASF83
     /tmp/ccBvfaXD.s:2626   .debug_str:00000000000006d4 .LASF84
     /tmp/ccBvfaXD.s:2576   .debug_str:0000000000000549 .LASF85
     /tmp/ccBvfaXD.s:2666   .debug_str:000000000000081b .LASF86
     /tmp/ccBvfaXD.s:2670   .debug_str:0000000000000833 .LASF87
     /tmp/ccBvfaXD.s:2618   .debug_str:000000000000069b .LASF88
     /tmp/ccBvfaXD.s:2540   .debug_str:00000000000003f4 .LASF89
     /tmp/ccBvfaXD.s:2516   .debug_str:0000000000000314 .LASF90
     /tmp/ccBvfaXD.s:2606   .debug_str:000000000000062f .LASF91
     /tmp/ccBvfaXD.s:2648   .debug_str:000000000000078f .LASF129
     /tmp/ccBvfaXD.s:2494   .debug_str:000000000000027d .LASF92
     /tmp/ccBvfaXD.s:2438   .debug_str:000000000000004e .LASF93
     /tmp/ccBvfaXD.s:2444   .debug_str:000000000000006c .LASF94
     /tmp/ccBvfaXD.s:2608   .debug_str:000000000000064f .LASF96
     /tmp/ccBvfaXD.s:313    .text:00000000000001c4 .LFB35
     /tmp/ccBvfaXD.s:420    .text:0000000000000274 .LFE35
     /tmp/ccBvfaXD.s:2450   .debug_str:0000000000000085 .LASF97
     /tmp/ccBvfaXD.s:2452   .debug_str:000000000000008d .LASF98
     /tmp/ccBvfaXD.s:325    .text:00000000000001d4 .LBB24
     /tmp/ccBvfaXD.s:348    .text:0000000000000204 .LBE24
     /tmp/ccBvfaXD.s:353    .text:000000000000020c .LBB26
     /tmp/ccBvfaXD.s:365    .text:0000000000000210 .LBE26
     /tmp/ccBvfaXD.s:392    .text:000000000000024c .LBB28
     /tmp/ccBvfaXD.s:399    .text:0000000000000250 .LBE28
     /tmp/ccBvfaXD.s:2356   .debug_loc:0000000000000000 .LLST6
     /tmp/ccBvfaXD.s:373    .text:0000000000000224 .LVL30
     /tmp/ccBvfaXD.s:385    .text:0000000000000248 .LVL31
     /tmp/ccBvfaXD.s:405    .text:000000000000025c .LVL34
     /tmp/ccBvfaXD.s:2686   .debug_str:00000000000008aa .LASF99
     /tmp/ccBvfaXD.s:2628   .debug_str:00000000000006d9 .LASF101
     /tmp/ccBvfaXD.s:215    .text:0000000000000140 .LFB34
     /tmp/ccBvfaXD.s:307    .text:00000000000001c4 .LFE34
     /tmp/ccBvfaXD.s:2363   .debug_loc:0000000000000023 .LLST1
     /tmp/ccBvfaXD.s:240    .text:0000000000000164 .LBB16
     /tmp/ccBvfaXD.s:248    .text:0000000000000168 .LBE16
     /tmp/ccBvfaXD.s:2377   .debug_loc:000000000000005c .LLST2
     /tmp/ccBvfaXD.s:254    .text:0000000000000174 .LBB18
     /tmp/ccBvfaXD.s:261    .text:0000000000000178 .LBE18
     /tmp/ccBvfaXD.s:2384   .debug_loc:000000000000007f .LLST3
     /tmp/ccBvfaXD.s:267    .text:0000000000000184 .LBB20
     /tmp/ccBvfaXD.s:274    .text:0000000000000188 .LBE20
     /tmp/ccBvfaXD.s:2391   .debug_loc:00000000000000a2 .LLST4
     /tmp/ccBvfaXD.s:283    .text:000000000000019c .LBB22
     /tmp/ccBvfaXD.s:292    .text:00000000000001ac .LBE22
     /tmp/ccBvfaXD.s:2398   .debug_loc:00000000000000c5 .LLST5
     /tmp/ccBvfaXD.s:233    .text:000000000000015c .LVL18
GAS LISTING /tmp/ccBvfaXD.s 			page 23


     /tmp/ccBvfaXD.s:281    .text:000000000000019c .LVL25
     /tmp/ccBvfaXD.s:296    .text:00000000000001b4 .LVL27
     /tmp/ccBvfaXD.s:2456   .debug_str:00000000000000a1 .LASF102
     /tmp/ccBvfaXD.s:2550   .debug_str:0000000000000436 .LASF103
     /tmp/ccBvfaXD.s:42     .text:0000000000000000 .LFB33
     /tmp/ccBvfaXD.s:204    .text:0000000000000140 .LFE33
     /tmp/ccBvfaXD.s:2590   .debug_str:00000000000005c2 .LASF104
     /tmp/ccBvfaXD.s:2406   .debug_loc:00000000000000e9 .LLST0
     /tmp/ccBvfaXD.s:62     .text:0000000000000028 .LVL0
     /tmp/ccBvfaXD.s:66     .text:0000000000000030 .LVL1
     /tmp/ccBvfaXD.s:74     .text:0000000000000040 .LVL3
     /tmp/ccBvfaXD.s:111    .text:0000000000000080 .LVL4
     /tmp/ccBvfaXD.s:134    .text:00000000000000a0 .LVL5
     /tmp/ccBvfaXD.s:139    .text:00000000000000b0 .LVL6
     /tmp/ccBvfaXD.s:147    .text:00000000000000bc .LVL7
     /tmp/ccBvfaXD.s:152    .text:00000000000000cc .LVL8
     /tmp/ccBvfaXD.s:160    .text:00000000000000d8 .LVL9
     /tmp/ccBvfaXD.s:165    .text:00000000000000e8 .LVL10
     /tmp/ccBvfaXD.s:173    .text:00000000000000f4 .LVL11
     /tmp/ccBvfaXD.s:178    .text:0000000000000104 .LVL12
     /tmp/ccBvfaXD.s:187    .text:0000000000000118 .LVL13
     /tmp/ccBvfaXD.s:192    .text:0000000000000128 .LVL14
     /tmp/ccBvfaXD.s:201    .text:000000000000013c .LVL15
     /tmp/ccBvfaXD.s:2678   .debug_str:000000000000087a .LASF105
     /tmp/ccBvfaXD.s:2604   .debug_str:0000000000000629 .LASF106
     /tmp/ccBvfaXD.s:2584   .debug_str:0000000000000580 .LASF107
     /tmp/ccBvfaXD.s:2488   .debug_str:000000000000024d .LASF109
     /tmp/ccBvfaXD.s:2510   .debug_str:00000000000002e4 .LASF108
     /tmp/ccBvfaXD.s:2572   .debug_str:000000000000052c .LASF110
     /tmp/ccBvfaXD.s:2446   .debug_str:0000000000000071 .LASF111
     /tmp/ccBvfaXD.s:2636   .debug_str:000000000000071f .LASF112
     /tmp/ccBvfaXD.s:2622   .debug_str:00000000000006b7 .LASF113
     /tmp/ccBvfaXD.s:2490   .debug_str:000000000000025b .LASF114
     /tmp/ccBvfaXD.s:2658   .debug_str:00000000000007d5 .LASF115
     /tmp/ccBvfaXD.s:2662   .debug_str:00000000000007f1 .LASF116
     /tmp/ccBvfaXD.s:2610   .debug_str:0000000000000654 .LASF117
     /tmp/ccBvfaXD.s:2560   .debug_str:0000000000000494 .LASF118
     /tmp/ccBvfaXD.s:2586   .debug_str:00000000000005a5 .LASF119
     /tmp/ccBvfaXD.s:2432   .debug_str:0000000000000009 .LASF120
     /tmp/ccBvfaXD.s:2552   .debug_str:0000000000000443 .LASF121
     /tmp/ccBvfaXD.s:391    .text:000000000000024c .LVL32
     /tmp/ccBvfaXD.s:397    .text:0000000000000250 .LVL33
     /tmp/ccBvfaXD.s:218    .text:0000000000000140 .LVL16
     /tmp/ccBvfaXD.s:228    .text:0000000000000154 .LVL17
     /tmp/ccBvfaXD.s:239    .text:0000000000000164 .LVL19
     /tmp/ccBvfaXD.s:246    .text:0000000000000168 .LVL20
     /tmp/ccBvfaXD.s:253    .text:0000000000000174 .LVL21
     /tmp/ccBvfaXD.s:259    .text:0000000000000178 .LVL22
     /tmp/ccBvfaXD.s:266    .text:0000000000000184 .LVL23
     /tmp/ccBvfaXD.s:272    .text:0000000000000188 .LVL24
     /tmp/ccBvfaXD.s:290    .text:00000000000001ac .LVL26
     /tmp/ccBvfaXD.s:70     .text:0000000000000038 .LVL2
     /tmp/ccBvfaXD.s:449    .debug_info:0000000000000000 .Ldebug_info0

UNDEFINED SYMBOLS
_Z11printStringPKc
_Z4getcv
GAS LISTING /tmp/ccBvfaXD.s 			page 24


_Z18Threads_C_API_testv
_Z20Threads_CPP_API_testv
_Z22producerConsumer_C_APIv
_Z29producerConsumer_CPP_Sync_APIv
_Z15thread_dispatchv
_ZN7_thread7runningE
HEAP_START_ADDR
_ZN15MemoryAllocator10free_BlockE
HEAP_END_ADDR
_ZN5Riscv16interruptRoutineEv
_Z13thread_createPP7_threadPFvPvES2_
