GAS LISTING /tmp/cctoWuJH.s 			page 1


   1              		.file	"main.cpp"
   2              		.option nopic
   3              		.option norelax
   4              		.attribute arch, "rv64i2p0_m2p0_a2p0"
   5              		.attribute unaligned_access, 0
   6              		.attribute stack_align, 16
   7              		.text
   8              	.Ltext0:
   9              		.section	.rodata.str1.8,"aMS",@progbits,1
  10              		.align	3
  11              	.LC0:
  12 0000 556E6573 		.string	"Unesite broj testa? [1-7]\n"
  12      69746520 
  12      62726F6A 
  12      20746573 
  12      74613F20 
  13 001b 00000000 		.align	3
  13      00
  14              	.LC1:
  15 0020 4E696A65 		.string	"Nije navedeno da je zadatak 4 implementiran\n"
  15      206E6176 
  15      6564656E 
  15      6F206461 
  15      206A6520 
  16 004d 000000   		.align	3
  17              	.LC2:
  18 0050 54455354 		.string	"TEST 1 (zadatak 2, niti C API i sinhrona promena konteksta)\n"
  18      20312028 
  18      7A616461 
  18      74616B20 
  18      322C206E 
  19 008d 000000   		.align	3
  20              	.LC3:
  21 0090 54455354 		.string	"TEST 2 (zadatak 2., niti CPP API i sinhrona promena konteksta)\n"
  21      20322028 
  21      7A616461 
  21      74616B20 
  21      322E2C20 
  22              		.align	3
  23              	.LC4:
  24 00d0 54455354 		.string	"TEST 3 (zadatak 3., kompletan C API sa semaforima, sinhrona promena konteksta)\n"
  24      20332028 
  24      7A616461 
  24      74616B20 
  24      332E2C20 
  25              		.align	3
  26              	.LC5:
  27 0120 54455354 		.string	"TEST 4 (zadatak 3., kompletan CPP API sa semaforima, sinhrona promena konteksta)\n"
  27      20342028 
  27      7A616461 
  27      74616B20 
  27      332E2C20 
  28 0172 00000000 		.align	3
  28      0000
  29              	.LC6:
  30 0178 54657374 		.string	"Test se nije uspesno zavrsio\n"
  30      20736520 
GAS LISTING /tmp/cctoWuJH.s 			page 2


  30      6E696A65 
  30      20757370 
  30      65736E6F 
  31 0196 0000     		.align	3
  32              	.LC7:
  33 0198 54455354 		.string	"TEST 7 (zadatak 2., testiranje da li se korisnicki kod izvrsava u korisnickom rezimu)\n"
  33      20372028 
  33      7A616461 
  33      74616B20 
  33      322E2C20 
  34 01ef 00       		.align	3
  35              	.LC8:
  36 01f0 4E697374 		.string	"Niste uneli odgovarajuci broj za test\n"
  36      6520756E 
  36      656C6920 
  36      6F64676F 
  36      76617261 
  37              		.text
  38              		.align	2
  39              		.globl	_Z8userMainv
  41              	_Z8userMainv:
  42              	.LFB32:
  43              		.file 1 "src/main.cpp"
   1:src/main.cpp  **** #include "../h/riscv.hpp"
   2:src/main.cpp  **** #include "../h/_thread.hpp"
   3:src/main.cpp  **** #include "../h/syscall_c.hpp"
   4:src/main.cpp  **** #include "../test/printing.hpp"
   5:src/main.cpp  **** 
   6:src/main.cpp  **** //#include "../test/userMain.cpp"
   7:src/main.cpp  **** thread_t nitA;
   8:src/main.cpp  **** thread_t nitB;
   9:src/main.cpp  **** thread_t nitC;
  10:src/main.cpp  **** 
  11:src/main.cpp  **** 
  12:src/main.cpp  **** 
  13:src/main.cpp  **** 
  14:src/main.cpp  **** #define LEVEL_1_IMPLEMENTED 1
  15:src/main.cpp  **** #define LEVEL_2_IMPLEMENTED 1
  16:src/main.cpp  **** #define LEVEL_3_IMPLEMENTED 1
  17:src/main.cpp  **** #define LEVEL_4_IMPLEMENTED 0
  18:src/main.cpp  **** 
  19:src/main.cpp  **** #if LEVEL_2_IMPLEMENTED == 1
  20:src/main.cpp  **** // TEST 1 (zadatak 2, niti C API i sinhrona promena konteksta)
  21:src/main.cpp  **** #include "../test/Threads_C_API_test.hpp"
  22:src/main.cpp  **** // TEST 2 (zadatak 2., niti CPP API i sinhrona promena konteksta)
  23:src/main.cpp  **** #include "../test/Threads_CPP_API_test.hpp"
  24:src/main.cpp  **** // TEST 7 (zadatak 2., testiranje da li se korisnicki kod izvrsava u korisnickom rezimu)
  25:src/main.cpp  **** //#include "../test/System_Mode_test.hpp"
  26:src/main.cpp  **** #endif
  27:src/main.cpp  **** 
  28:src/main.cpp  **** #if LEVEL_3_IMPLEMENTED == 1
  29:src/main.cpp  **** // TEST 3 (zadatak 3., kompletan C API sa semaforima, sinhrona promena konteksta)
  30:src/main.cpp  **** #include "../test/ConsumerProducer_C_API_test.hpp"
  31:src/main.cpp  **** // TEST 4 (zadatak 3., kompletan CPP API sa semaforima, sinhrona promena konteksta)
  32:src/main.cpp  **** #include "../test/ConsumerProducer_CPP_Sync_API_test.hpp"
  33:src/main.cpp  **** #endif
  34:src/main.cpp  **** 
GAS LISTING /tmp/cctoWuJH.s 			page 3


  35:src/main.cpp  **** #if LEVEL_4_IMPLEMENTED == 1
  36:src/main.cpp  **** // TEST 5 (zadatak 4., thread_sleep test C API)
  37:src/main.cpp  **** #include "../test/ThreadSleep_C_API_test.hpp"
  38:src/main.cpp  **** // TEST 6 (zadatak 4. CPP API i asinhrona promena konteksta)
  39:src/main.cpp  **** #include "../test/ConsumerProducer_CPP_API_test.hpp"
  40:src/main.cpp  **** #include "System_Mode_test.hpp"
  41:src/main.cpp  **** 
  42:src/main.cpp  **** #endif
  43:src/main.cpp  **** 
  44:src/main.cpp  **** void userMain() {
  44              		.loc 1 44 17
  45              		.cfi_startproc
  46 0000 130101FE 		addi	sp,sp,-32
  47              		.cfi_def_cfa_offset 32
  48 0004 233C1100 		sd	ra,24(sp)
  49 0008 23388100 		sd	s0,16(sp)
  50 000c 23349100 		sd	s1,8(sp)
  51 0010 23302101 		sd	s2,0(sp)
  52              		.cfi_offset 1, -8
  53              		.cfi_offset 8, -16
  54              		.cfi_offset 9, -24
  55              		.cfi_offset 18, -32
  56 0014 13040102 		addi	s0,sp,32
  57              		.cfi_def_cfa 8, 0
  45:src/main.cpp  ****     printString("Unesite broj testa? [1-7]\n");
  58              		.loc 1 45 5
  59              		.loc 1 45 16 is_stmt 0
  60 0018 17050000 		lla	a0,.LC0
  60      13050500 
  61 0020 97000000 		call	_Z11printStringPKc
  61      E7800000 
  62              	.LVL0:
  46:src/main.cpp  ****     int test = getc() - '0';
  63              		.loc 1 46 5 is_stmt 1
  64              		.loc 1 46 20 is_stmt 0
  65 0028 97000000 		call	_Z4getcv
  65      E7800000 
  66              	.LVL1:
  67 0030 13090500 		mv	s2,a0
  68              		.loc 1 46 25
  69 0034 9B0405FD 		addiw	s1,a0,-48
  70              	.LVL2:
  47:src/main.cpp  ****     getc(); // Enter posle broja
  71              		.loc 1 47 5 is_stmt 1
  72              		.loc 1 47 9 is_stmt 0
  73 0038 97000000 		call	_Z4getcv
  73      E7800000 
  74              	.LVL3:
  48:src/main.cpp  **** 
  49:src/main.cpp  ****     if ((test >= 1 && test <= 2) || test == 7) {
  75              		.loc 1 49 5 is_stmt 1
  50:src/main.cpp  ****         if (LEVEL_2_IMPLEMENTED == 0) {
  51:src/main.cpp  ****             printString("Nije navedeno da je zadatak 2 implementiran\n");
  52:src/main.cpp  ****             return;
  53:src/main.cpp  ****         }
  54:src/main.cpp  ****     }
  55:src/main.cpp  **** 
GAS LISTING /tmp/cctoWuJH.s 			page 4


  56:src/main.cpp  ****     if (test >= 3 && test <= 4) {
  76              		.loc 1 56 5
  57:src/main.cpp  ****         if (LEVEL_3_IMPLEMENTED == 0) {
  58:src/main.cpp  ****             printString("Nije navedeno da je zadatak 3 implementiran\n");
  59:src/main.cpp  ****             return;
  60:src/main.cpp  ****         }
  61:src/main.cpp  ****     }
  62:src/main.cpp  **** 
  63:src/main.cpp  ****     if (test >= 5 && test <= 6) {
  77              		.loc 1 63 5
  78              		.loc 1 63 19 is_stmt 0
  79 0040 1B09B9FC 		addiw	s2,s2,-53
  80              		.loc 1 63 5
  81 0044 93071000 		li	a5,1
  82 0048 63F42703 		bleu	s2,a5,.L12
  64:src/main.cpp  ****         if (LEVEL_4_IMPLEMENTED == 0) {
  65:src/main.cpp  ****             printString("Nije navedeno da je zadatak 4 implementiran\n");
  66:src/main.cpp  ****             return;
  67:src/main.cpp  ****         }
  68:src/main.cpp  ****     }
  69:src/main.cpp  **** 
  70:src/main.cpp  ****     switch (test) {
  83              		.loc 1 70 5 is_stmt 1
  84 004c 93077000 		li	a5,7
  85 0050 63EE970C 		bgtu	s1,a5,.L4
  86 0054 93942400 		slli	s1,s1,2
  87 0058 17070000 		lla	a4,.L6
  87      13070700 
  88 0060 B384E400 		add	s1,s1,a4
  89 0064 83A70400 		lw	a5,0(s1)
  90 0068 B387E700 		add	a5,a5,a4
  91 006c 67800700 		jr	a5
  92              		.section	.rodata
  93              		.align	2
  94              		.align	2
  95              	.L6:
  96 0000 00000000 		.word	.L4-.L6
  97 0004 00000000 		.word	.L10-.L6
  98 0008 00000000 		.word	.L9-.L6
  99 000c 00000000 		.word	.L8-.L6
 100 0010 00000000 		.word	.L7-.L6
 101 0014 00000000 		.word	.L1-.L6
 102 0018 00000000 		.word	.L1-.L6
 103 001c 00000000 		.word	.L5-.L6
 104              		.text
 105              	.L12:
  64:src/main.cpp  ****         if (LEVEL_4_IMPLEMENTED == 0) {
 106              		.loc 1 64 9
  65:src/main.cpp  ****             return;
 107              		.loc 1 65 13
  65:src/main.cpp  ****             return;
 108              		.loc 1 65 24 is_stmt 0
 109 0070 17050000 		lla	a0,.LC1
 109      13050500 
 110 0078 97000000 		call	_Z11printStringPKc
 110      E7800000 
 111              	.LVL4:
GAS LISTING /tmp/cctoWuJH.s 			page 5


  66:src/main.cpp  ****         }
 112              		.loc 1 66 13 is_stmt 1
 113              	.L1:
  71:src/main.cpp  ****         case 1:
  72:src/main.cpp  **** #if LEVEL_2_IMPLEMENTED == 1
  73:src/main.cpp  ****             Threads_C_API_test();
  74:src/main.cpp  ****             printString("TEST 1 (zadatak 2, niti C API i sinhrona promena konteksta)\n");
  75:src/main.cpp  **** #endif
  76:src/main.cpp  ****             break;
  77:src/main.cpp  ****         case 2:
  78:src/main.cpp  **** #if LEVEL_2_IMPLEMENTED == 1
  79:src/main.cpp  ****             Threads_CPP_API_test();
  80:src/main.cpp  ****             printString("TEST 2 (zadatak 2., niti CPP API i sinhrona promena konteksta)\n");
  81:src/main.cpp  **** #endif
  82:src/main.cpp  ****             break;
  83:src/main.cpp  ****         case 3:
  84:src/main.cpp  **** #if LEVEL_3_IMPLEMENTED == 1
  85:src/main.cpp  ****             producerConsumer_C_API();
  86:src/main.cpp  ****             printString("TEST 3 (zadatak 3., kompletan C API sa semaforima, sinhrona promena kontek
  87:src/main.cpp  **** #endif
  88:src/main.cpp  ****             break;
  89:src/main.cpp  ****         case 4:
  90:src/main.cpp  **** #if LEVEL_3_IMPLEMENTED == 1
  91:src/main.cpp  ****             producerConsumer_CPP_Sync_API();
  92:src/main.cpp  ****             printString("TEST 4 (zadatak 3., kompletan CPP API sa semaforima, sinhrona promena kont
  93:src/main.cpp  **** #endif
  94:src/main.cpp  ****             break;
  95:src/main.cpp  ****         case 5:
  96:src/main.cpp  **** #if LEVEL_4_IMPLEMENTED == 1
  97:src/main.cpp  ****             testSleeping();
  98:src/main.cpp  ****             printString("TEST 5 (zadatak 4., thread_sleep test C API)\n");
  99:src/main.cpp  **** #endif
 100:src/main.cpp  ****             break;
 101:src/main.cpp  ****         case 6:
 102:src/main.cpp  **** #if LEVEL_4_IMPLEMENTED == 1
 103:src/main.cpp  ****             testConsumerProducer();
 104:src/main.cpp  ****             printString("TEST 6 (zadatak 4. CPP API i asinhrona promena konteksta)\n");
 105:src/main.cpp  **** #endif
 106:src/main.cpp  ****             break;
 107:src/main.cpp  ****         case 7:
 108:src/main.cpp  **** #if LEVEL_2_IMPLEMENTED == 1
 109:src/main.cpp  ****             //System_Mode_test();
 110:src/main.cpp  ****             printString("Test se nije uspesno zavrsio\n");
 111:src/main.cpp  ****             printString("TEST 7 (zadatak 2., testiranje da li se korisnicki kod izvrsava u korisnic
 112:src/main.cpp  **** #endif
 113:src/main.cpp  ****             break;
 114:src/main.cpp  ****         default:
 115:src/main.cpp  ****             printString("Niste uneli odgovarajuci broj za test\n");
 116:src/main.cpp  ****     }
 117:src/main.cpp  **** }
 114              		.loc 1 117 1 is_stmt 0
 115 0080 83308101 		ld	ra,24(sp)
 116              		.cfi_remember_state
 117              		.cfi_restore 1
 118 0084 03340101 		ld	s0,16(sp)
 119              		.cfi_restore 8
 120              		.cfi_def_cfa 2, 32
GAS LISTING /tmp/cctoWuJH.s 			page 6


 121 0088 83348100 		ld	s1,8(sp)
 122              		.cfi_restore 9
 123 008c 03390100 		ld	s2,0(sp)
 124              		.cfi_restore 18
 125 0090 13010102 		addi	sp,sp,32
 126              		.cfi_def_cfa_offset 0
 127 0094 67800000 		jr	ra
 128              	.L10:
 129              		.cfi_restore_state
  71:src/main.cpp  ****         case 1:
 130              		.loc 1 71 9 is_stmt 1
  73:src/main.cpp  ****             printString("TEST 1 (zadatak 2, niti C API i sinhrona promena konteksta)\n");
 131              		.loc 1 73 13
  73:src/main.cpp  ****             printString("TEST 1 (zadatak 2, niti C API i sinhrona promena konteksta)\n");
 132              		.loc 1 73 31 is_stmt 0
 133 0098 97000000 		call	_Z18Threads_C_API_testv
 133      E7800000 
 134              	.LVL5:
  74:src/main.cpp  **** #endif
 135              		.loc 1 74 13 is_stmt 1
  74:src/main.cpp  **** #endif
 136              		.loc 1 74 24 is_stmt 0
 137 00a0 17050000 		lla	a0,.LC2
 137      13050500 
 138 00a8 97000000 		call	_Z11printStringPKc
 138      E7800000 
 139              	.LVL6:
  76:src/main.cpp  ****         case 2:
 140              		.loc 1 76 13 is_stmt 1
 141 00b0 6FF01FFD 		j	.L1
 142              	.L9:
  77:src/main.cpp  **** #if LEVEL_2_IMPLEMENTED == 1
 143              		.loc 1 77 9
  79:src/main.cpp  ****             printString("TEST 2 (zadatak 2., niti CPP API i sinhrona promena konteksta)\n");
 144              		.loc 1 79 13
  79:src/main.cpp  ****             printString("TEST 2 (zadatak 2., niti CPP API i sinhrona promena konteksta)\n");
 145              		.loc 1 79 33 is_stmt 0
 146 00b4 97000000 		call	_Z20Threads_CPP_API_testv
 146      E7800000 
 147              	.LVL7:
  80:src/main.cpp  **** #endif
 148              		.loc 1 80 13 is_stmt 1
  80:src/main.cpp  **** #endif
 149              		.loc 1 80 24 is_stmt 0
 150 00bc 17050000 		lla	a0,.LC3
 150      13050500 
 151 00c4 97000000 		call	_Z11printStringPKc
 151      E7800000 
 152              	.LVL8:
  82:src/main.cpp  ****         case 3:
 153              		.loc 1 82 13 is_stmt 1
 154 00cc 6FF05FFB 		j	.L1
 155              	.L8:
  83:src/main.cpp  **** #if LEVEL_3_IMPLEMENTED == 1
 156              		.loc 1 83 9
  85:src/main.cpp  ****             printString("TEST 3 (zadatak 3., kompletan C API sa semaforima, sinhrona promena kontek
 157              		.loc 1 85 13
GAS LISTING /tmp/cctoWuJH.s 			page 7


  85:src/main.cpp  ****             printString("TEST 3 (zadatak 3., kompletan C API sa semaforima, sinhrona promena kontek
 158              		.loc 1 85 35 is_stmt 0
 159 00d0 97000000 		call	_Z22producerConsumer_C_APIv
 159      E7800000 
 160              	.LVL9:
  86:src/main.cpp  **** #endif
 161              		.loc 1 86 13 is_stmt 1
  86:src/main.cpp  **** #endif
 162              		.loc 1 86 24 is_stmt 0
 163 00d8 17050000 		lla	a0,.LC4
 163      13050500 
 164 00e0 97000000 		call	_Z11printStringPKc
 164      E7800000 
 165              	.LVL10:
  88:src/main.cpp  ****         case 4:
 166              		.loc 1 88 13 is_stmt 1
 167 00e8 6FF09FF9 		j	.L1
 168              	.L7:
  89:src/main.cpp  **** #if LEVEL_3_IMPLEMENTED == 1
 169              		.loc 1 89 9
  91:src/main.cpp  ****             printString("TEST 4 (zadatak 3., kompletan CPP API sa semaforima, sinhrona promena kont
 170              		.loc 1 91 13
  91:src/main.cpp  ****             printString("TEST 4 (zadatak 3., kompletan CPP API sa semaforima, sinhrona promena kont
 171              		.loc 1 91 42 is_stmt 0
 172 00ec 97000000 		call	_Z29producerConsumer_CPP_Sync_APIv
 172      E7800000 
 173              	.LVL11:
  92:src/main.cpp  **** #endif
 174              		.loc 1 92 13 is_stmt 1
  92:src/main.cpp  **** #endif
 175              		.loc 1 92 24 is_stmt 0
 176 00f4 17050000 		lla	a0,.LC5
 176      13050500 
 177 00fc 97000000 		call	_Z11printStringPKc
 177      E7800000 
 178              	.LVL12:
  94:src/main.cpp  ****         case 5:
 179              		.loc 1 94 13 is_stmt 1
 180 0104 6FF0DFF7 		j	.L1
 181              	.L5:
 107:src/main.cpp  **** #if LEVEL_2_IMPLEMENTED == 1
 182              		.loc 1 107 9
 110:src/main.cpp  ****             printString("TEST 7 (zadatak 2., testiranje da li se korisnicki kod izvrsava u korisnic
 183              		.loc 1 110 13
 110:src/main.cpp  ****             printString("TEST 7 (zadatak 2., testiranje da li se korisnicki kod izvrsava u korisnic
 184              		.loc 1 110 24 is_stmt 0
 185 0108 17050000 		lla	a0,.LC6
 185      13050500 
 186 0110 97000000 		call	_Z11printStringPKc
 186      E7800000 
 187              	.LVL13:
 111:src/main.cpp  **** #endif
 188              		.loc 1 111 13 is_stmt 1
 111:src/main.cpp  **** #endif
 189              		.loc 1 111 24 is_stmt 0
 190 0118 17050000 		lla	a0,.LC7
 190      13050500 
GAS LISTING /tmp/cctoWuJH.s 			page 8


 191 0120 97000000 		call	_Z11printStringPKc
 191      E7800000 
 192              	.LVL14:
 113:src/main.cpp  ****         default:
 193              		.loc 1 113 13 is_stmt 1
 194 0128 6FF09FF5 		j	.L1
 195              	.L4:
 114:src/main.cpp  ****             printString("Niste uneli odgovarajuci broj za test\n");
 196              		.loc 1 114 9
 115:src/main.cpp  ****     }
 197              		.loc 1 115 13
 115:src/main.cpp  ****     }
 198              		.loc 1 115 24 is_stmt 0
 199 012c 17050000 		lla	a0,.LC8
 199      13050500 
 200 0134 97000000 		call	_Z11printStringPKc
 200      E7800000 
 201              	.LVL15:
 202 013c 6FF05FF4 		j	.L1
 203              		.cfi_endproc
 204              	.LFE32:
 206              		.section	.rodata.str1.8
 207 0217 00       		.align	3
 208              	.LC9:
 209 0218 5A415652 		.string	"ZAVRSENA JE WRAPPER FJA\n"
 209      53454E41 
 209      204A4520 
 209      57524150 
 209      50455220 
 210              		.text
 211              		.align	2
 212              		.globl	_Z7wrapperPv
 214              	_Z7wrapperPv:
 215              	.LFB33:
 118:src/main.cpp  **** 
 119:src/main.cpp  **** 
 120:src/main.cpp  **** 
 121:src/main.cpp  **** 
 122:src/main.cpp  **** 
 123:src/main.cpp  **** void wrapper(void* arg){
 216              		.loc 1 123 24 is_stmt 1
 217              		.cfi_startproc
 218              	.LVL16:
 219 0140 130101FF 		addi	sp,sp,-16
 220              		.cfi_def_cfa_offset 16
 221 0144 23341100 		sd	ra,8(sp)
 222 0148 23308100 		sd	s0,0(sp)
 223              		.cfi_offset 1, -8
 224              		.cfi_offset 8, -16
 225 014c 13040101 		addi	s0,sp,16
 226              		.cfi_def_cfa 8, 0
 227 0150 6F00C000 		j	.L16
 228              	.LVL17:
 229              	.L14:
 124:src/main.cpp  **** 
 125:src/main.cpp  ****     while(!nitA->isFinished() || !nitB->isFinished() || !nitC->isFinished()){
 126:src/main.cpp  ****         thread_dispatch();
GAS LISTING /tmp/cctoWuJH.s 			page 9


 230              		.loc 1 126 9 discriminator 5
 231              		.loc 1 126 24 is_stmt 0 discriminator 5
 232 0154 97000000 		call	_Z15thread_dispatchv
 232      E7800000 
 233              	.LVL18:
 234              	.L16:
 125:src/main.cpp  ****         thread_dispatch();
 235              		.loc 1 125 5 is_stmt 1
 125:src/main.cpp  ****         thread_dispatch();
 236              		.loc 1 125 54
 125:src/main.cpp  ****         thread_dispatch();
 237              		.loc 1 125 28 is_stmt 0
 238 015c 97070000 		ld	a5,nitA
 238      83B70700 
 239              	.LVL19:
 240              	.LBB14:
 241              	.LBB15:
 242              		.file 2 "src/../h/_thread.hpp"
   1:src/../h/_thread.hpp **** //
   2:src/../h/_thread.hpp **** // Created by basara on 19.6.24..
   3:src/../h/_thread.hpp **** //
   4:src/../h/_thread.hpp **** 
   5:src/../h/_thread.hpp **** #ifndef PROJECT_BASE_HPP
   6:src/../h/_thread.hpp **** #define PROJECT_BASE_HPP
   7:src/../h/_thread.hpp **** 
   8:src/../h/_thread.hpp **** #include "../lib/hw.h"
   9:src/../h/_thread.hpp **** #include "scheduler.hpp"
  10:src/../h/_thread.hpp **** 
  11:src/../h/_thread.hpp **** typedef _thread* thread_t;
  12:src/../h/_thread.hpp **** class _thread{
  13:src/../h/_thread.hpp **** public:
  14:src/../h/_thread.hpp ****     static _thread *running;
  15:src/../h/_thread.hpp **** 
  16:src/../h/_thread.hpp ****     using Body = void (*)(void(*)); //pokazivac na funkciju koja nema argumente ni povratnu vrednos
  17:src/../h/_thread.hpp **** 
  18:src/../h/_thread.hpp ****     ~_thread() {delete[] stack;}
  19:src/../h/_thread.hpp **** 
  20:src/../h/_thread.hpp ****     bool isFinished() const { return finished; }
 243              		.loc 2 20 31 is_stmt 1
 244              		.loc 2 20 38 is_stmt 0
 245 0164 83C78702 		lbu	a5,40(a5)
 246              	.LVL20:
 247              	.LBE15:
 248              	.LBE14:
 125:src/main.cpp  ****         thread_dispatch();
 249              		.loc 1 125 54
 250 0168 E38607FE 		beqz	a5,.L14
 125:src/main.cpp  ****         thread_dispatch();
 251              		.loc 1 125 51 discriminator 2
 252 016c 97070000 		ld	a5,nitB
 252      83B70700 
 253              	.LVL21:
 254              	.LBB16:
 255              	.LBB17:
 256              		.loc 2 20 31 is_stmt 1 discriminator 2
 257              		.loc 2 20 38 is_stmt 0 discriminator 2
 258 0174 83C78702 		lbu	a5,40(a5)
GAS LISTING /tmp/cctoWuJH.s 			page 10


 259              	.LVL22:
 260              	.LBE17:
 261              	.LBE16:
 125:src/main.cpp  ****         thread_dispatch();
 262              		.loc 1 125 31 discriminator 2
 263 0178 E38E07FC 		beqz	a5,.L14
 125:src/main.cpp  ****         thread_dispatch();
 264              		.loc 1 125 74 discriminator 4
 265 017c 97070000 		ld	a5,nitC
 265      83B70700 
 266              	.LVL23:
 267              	.LBB18:
 268              	.LBB19:
 269              		.loc 2 20 31 is_stmt 1 discriminator 4
 270              		.loc 2 20 38 is_stmt 0 discriminator 4
 271 0184 83C78702 		lbu	a5,40(a5)
 272              	.LVL24:
 273              	.LBE19:
 274              	.LBE18:
 125:src/main.cpp  ****         thread_dispatch();
 275              		.loc 1 125 54 discriminator 4
 276 0188 E38607FC 		beqz	a5,.L14
 127:src/main.cpp  ****     }
 128:src/main.cpp  **** 
 129:src/main.cpp  ****     printString("ZAVRSENA JE WRAPPER FJA\n");
 277              		.loc 1 129 5 is_stmt 1
 278              		.loc 1 129 16 is_stmt 0
 279 018c 17050000 		lla	a0,.LC9
 279      13050500 
 280 0194 97000000 		call	_Z11printStringPKc
 280      E7800000 
 281              	.LVL25:
 130:src/main.cpp  ****     _thread::running->setFinished(true);
 282              		.loc 1 130 5 is_stmt 1
 283              	.LBB20:
 284              	.LBB21:
  21:src/../h/_thread.hpp **** 
  22:src/../h/_thread.hpp ****     void setFinished(bool fin) { _thread::finished = fin; }
 285              		.loc 2 22 34
 286              		.loc 2 22 52 is_stmt 0
 287 019c 97070000 		ld	a5,_ZN7_thread7runningE
 287      83B70700 
 288 01a4 13071000 		li	a4,1
 289 01a8 2384E702 		sb	a4,40(a5)
 290              	.LVL26:
 291              	.LBE21:
 292              	.LBE20:
 131:src/main.cpp  ****     thread_dispatch();
 293              		.loc 1 131 5 is_stmt 1
 294              		.loc 1 131 20 is_stmt 0
 295 01ac 97000000 		call	_Z15thread_dispatchv
 295      E7800000 
 296              	.LVL27:
 132:src/main.cpp  **** }
 297              		.loc 1 132 1
 298 01b4 83308100 		ld	ra,8(sp)
 299              		.cfi_restore 1
GAS LISTING /tmp/cctoWuJH.s 			page 11


 300 01b8 03340100 		ld	s0,0(sp)
 301              		.cfi_restore 8
 302              		.cfi_def_cfa 2, 16
 303 01bc 13010101 		addi	sp,sp,16
 304              		.cfi_def_cfa_offset 0
 305 01c0 67800000 		jr	ra
 306              		.cfi_endproc
 307              	.LFE33:
 309              		.align	2
 310              		.globl	main
 312              	main:
 313              	.LFB34:
 133:src/main.cpp  **** 
 134:src/main.cpp  **** int main()
 135:src/main.cpp  **** {
 314              		.loc 1 135 1 is_stmt 1
 315              		.cfi_startproc
 316 01c4 130101FE 		addi	sp,sp,-32
 317              		.cfi_def_cfa_offset 32
 318 01c8 233C1100 		sd	ra,24(sp)
 319 01cc 23388100 		sd	s0,16(sp)
 320              		.cfi_offset 1, -8
 321              		.cfi_offset 8, -16
 322 01d0 13040102 		addi	s0,sp,32
 323              		.cfi_def_cfa 8, 0
 136:src/main.cpp  ****     Riscv::w_stvec((uint64) &Riscv::interruptRoutine);    //upisuje adresu prekidne rutine
 324              		.loc 1 136 5
 325              		.loc 1 136 19 is_stmt 0
 326 01d4 97070000 		lla	a5,_ZN5Riscv16interruptRoutineEv
 326      93870700 
 327              	.LVL28:
 328              	.LBB22:
 329              	.LBB23:
 330              		.file 3 "src/../h/riscv.hpp"
   1:src/../h/riscv.hpp **** //
   2:src/../h/riscv.hpp **** // Created by marko on 20.4.22..
   3:src/../h/riscv.hpp **** //
   4:src/../h/riscv.hpp **** 
   5:src/../h/riscv.hpp **** #ifndef OS_PROJEKAT_RISCV_HPP
   6:src/../h/riscv.hpp **** #define OS_PROJEKAT_RISCV_HPP
   7:src/../h/riscv.hpp **** 
   8:src/../h/riscv.hpp **** 
   9:src/../h/riscv.hpp **** #include "../lib/hw.h"
  10:src/../h/riscv.hpp **** 
  11:src/../h/riscv.hpp **** 
  12:src/../h/riscv.hpp **** class Riscv
  13:src/../h/riscv.hpp **** {
  14:src/../h/riscv.hpp **** public:
  15:src/../h/riscv.hpp **** 
  16:src/../h/riscv.hpp ****     // pop status.spp and sstatus.spie bits
  17:src/../h/riscv.hpp ****     static void popSppSpie();
  18:src/../h/riscv.hpp ****     //implementaciju ove metode stavljam u cpp zato sto je vazno da ova staticka metoda
  19:src/../h/riscv.hpp ****     //bude ne inline, da bi se ovaj kod pozvao i da bi se promenio ra registar
  20:src/../h/riscv.hpp ****     //bitno je da znamo odakle se desio poziv
  21:src/../h/riscv.hpp ****     //jedini nacin da promenimo rezim privilegije je sa funkcijama koje se vracaju iz prekidne ruti
  22:src/../h/riscv.hpp ****     //pomocu sret, konekts novonapravljene niti nece ici preko normalne prekidne rutine vec ce ici 
  23:src/../h/riscv.hpp ****     //threadWrapera i u okviru njegove funckije treba izaci iz prekidne rutine
GAS LISTING /tmp/cctoWuJH.s 			page 12


  24:src/../h/riscv.hpp ****     //sret ce se vratiti tamo gde je sepc rekao
  25:src/../h/riscv.hpp **** 
  26:src/../h/riscv.hpp ****     //preko name manlinga uazi se u definiciju koja je napisana u fajlu preko asemblera
  27:src/../h/riscv.hpp ****     static void interruptRoutine();
  28:src/../h/riscv.hpp **** 
  29:src/../h/riscv.hpp ****     // push x3..x31 registers onto stack
  30:src/../h/riscv.hpp ****     static void pushRegisters();
  31:src/../h/riscv.hpp **** 
  32:src/../h/riscv.hpp ****     // pop x3..x31 registers onto stack
  33:src/../h/riscv.hpp ****     static void popRegisters();
  34:src/../h/riscv.hpp **** 
  35:src/../h/riscv.hpp ****     // read register scause
  36:src/../h/riscv.hpp ****     static uint64 r_scause();
  37:src/../h/riscv.hpp **** 
  38:src/../h/riscv.hpp ****     // write register scause
  39:src/../h/riscv.hpp ****     static void w_scause(uint64 scause);
  40:src/../h/riscv.hpp **** 
  41:src/../h/riscv.hpp ****     // read register sepc
  42:src/../h/riscv.hpp ****     static uint64 r_sepc();
  43:src/../h/riscv.hpp **** 
  44:src/../h/riscv.hpp ****     // write register sepc
  45:src/../h/riscv.hpp ****     static void w_sepc(uint64 sepc);
  46:src/../h/riscv.hpp **** 
  47:src/../h/riscv.hpp ****     // read register stvec
  48:src/../h/riscv.hpp ****     static uint64 r_stvec();
  49:src/../h/riscv.hpp **** 
  50:src/../h/riscv.hpp ****     // write register stvec
  51:src/../h/riscv.hpp ****     static void w_stvec(uint64 stvec);
  52:src/../h/riscv.hpp **** 
  53:src/../h/riscv.hpp ****     // read register stval
  54:src/../h/riscv.hpp ****     static uint64 r_stval();
  55:src/../h/riscv.hpp **** 
  56:src/../h/riscv.hpp ****     // write register stval
  57:src/../h/riscv.hpp ****     static void w_stval(uint64 stval);
  58:src/../h/riscv.hpp **** 
  59:src/../h/riscv.hpp ****     enum BitMaskSip
  60:src/../h/riscv.hpp ****     {
  61:src/../h/riscv.hpp ****         SIP_SSIP = (1 << 1),
  62:src/../h/riscv.hpp ****         SIP_STIP = (1 << 5),
  63:src/../h/riscv.hpp ****         SIP_SEIP = (1 << 9),
  64:src/../h/riscv.hpp ****     };
  65:src/../h/riscv.hpp **** 
  66:src/../h/riscv.hpp ****     // mask set register sip
  67:src/../h/riscv.hpp ****     static void ms_sip(uint64 mask);
  68:src/../h/riscv.hpp **** 
  69:src/../h/riscv.hpp ****     // mask clear register sip
  70:src/../h/riscv.hpp ****     static void mc_sip(uint64 mask);
  71:src/../h/riscv.hpp **** 
  72:src/../h/riscv.hpp ****     // read register sip
  73:src/../h/riscv.hpp ****     static uint64 r_sip();
  74:src/../h/riscv.hpp **** 
  75:src/../h/riscv.hpp ****     // write register sip
  76:src/../h/riscv.hpp ****     static void w_sip(uint64 sip);
  77:src/../h/riscv.hpp **** 
  78:src/../h/riscv.hpp ****     enum BitMaskSstatus
  79:src/../h/riscv.hpp ****     {
  80:src/../h/riscv.hpp ****         SSTATUS_SIE = (1 << 1),
GAS LISTING /tmp/cctoWuJH.s 			page 13


  81:src/../h/riscv.hpp ****         SSTATUS_SPIE = (1 << 5),
  82:src/../h/riscv.hpp ****         SSTATUS_SPP = (1 << 8),
  83:src/../h/riscv.hpp ****     };
  84:src/../h/riscv.hpp **** 
  85:src/../h/riscv.hpp ****     // mask set register sstatus
  86:src/../h/riscv.hpp ****     static void ms_sstatus(uint64 mask);
  87:src/../h/riscv.hpp **** 
  88:src/../h/riscv.hpp ****     // mask clear register sstatus
  89:src/../h/riscv.hpp ****     static void mc_sstatus(uint64 mask);
  90:src/../h/riscv.hpp **** 
  91:src/../h/riscv.hpp ****     // read register sstatus
  92:src/../h/riscv.hpp ****     static uint64 r_sstatus();
  93:src/../h/riscv.hpp **** 
  94:src/../h/riscv.hpp ****     // write register sstatus
  95:src/../h/riscv.hpp ****     static void w_sstatus(uint64 sstatus);
  96:src/../h/riscv.hpp **** 
  97:src/../h/riscv.hpp **** private:
  98:src/../h/riscv.hpp ****     static void interruptRoutineHandler();
  99:src/../h/riscv.hpp **** };
 100:src/../h/riscv.hpp **** 
 101:src/../h/riscv.hpp **** inline uint64 Riscv::r_scause()
 102:src/../h/riscv.hpp **** {
 103:src/../h/riscv.hpp ****     uint64 volatile scause;
 104:src/../h/riscv.hpp ****     __asm__ volatile ("csrr %[scause], scause" : [scause] "=r"(scause));
 105:src/../h/riscv.hpp ****     return scause;
 106:src/../h/riscv.hpp **** }
 107:src/../h/riscv.hpp **** 
 108:src/../h/riscv.hpp **** inline void Riscv::w_scause(uint64 scause)
 109:src/../h/riscv.hpp **** {
 110:src/../h/riscv.hpp ****     __asm__ volatile ("csrw scause, %[scause]" : : [scause] "r"(scause));
 111:src/../h/riscv.hpp **** }
 112:src/../h/riscv.hpp **** 
 113:src/../h/riscv.hpp **** inline uint64 Riscv::r_sepc()
 114:src/../h/riscv.hpp **** {
 115:src/../h/riscv.hpp ****     uint64 volatile sepc;
 116:src/../h/riscv.hpp ****     __asm__ volatile ("csrr %[sepc], sepc" : [sepc] "=r"(sepc));
 117:src/../h/riscv.hpp ****     return sepc;
 118:src/../h/riscv.hpp **** }
 119:src/../h/riscv.hpp **** 
 120:src/../h/riscv.hpp **** inline void Riscv::w_sepc(uint64 sepc)
 121:src/../h/riscv.hpp **** {
 122:src/../h/riscv.hpp ****     __asm__ volatile ("csrw sepc, %[sepc]" : : [sepc] "r"(sepc));
 123:src/../h/riscv.hpp **** }
 124:src/../h/riscv.hpp **** 
 125:src/../h/riscv.hpp **** inline uint64 Riscv::r_stvec()
 126:src/../h/riscv.hpp **** {
 127:src/../h/riscv.hpp ****     uint64 volatile stvec;
 128:src/../h/riscv.hpp ****     __asm__ volatile ("csrr %[stvec], stvec" : [stvec] "=r"(stvec));
 129:src/../h/riscv.hpp ****     return stvec;
 130:src/../h/riscv.hpp **** }
 131:src/../h/riscv.hpp **** 
 132:src/../h/riscv.hpp **** inline void Riscv::w_stvec(uint64 stvec)
 133:src/../h/riscv.hpp **** {
 134:src/../h/riscv.hpp ****     __asm__ volatile ("csrw stvec, %[stvec]" : : [stvec] "r"(stvec));
 331              		.loc 3 134 5 is_stmt 1
 332              		.loc 3 134 69 is_stmt 0
 333              	 #APP
GAS LISTING /tmp/cctoWuJH.s 			page 14


 334              	# 134 "src/../h/riscv.hpp" 1
 135              	}
 335              		csrw stvec, a5
 336              	# 0 "" 2
 337              	.LVL29:
 338              	 #NO_APP
 339              	.LBE23:
 340              	.LBE22:
 137:src/main.cpp  ****     //Riscv: :ms_sstatus (Riscv:: SSTATUS_SIE);
 138:src/main.cpp  ****     thread_t thread1;
 341              		.loc 1 138 5 is_stmt 1
 139:src/main.cpp  ****     //idle nit(nit koja nema fju koja treba da izvrsava)
 140:src/main.cpp  ****     thread_create(&thread1, nullptr, nullptr);
 342              		.loc 1 140 5
 343              		.loc 1 140 18 is_stmt 0
 344 01e0 13060000 		li	a2,0
 345 01e4 93050000 		li	a1,0
 346 01e8 130584FE 		addi	a0,s0,-24
 347 01ec 97000000 		call	_Z13thread_createPP7_threadPFvPvES2_
 347      E7800000 
 348              	.LVL30:
 141:src/main.cpp  ****     _thread::running = thread1;
 349              		.loc 1 141 5 is_stmt 1
 350              		.loc 1 141 22 is_stmt 0
 351 01f4 833784FE 		ld	a5,-24(s0)
 352 01f8 17070000 		sd	a5,_ZN7_thread7runningE,a4
 352      2330F700 
 142:src/main.cpp  ****     thread_t thread2;
 353              		.loc 1 142 5 is_stmt 1
 143:src/main.cpp  ****     thread_create(&thread2, reinterpret_cast<void (*)(void *)>(userMain), nullptr);
 354              		.loc 1 143 5
 355              		.loc 1 143 18 is_stmt 0
 356 0200 13060000 		li	a2,0
 357 0204 97050000 		lla	a1,_Z8userMainv
 357      93850500 
 358 020c 130504FE 		addi	a0,s0,-32
 359 0210 97000000 		call	_Z13thread_createPP7_threadPFvPvES2_
 359      E7800000 
 360              	.LVL31:
 361              	.L20:
 144:src/main.cpp  **** 
 145:src/main.cpp  ****     while (!(thread2->isFinished())) {
 362              		.loc 1 145 5 is_stmt 1
 363              		.loc 1 145 12
 364              		.loc 1 145 33 is_stmt 0
 365 0218 833704FE 		ld	a5,-32(s0)
 366              	.LVL32:
 367              	.LBB24:
 368              	.LBB25:
  20:src/../h/_thread.hpp **** 
 369              		.loc 2 20 31 is_stmt 1
  20:src/../h/_thread.hpp **** 
 370              		.loc 2 20 38 is_stmt 0
 371 021c 83C78702 		lbu	a5,40(a5)
 372              	.LVL33:
 373              	.LBE25:
 374              	.LBE24:
GAS LISTING /tmp/cctoWuJH.s 			page 15


 375              		.loc 1 145 12
 376 0220 63980700 		bnez	a5,.L19
 146:src/main.cpp  ****         thread_dispatch();
 377              		.loc 1 146 9 is_stmt 1
 378              		.loc 1 146 24 is_stmt 0
 379 0224 97000000 		call	_Z15thread_dispatchv
 379      E7800000 
 380              	.LVL34:
 381 022c 6FF0DFFE 		j	.L20
 382              	.L19:
 147:src/main.cpp  ****     }
 148:src/main.cpp  **** 
 149:src/main.cpp  ****     return 0;
 383              		.loc 1 149 5 is_stmt 1
 150:src/main.cpp  **** }
 384              		.loc 1 150 1 is_stmt 0
 385 0230 13050000 		li	a0,0
 386 0234 83308101 		ld	ra,24(sp)
 387              		.cfi_restore 1
 388 0238 03340101 		ld	s0,16(sp)
 389              		.cfi_restore 8
 390              		.cfi_def_cfa 2, 32
 391 023c 13010102 		addi	sp,sp,32
 392              		.cfi_def_cfa_offset 0
 393 0240 67800000 		jr	ra
 394              		.cfi_endproc
 395              	.LFE34:
 397              		.globl	nitC
 398              		.globl	nitB
 399              		.globl	nitA
 400              		.section	.sbss,"aw",@nobits
 401              		.align	3
 404              	nitC:
 405 0000 00000000 		.zero	8
 405      00000000 
 408              	nitB:
 409 0008 00000000 		.zero	8
 409      00000000 
 412              	nitA:
 413 0010 00000000 		.zero	8
 413      00000000 
 414              		.text
 415              	.Letext0:
 416              		.file 4 "src/../h/../lib/hw.h"
 417              		.file 5 "src/../h/syscall_c.hpp"
 418              		.file 6 "src/../test/printing.hpp"
 419              		.file 7 "src/../test/Threads_C_API_test.hpp"
 420              		.file 8 "src/../test/Threads_CPP_API_test.hpp"
 421              		.file 9 "src/../test/ConsumerProducer_C_API_test.hpp"
 422              		.file 10 "src/../test/ConsumerProducer_CPP_Sync_API_test.hpp"
GAS LISTING /tmp/cctoWuJH.s 			page 16


DEFINED SYMBOLS
                            *ABS*:0000000000000000 main.cpp
     /tmp/cctoWuJH.s:41     .text:0000000000000000 _Z8userMainv
     /tmp/cctoWuJH.s:45     .text:0000000000000000 .L0 
     /tmp/cctoWuJH.s:46     .text:0000000000000000 .L0 
     /tmp/cctoWuJH.s:47     .text:0000000000000004 .L0 
     /tmp/cctoWuJH.s:52     .text:0000000000000014 .L0 
     /tmp/cctoWuJH.s:53     .text:0000000000000014 .L0 
     /tmp/cctoWuJH.s:54     .text:0000000000000014 .L0 
     /tmp/cctoWuJH.s:55     .text:0000000000000014 .L0 
     /tmp/cctoWuJH.s:57     .text:0000000000000018 .L0 
     /tmp/cctoWuJH.s:59     .text:0000000000000018 .L0 
     /tmp/cctoWuJH.s:60     .text:0000000000000018 .L0 
     /tmp/cctoWuJH.s:64     .text:0000000000000028 .L0 
     /tmp/cctoWuJH.s:65     .text:0000000000000028 .L0 
     /tmp/cctoWuJH.s:69     .text:0000000000000034 .L0 
     /tmp/cctoWuJH.s:72     .text:0000000000000038 .L0 
     /tmp/cctoWuJH.s:73     .text:0000000000000038 .L0 
     /tmp/cctoWuJH.s:76     .text:0000000000000040 .L0 
     /tmp/cctoWuJH.s:77     .text:0000000000000040 .L0 
     /tmp/cctoWuJH.s:78     .text:0000000000000040 .L0 
     /tmp/cctoWuJH.s:79     .text:0000000000000040 .L0 
     /tmp/cctoWuJH.s:81     .text:0000000000000044 .L0 
     /tmp/cctoWuJH.s:84     .text:000000000000004c .L0 
     /tmp/cctoWuJH.s:107    .text:0000000000000070 .L0 
     /tmp/cctoWuJH.s:108    .text:0000000000000070 .L0 
     /tmp/cctoWuJH.s:109    .text:0000000000000070 .L0 
     /tmp/cctoWuJH.s:114    .text:0000000000000080 .L0 
     /tmp/cctoWuJH.s:115    .text:0000000000000080 .L0 
     /tmp/cctoWuJH.s:116    .text:0000000000000084 .L0 
     /tmp/cctoWuJH.s:117    .text:0000000000000084 .L0 
     /tmp/cctoWuJH.s:119    .text:0000000000000088 .L0 
     /tmp/cctoWuJH.s:120    .text:0000000000000088 .L0 
     /tmp/cctoWuJH.s:122    .text:000000000000008c .L0 
     /tmp/cctoWuJH.s:124    .text:0000000000000090 .L0 
     /tmp/cctoWuJH.s:126    .text:0000000000000094 .L0 
     /tmp/cctoWuJH.s:129    .text:0000000000000098 .L0 
     /tmp/cctoWuJH.s:131    .text:0000000000000098 .L0 
     /tmp/cctoWuJH.s:132    .text:0000000000000098 .L0 
     /tmp/cctoWuJH.s:133    .text:0000000000000098 .L0 
     /tmp/cctoWuJH.s:136    .text:00000000000000a0 .L0 
     /tmp/cctoWuJH.s:137    .text:00000000000000a0 .L0 
     /tmp/cctoWuJH.s:141    .text:00000000000000b0 .L0 
     /tmp/cctoWuJH.s:144    .text:00000000000000b4 .L0 
     /tmp/cctoWuJH.s:145    .text:00000000000000b4 .L0 
     /tmp/cctoWuJH.s:146    .text:00000000000000b4 .L0 
     /tmp/cctoWuJH.s:149    .text:00000000000000bc .L0 
     /tmp/cctoWuJH.s:150    .text:00000000000000bc .L0 
     /tmp/cctoWuJH.s:154    .text:00000000000000cc .L0 
     /tmp/cctoWuJH.s:157    .text:00000000000000d0 .L0 
     /tmp/cctoWuJH.s:158    .text:00000000000000d0 .L0 
     /tmp/cctoWuJH.s:159    .text:00000000000000d0 .L0 
     /tmp/cctoWuJH.s:162    .text:00000000000000d8 .L0 
     /tmp/cctoWuJH.s:163    .text:00000000000000d8 .L0 
     /tmp/cctoWuJH.s:167    .text:00000000000000e8 .L0 
     /tmp/cctoWuJH.s:170    .text:00000000000000ec .L0 
     /tmp/cctoWuJH.s:171    .text:00000000000000ec .L0 
GAS LISTING /tmp/cctoWuJH.s 			page 17


     /tmp/cctoWuJH.s:172    .text:00000000000000ec .L0 
     /tmp/cctoWuJH.s:175    .text:00000000000000f4 .L0 
     /tmp/cctoWuJH.s:176    .text:00000000000000f4 .L0 
     /tmp/cctoWuJH.s:180    .text:0000000000000104 .L0 
     /tmp/cctoWuJH.s:183    .text:0000000000000108 .L0 
     /tmp/cctoWuJH.s:184    .text:0000000000000108 .L0 
     /tmp/cctoWuJH.s:185    .text:0000000000000108 .L0 
     /tmp/cctoWuJH.s:189    .text:0000000000000118 .L0 
     /tmp/cctoWuJH.s:190    .text:0000000000000118 .L0 
     /tmp/cctoWuJH.s:194    .text:0000000000000128 .L0 
     /tmp/cctoWuJH.s:197    .text:000000000000012c .L0 
     /tmp/cctoWuJH.s:198    .text:000000000000012c .L0 
     /tmp/cctoWuJH.s:199    .text:000000000000012c .L0 
     /tmp/cctoWuJH.s:203    .text:0000000000000140 .L0 
     /tmp/cctoWuJH.s:214    .text:0000000000000140 _Z7wrapperPv
     /tmp/cctoWuJH.s:217    .text:0000000000000140 .L0 
     /tmp/cctoWuJH.s:219    .text:0000000000000140 .L0 
     /tmp/cctoWuJH.s:220    .text:0000000000000144 .L0 
     /tmp/cctoWuJH.s:223    .text:000000000000014c .L0 
     /tmp/cctoWuJH.s:224    .text:000000000000014c .L0 
     /tmp/cctoWuJH.s:226    .text:0000000000000150 .L0 
     /tmp/cctoWuJH.s:231    .text:0000000000000154 .L0 
     /tmp/cctoWuJH.s:232    .text:0000000000000154 .L0 
     /tmp/cctoWuJH.s:236    .text:000000000000015c .L0 
     /tmp/cctoWuJH.s:237    .text:000000000000015c .L0 
     /tmp/cctoWuJH.s:412    .sbss:0000000000000010 nitA
     /tmp/cctoWuJH.s:238    .text:000000000000015c .L0 
     /tmp/cctoWuJH.s:244    .text:0000000000000164 .L0 
     /tmp/cctoWuJH.s:245    .text:0000000000000164 .L0 
     /tmp/cctoWuJH.s:250    .text:0000000000000168 .L0 
     /tmp/cctoWuJH.s:408    .sbss:0000000000000008 nitB
     /tmp/cctoWuJH.s:252    .text:000000000000016c .L0 
     /tmp/cctoWuJH.s:257    .text:0000000000000174 .L0 
     /tmp/cctoWuJH.s:258    .text:0000000000000174 .L0 
     /tmp/cctoWuJH.s:263    .text:0000000000000178 .L0 
     /tmp/cctoWuJH.s:404    .sbss:0000000000000000 nitC
     /tmp/cctoWuJH.s:265    .text:000000000000017c .L0 
     /tmp/cctoWuJH.s:270    .text:0000000000000184 .L0 
     /tmp/cctoWuJH.s:271    .text:0000000000000184 .L0 
     /tmp/cctoWuJH.s:276    .text:0000000000000188 .L0 
     /tmp/cctoWuJH.s:278    .text:000000000000018c .L0 
     /tmp/cctoWuJH.s:279    .text:000000000000018c .L0 
     /tmp/cctoWuJH.s:285    .text:000000000000019c .L0 
     /tmp/cctoWuJH.s:286    .text:000000000000019c .L0 
     /tmp/cctoWuJH.s:287    .text:000000000000019c .L0 
     /tmp/cctoWuJH.s:294    .text:00000000000001ac .L0 
     /tmp/cctoWuJH.s:295    .text:00000000000001ac .L0 
     /tmp/cctoWuJH.s:298    .text:00000000000001b4 .L0 
     /tmp/cctoWuJH.s:299    .text:00000000000001b8 .L0 
     /tmp/cctoWuJH.s:301    .text:00000000000001bc .L0 
     /tmp/cctoWuJH.s:302    .text:00000000000001bc .L0 
     /tmp/cctoWuJH.s:304    .text:00000000000001c0 .L0 
     /tmp/cctoWuJH.s:306    .text:00000000000001c4 .L0 
     /tmp/cctoWuJH.s:312    .text:00000000000001c4 main
     /tmp/cctoWuJH.s:315    .text:00000000000001c4 .L0 
     /tmp/cctoWuJH.s:316    .text:00000000000001c4 .L0 
     /tmp/cctoWuJH.s:317    .text:00000000000001c8 .L0 
GAS LISTING /tmp/cctoWuJH.s 			page 18


     /tmp/cctoWuJH.s:320    .text:00000000000001d0 .L0 
     /tmp/cctoWuJH.s:321    .text:00000000000001d0 .L0 
     /tmp/cctoWuJH.s:323    .text:00000000000001d4 .L0 
     /tmp/cctoWuJH.s:325    .text:00000000000001d4 .L0 
     /tmp/cctoWuJH.s:326    .text:00000000000001d4 .L0 
     /tmp/cctoWuJH.s:332    .text:00000000000001dc .L0 
  src/../h/riscv.hpp:134    .text:00000000000001dc .L0 
     /tmp/cctoWuJH.s:342    .text:00000000000001e0 .L0 
     /tmp/cctoWuJH.s:343    .text:00000000000001e0 .L0 
     /tmp/cctoWuJH.s:344    .text:00000000000001e0 .L0 
     /tmp/cctoWuJH.s:350    .text:00000000000001f4 .L0 
     /tmp/cctoWuJH.s:351    .text:00000000000001f4 .L0 
     /tmp/cctoWuJH.s:354    .text:0000000000000200 .L0 
     /tmp/cctoWuJH.s:355    .text:0000000000000200 .L0 
     /tmp/cctoWuJH.s:356    .text:0000000000000200 .L0 
     /tmp/cctoWuJH.s:363    .text:0000000000000218 .L0 
     /tmp/cctoWuJH.s:364    .text:0000000000000218 .L0 
     /tmp/cctoWuJH.s:365    .text:0000000000000218 .L0 
     /tmp/cctoWuJH.s:370    .text:000000000000021c .L0 
     /tmp/cctoWuJH.s:371    .text:000000000000021c .L0 
     /tmp/cctoWuJH.s:376    .text:0000000000000220 .L0 
     /tmp/cctoWuJH.s:378    .text:0000000000000224 .L0 
     /tmp/cctoWuJH.s:379    .text:0000000000000224 .L0 
     /tmp/cctoWuJH.s:384    .text:0000000000000230 .L0 
     /tmp/cctoWuJH.s:385    .text:0000000000000230 .L0 
     /tmp/cctoWuJH.s:387    .text:0000000000000238 .L0 
     /tmp/cctoWuJH.s:389    .text:000000000000023c .L0 
     /tmp/cctoWuJH.s:390    .text:000000000000023c .L0 
     /tmp/cctoWuJH.s:392    .text:0000000000000240 .L0 
     /tmp/cctoWuJH.s:394    .text:0000000000000244 .L0 
     /tmp/cctoWuJH.s:423    .text:0000000000000244 .L0 
     /tmp/cctoWuJH.s:11     .rodata.str1.8:0000000000000000 .LC0
     /tmp/cctoWuJH.s:60     .text:0000000000000018 .L0 
     /tmp/cctoWuJH.s:95     .rodata:0000000000000000 .L6
     /tmp/cctoWuJH.s:87     .text:0000000000000058 .L0 
     /tmp/cctoWuJH.s:14     .rodata.str1.8:0000000000000020 .LC1
     /tmp/cctoWuJH.s:109    .text:0000000000000070 .L0 
     /tmp/cctoWuJH.s:17     .rodata.str1.8:0000000000000050 .LC2
     /tmp/cctoWuJH.s:137    .text:00000000000000a0 .L0 
     /tmp/cctoWuJH.s:20     .rodata.str1.8:0000000000000090 .LC3
     /tmp/cctoWuJH.s:150    .text:00000000000000bc .L0 
     /tmp/cctoWuJH.s:23     .rodata.str1.8:00000000000000d0 .LC4
     /tmp/cctoWuJH.s:163    .text:00000000000000d8 .L0 
     /tmp/cctoWuJH.s:26     .rodata.str1.8:0000000000000120 .LC5
     /tmp/cctoWuJH.s:176    .text:00000000000000f4 .L0 
     /tmp/cctoWuJH.s:29     .rodata.str1.8:0000000000000178 .LC6
     /tmp/cctoWuJH.s:185    .text:0000000000000108 .L0 
     /tmp/cctoWuJH.s:32     .rodata.str1.8:0000000000000198 .LC7
     /tmp/cctoWuJH.s:190    .text:0000000000000118 .L0 
     /tmp/cctoWuJH.s:35     .rodata.str1.8:00000000000001f0 .LC8
     /tmp/cctoWuJH.s:199    .text:000000000000012c .L0 
     /tmp/cctoWuJH.s:238    .text:000000000000015c .L0 
     /tmp/cctoWuJH.s:252    .text:000000000000016c .L0 
     /tmp/cctoWuJH.s:265    .text:000000000000017c .L0 
     /tmp/cctoWuJH.s:208    .rodata.str1.8:0000000000000218 .LC9
     /tmp/cctoWuJH.s:279    .text:000000000000018c .L0 
     /tmp/cctoWuJH.s:287    .text:000000000000019c .L0 
GAS LISTING /tmp/cctoWuJH.s 			page 19


     /tmp/cctoWuJH.s:326    .text:00000000000001d4 .L0 
     /tmp/cctoWuJH.s:352    .text:00000000000001f8 .L0 
     /tmp/cctoWuJH.s:357    .text:0000000000000204 .L0 
     /tmp/cctoWuJH.s:105    .text:0000000000000070 .L12
     /tmp/cctoWuJH.s:195    .text:000000000000012c .L4
     /tmp/cctoWuJH.s:113    .text:0000000000000080 .L1
     /tmp/cctoWuJH.s:234    .text:000000000000015c .L16
     /tmp/cctoWuJH.s:229    .text:0000000000000154 .L14
     /tmp/cctoWuJH.s:382    .text:0000000000000230 .L19
     /tmp/cctoWuJH.s:361    .text:0000000000000218 .L20
     /tmp/cctoWuJH.s:128    .text:0000000000000098 .L10
     /tmp/cctoWuJH.s:142    .text:00000000000000b4 .L9
     /tmp/cctoWuJH.s:155    .text:00000000000000d0 .L8
     /tmp/cctoWuJH.s:168    .text:00000000000000ec .L7
     /tmp/cctoWuJH.s:181    .text:0000000000000108 .L5
     /tmp/cctoWuJH.s:1420   .debug_abbrev:0000000000000000 .Ldebug_abbrev0
     /tmp/cctoWuJH.s:2305   .debug_str:00000000000000c0 .LASF110
     /tmp/cctoWuJH.s:2389   .debug_str:0000000000000436 .LASF111
     /tmp/cctoWuJH.s:2361   .debug_str:0000000000000342 .LASF112
     /tmp/cctoWuJH.s:8      .text:0000000000000000 .Ltext0
     /tmp/cctoWuJH.s:415    .text:0000000000000244 .Letext0
     /tmp/cctoWuJH.s:2271   .debug_line:0000000000000000 .Ldebug_line0
     /tmp/cctoWuJH.s:2411   .debug_str:000000000000051e .LASF0
     /tmp/cctoWuJH.s:2425   .debug_str:0000000000000595 .LASF1
     /tmp/cctoWuJH.s:2403   .debug_str:00000000000004e7 .LASF2
     /tmp/cctoWuJH.s:2375   .debug_str:00000000000003e3 .LASF4
     /tmp/cctoWuJH.s:2465   .debug_str:00000000000006b1 .LASF3
     /tmp/cctoWuJH.s:2307   .debug_str:0000000000000184 .LASF5
     /tmp/cctoWuJH.s:2427   .debug_str:00000000000005a8 .LASF6
     /tmp/cctoWuJH.s:2409   .debug_str:000000000000050b .LASF7
     /tmp/cctoWuJH.s:2489   .debug_str:0000000000000789 .LASF8
     /tmp/cctoWuJH.s:2359   .debug_str:0000000000000334 .LASF9
     /tmp/cctoWuJH.s:2443   .debug_str:0000000000000619 .LASF10
     /tmp/cctoWuJH.s:2481   .debug_str:0000000000000744 .LASF11
     /tmp/cctoWuJH.s:2309   .debug_str:000000000000018b .LASF12
     /tmp/cctoWuJH.s:2283   .debug_str:0000000000000053 .LASF13
     /tmp/cctoWuJH.s:2315   .debug_str:00000000000001b9 .LASF14
     /tmp/cctoWuJH.s:2459   .debug_str:000000000000067a .LASF15
     /tmp/cctoWuJH.s:2323   .debug_str:0000000000000219 .LASF16
     /tmp/cctoWuJH.s:2423   .debug_str:000000000000058f .LASF57
     /tmp/cctoWuJH.s:2457   .debug_str:000000000000066f .LASF17
     /tmp/cctoWuJH.s:2499   .debug_str:00000000000007cd .LASF19
     /tmp/cctoWuJH.s:2369   .debug_str:00000000000003b4 .LASF18
     /tmp/cctoWuJH.s:2441   .debug_str:00000000000005fb .LASF20
     /tmp/cctoWuJH.s:2303   .debug_str:00000000000000b2 .LASF21
     /tmp/cctoWuJH.s:2339   .debug_str:000000000000029f .LASF22
     /tmp/cctoWuJH.s:2473   .debug_str:000000000000070b .LASF23
     /tmp/cctoWuJH.s:2279   .debug_str:0000000000000034 .LASF24
     /tmp/cctoWuJH.s:2285   .debug_str:0000000000000063 .LASF25
     /tmp/cctoWuJH.s:2471   .debug_str:00000000000006f6 .LASF27
     /tmp/cctoWuJH.s:2337   .debug_str:0000000000000296 .LASF29
     /tmp/cctoWuJH.s:2335   .debug_str:0000000000000281 .LASF31
     /tmp/cctoWuJH.s:2469   .debug_str:00000000000006ef .LASF26
     /tmp/cctoWuJH.s:2447   .debug_str:000000000000062d .LASF28
     /tmp/cctoWuJH.s:2479   .debug_str:000000000000073d .LASF30
     /tmp/cctoWuJH.s:2475   .debug_str:0000000000000718 .LASF32
     /tmp/cctoWuJH.s:2353   .debug_str:000000000000030b .LASF33
GAS LISTING /tmp/cctoWuJH.s 			page 20


     /tmp/cctoWuJH.s:2325   .debug_str:000000000000022f .LASF34
     /tmp/cctoWuJH.s:2277   .debug_str:000000000000002c .LASF35
     /tmp/cctoWuJH.s:2367   .debug_str:00000000000003a0 .LASF36
     /tmp/cctoWuJH.s:2343   .debug_str:00000000000002c2 .LASF37
     /tmp/cctoWuJH.s:2311   .debug_str:000000000000019b .LASF38
     /tmp/cctoWuJH.s:2503   .debug_str:00000000000007f0 .LASF39
     /tmp/cctoWuJH.s:2345   .debug_str:00000000000002ca .LASF40
     /tmp/cctoWuJH.s:2413   .debug_str:000000000000052b .LASF41
     /tmp/cctoWuJH.s:2495   .debug_str:00000000000007b5 .LASF42
     /tmp/cctoWuJH.s:2301   .debug_str:00000000000000ab .LASF43
     /tmp/cctoWuJH.s:2351   .debug_str:00000000000002f8 .LASF44
     /tmp/cctoWuJH.s:2357   .debug_str:000000000000032e .LASF45
     /tmp/cctoWuJH.s:2477   .debug_str:000000000000072b .LASF46
     /tmp/cctoWuJH.s:2299   .debug_str:00000000000000a5 .LASF47
     /tmp/cctoWuJH.s:2507   .debug_str:0000000000000800 .LASF48
     /tmp/cctoWuJH.s:2501   .debug_str:00000000000007e5 .LASF49
     /tmp/cctoWuJH.s:2461   .debug_str:0000000000000690 .LASF50
     /tmp/cctoWuJH.s:2381   .debug_str:00000000000003f8 .LASF51
     /tmp/cctoWuJH.s:2393   .debug_str:0000000000000451 .LASF52
     /tmp/cctoWuJH.s:2313   .debug_str:00000000000001af .LASF53
     /tmp/cctoWuJH.s:2371   .debug_str:00000000000003c5 .LASF54
     /tmp/cctoWuJH.s:2407   .debug_str:0000000000000501 .LASF55
     /tmp/cctoWuJH.s:2363   .debug_str:000000000000036d .LASF56
     /tmp/cctoWuJH.s:2451   .debug_str:0000000000000645 .LASF72
     /tmp/cctoWuJH.s:2317   .debug_str:00000000000001c5 .LASF74
     /tmp/cctoWuJH.s:2373   .debug_str:00000000000003db .LASF58
     /tmp/cctoWuJH.s:2289   .debug_str:0000000000000078 .LASF113
     /tmp/cctoWuJH.s:2341   .debug_str:00000000000002ba .LASF114
     /tmp/cctoWuJH.s:2485   .debug_str:0000000000000766 .LASF59
     /tmp/cctoWuJH.s:2431   .debug_str:00000000000005c6 .LASF61
     /tmp/cctoWuJH.s:2429   .debug_str:00000000000005bb .LASF83
     /tmp/cctoWuJH.s:2401   .debug_str:00000000000004cc .LASF88
     /tmp/cctoWuJH.s:2405   .debug_str:00000000000004f5 .LASF60
     /tmp/cctoWuJH.s:2399   .debug_str:00000000000004b1 .LASF62
     /tmp/cctoWuJH.s:2491   .debug_str:0000000000000799 .LASF63
     /tmp/cctoWuJH.s:2467   .debug_str:00000000000006c3 .LASF64
     /tmp/cctoWuJH.s:2445   .debug_str:0000000000000628 .LASF115
     /tmp/cctoWuJH.s:2295   .debug_str:0000000000000090 .LASF65
     /tmp/cctoWuJH.s:2355   .debug_str:0000000000000313 .LASF66
     /tmp/cctoWuJH.s:2421   .debug_str:0000000000000574 .LASF67
     /tmp/cctoWuJH.s:2379   .debug_str:00000000000003f3 .LASF68
     /tmp/cctoWuJH.s:2419   .debug_str:000000000000056e .LASF69
     /tmp/cctoWuJH.s:2383   .debug_str:0000000000000403 .LASF70
     /tmp/cctoWuJH.s:2377   .debug_str:00000000000003ea .LASF71
     /tmp/cctoWuJH.s:2493   .debug_str:00000000000007a7 .LASF116
     /tmp/cctoWuJH.s:2397   .debug_str:0000000000000485 .LASF117
     /tmp/cctoWuJH.s:2319   .debug_str:00000000000001ea .LASF73
     /tmp/cctoWuJH.s:2321   .debug_str:00000000000001fa .LASF75
     /tmp/cctoWuJH.s:2391   .debug_str:0000000000000443 .LASF76
     /tmp/cctoWuJH.s:2365   .debug_str:0000000000000383 .LASF77
     /tmp/cctoWuJH.s:2273   .debug_str:0000000000000000 .LASF78
     /tmp/cctoWuJH.s:2347   .debug_str:00000000000002de .LASF79
     /tmp/cctoWuJH.s:2333   .debug_str:000000000000027c .LASF80
     /tmp/cctoWuJH.s:2281   .debug_str:000000000000004e .LASF81
     /tmp/cctoWuJH.s:2435   .debug_str:00000000000005dc .LASF82
     /tmp/cctoWuJH.s:2437   .debug_str:00000000000005e1 .LASF84
     /tmp/cctoWuJH.s:313    .text:00000000000001c4 .LFB34
GAS LISTING /tmp/cctoWuJH.s 			page 21


     /tmp/cctoWuJH.s:395    .text:0000000000000244 .LFE34
     /tmp/cctoWuJH.s:2291   .debug_str:0000000000000080 .LASF85
     /tmp/cctoWuJH.s:2293   .debug_str:0000000000000088 .LASF86
     /tmp/cctoWuJH.s:328    .text:00000000000001dc .LBB22
     /tmp/cctoWuJH.s:340    .text:00000000000001e0 .LBE22
     /tmp/cctoWuJH.s:367    .text:000000000000021c .LBB24
     /tmp/cctoWuJH.s:374    .text:0000000000000220 .LBE24
     /tmp/cctoWuJH.s:2199   .debug_loc:0000000000000000 .LLST6
     /tmp/cctoWuJH.s:348    .text:00000000000001f4 .LVL30
     /tmp/cctoWuJH.s:360    .text:0000000000000218 .LVL31
     /tmp/cctoWuJH.s:380    .text:000000000000022c .LVL34
     /tmp/cctoWuJH.s:2505   .debug_str:00000000000007f8 .LASF87
     /tmp/cctoWuJH.s:2455   .debug_str:0000000000000662 .LASF89
     /tmp/cctoWuJH.s:215    .text:0000000000000140 .LFB33
     /tmp/cctoWuJH.s:307    .text:00000000000001c4 .LFE33
     /tmp/cctoWuJH.s:2206   .debug_loc:0000000000000023 .LLST1
     /tmp/cctoWuJH.s:240    .text:0000000000000164 .LBB14
     /tmp/cctoWuJH.s:248    .text:0000000000000168 .LBE14
     /tmp/cctoWuJH.s:2220   .debug_loc:000000000000005c .LLST2
     /tmp/cctoWuJH.s:254    .text:0000000000000174 .LBB16
     /tmp/cctoWuJH.s:261    .text:0000000000000178 .LBE16
     /tmp/cctoWuJH.s:2227   .debug_loc:000000000000007f .LLST3
     /tmp/cctoWuJH.s:267    .text:0000000000000184 .LBB18
     /tmp/cctoWuJH.s:274    .text:0000000000000188 .LBE18
     /tmp/cctoWuJH.s:2234   .debug_loc:00000000000000a2 .LLST4
     /tmp/cctoWuJH.s:283    .text:000000000000019c .LBB20
     /tmp/cctoWuJH.s:292    .text:00000000000001ac .LBE20
     /tmp/cctoWuJH.s:2241   .debug_loc:00000000000000c5 .LLST5
     /tmp/cctoWuJH.s:233    .text:000000000000015c .LVL18
     /tmp/cctoWuJH.s:281    .text:000000000000019c .LVL25
     /tmp/cctoWuJH.s:296    .text:00000000000001b4 .LVL27
     /tmp/cctoWuJH.s:2297   .debug_str:000000000000009c .LASF90
     /tmp/cctoWuJH.s:2385   .debug_str:000000000000040b .LASF91
     /tmp/cctoWuJH.s:42     .text:0000000000000000 .LFB32
     /tmp/cctoWuJH.s:204    .text:0000000000000140 .LFE32
     /tmp/cctoWuJH.s:2453   .debug_str:000000000000065d .LASF92
     /tmp/cctoWuJH.s:2249   .debug_loc:00000000000000e9 .LLST0
     /tmp/cctoWuJH.s:62     .text:0000000000000028 .LVL0
     /tmp/cctoWuJH.s:66     .text:0000000000000030 .LVL1
     /tmp/cctoWuJH.s:74     .text:0000000000000040 .LVL3
     /tmp/cctoWuJH.s:111    .text:0000000000000080 .LVL4
     /tmp/cctoWuJH.s:134    .text:00000000000000a0 .LVL5
     /tmp/cctoWuJH.s:139    .text:00000000000000b0 .LVL6
     /tmp/cctoWuJH.s:147    .text:00000000000000bc .LVL7
     /tmp/cctoWuJH.s:152    .text:00000000000000cc .LVL8
     /tmp/cctoWuJH.s:160    .text:00000000000000d8 .LVL9
     /tmp/cctoWuJH.s:165    .text:00000000000000e8 .LVL10
     /tmp/cctoWuJH.s:173    .text:00000000000000f4 .LVL11
     /tmp/cctoWuJH.s:178    .text:0000000000000104 .LVL12
     /tmp/cctoWuJH.s:187    .text:0000000000000118 .LVL13
     /tmp/cctoWuJH.s:192    .text:0000000000000128 .LVL14
     /tmp/cctoWuJH.s:201    .text:000000000000013c .LVL15
     /tmp/cctoWuJH.s:2497   .debug_str:00000000000007c8 .LASF93
     /tmp/cctoWuJH.s:2433   .debug_str:00000000000005d6 .LASF94
     /tmp/cctoWuJH.s:2415   .debug_str:0000000000000532 .LASF95
     /tmp/cctoWuJH.s:2327   .debug_str:0000000000000243 .LASF97
     /tmp/cctoWuJH.s:2349   .debug_str:00000000000002e3 .LASF96
GAS LISTING /tmp/cctoWuJH.s 			page 22


     /tmp/cctoWuJH.s:2331   .debug_str:0000000000000269 .LASF98
     /tmp/cctoWuJH.s:2287   .debug_str:000000000000006c .LASF99
     /tmp/cctoWuJH.s:2463   .debug_str:00000000000006a8 .LASF100
     /tmp/cctoWuJH.s:2449   .debug_str:0000000000000640 .LASF101
     /tmp/cctoWuJH.s:2329   .debug_str:0000000000000251 .LASF102
     /tmp/cctoWuJH.s:2483   .debug_str:0000000000000753 .LASF103
     /tmp/cctoWuJH.s:2487   .debug_str:000000000000076f .LASF104
     /tmp/cctoWuJH.s:2439   .debug_str:00000000000005e6 .LASF105
     /tmp/cctoWuJH.s:2395   .debug_str:0000000000000469 .LASF106
     /tmp/cctoWuJH.s:2417   .debug_str:0000000000000557 .LASF107
     /tmp/cctoWuJH.s:2275   .debug_str:0000000000000009 .LASF108
     /tmp/cctoWuJH.s:2387   .debug_str:0000000000000418 .LASF109
     /tmp/cctoWuJH.s:366    .text:000000000000021c .LVL32
     /tmp/cctoWuJH.s:372    .text:0000000000000220 .LVL33
     /tmp/cctoWuJH.s:218    .text:0000000000000140 .LVL16
     /tmp/cctoWuJH.s:228    .text:0000000000000154 .LVL17
     /tmp/cctoWuJH.s:239    .text:0000000000000164 .LVL19
     /tmp/cctoWuJH.s:246    .text:0000000000000168 .LVL20
     /tmp/cctoWuJH.s:253    .text:0000000000000174 .LVL21
     /tmp/cctoWuJH.s:259    .text:0000000000000178 .LVL22
     /tmp/cctoWuJH.s:266    .text:0000000000000184 .LVL23
     /tmp/cctoWuJH.s:272    .text:0000000000000188 .LVL24
     /tmp/cctoWuJH.s:290    .text:00000000000001ac .LVL26
     /tmp/cctoWuJH.s:70     .text:0000000000000038 .LVL2
     /tmp/cctoWuJH.s:424    .debug_info:0000000000000000 .Ldebug_info0

UNDEFINED SYMBOLS
_Z11printStringPKc
_Z4getcv
_Z18Threads_C_API_testv
_Z20Threads_CPP_API_testv
_Z22producerConsumer_C_APIv
_Z29producerConsumer_CPP_Sync_APIv
_Z15thread_dispatchv
_ZN7_thread7runningE
_ZN5Riscv16interruptRoutineEv
_Z13thread_createPP7_threadPFvPvES2_
