GAS LISTING /tmp/ccxwQD06.s 			page 1


   1              		.file	"main.cpp"
   2              		.option nopic
   3              		.option norelax
   4              		.attribute arch, "rv64i2p0_m2p0_a2p0"
   5              		.attribute unaligned_access, 0
   6              		.attribute stack_align, 16
   7              		.text
   8              	.Ltext0:
   9              		.section	.rodata.str1.8,"aMS",@progbits,1
  10              		.align	3
  11              	.LC0:
  12 0000 556E6573 		.string	"Unesite broj testa? [1-7]\n"
  12      69746520 
  12      62726F6A 
  12      20746573 
  12      74613F20 
  13 001b 00000000 		.align	3
  13      00
  14              	.LC1:
  15 0020 4E696A65 		.string	"Nije navedeno da je zadatak 3 implementiran\n"
  15      206E6176 
  15      6564656E 
  15      6F206461 
  15      206A6520 
  16 004d 000000   		.align	3
  17              	.LC2:
  18 0050 4E696A65 		.string	"Nije navedeno da je zadatak 4 implementiran\n"
  18      206E6176 
  18      6564656E 
  18      6F206461 
  18      206A6520 
  19 007d 000000   		.align	3
  20              	.LC3:
  21 0080 54455354 		.string	"TEST 1 (zadatak 2, niti C API i sinhrona promena konteksta)\n"
  21      20312028 
  21      7A616461 
  21      74616B20 
  21      322C206E 
  22 00bd 000000   		.align	3
  23              	.LC4:
  24 00c0 54455354 		.string	"TEST 2 (zadatak 2., niti CPP API i sinhrona promena konteksta)\n"
  24      20322028 
  24      7A616461 
  24      74616B20 
  24      322E2C20 
  25              		.align	3
  26              	.LC5:
  27 0100 54657374 		.string	"Test se nije uspesno zavrsio\n"
  27      20736520 
  27      6E696A65 
  27      20757370 
  27      65736E6F 
  28 011e 0000     		.align	3
  29              	.LC6:
  30 0120 54455354 		.string	"TEST 7 (zadatak 2., testiranje da li se korisnicki kod izvrsava u korisnickom rezimu)\n"
  30      20372028 
  30      7A616461 
GAS LISTING /tmp/ccxwQD06.s 			page 2


  30      74616B20 
  30      322E2C20 
  31 0177 00       		.align	3
  32              	.LC7:
  33 0178 4E697374 		.string	"Niste uneli odgovarajuci broj za test\n"
  33      6520756E 
  33      656C6920 
  33      6F64676F 
  33      76617261 
  34              		.text
  35              		.align	2
  36              		.globl	_Z8userMainv
  38              	_Z8userMainv:
  39              	.LFB32:
  40              		.file 1 "src/main.cpp"
   1:src/main.cpp  **** #include "../h/riscv.hpp"
   2:src/main.cpp  **** #include "../h/_thread.hpp"
   3:src/main.cpp  **** #include "../h/syscall_c.hpp"
   4:src/main.cpp  **** #include "../test/printing.hpp"
   5:src/main.cpp  **** 
   6:src/main.cpp  **** //#include "../test/userMain.cpp"
   7:src/main.cpp  **** thread_t nitA;
   8:src/main.cpp  **** thread_t nitB;
   9:src/main.cpp  **** thread_t nitC;
  10:src/main.cpp  **** 
  11:src/main.cpp  **** 
  12:src/main.cpp  **** 
  13:src/main.cpp  **** 
  14:src/main.cpp  **** #define LEVEL_1_IMPLEMENTED 1
  15:src/main.cpp  **** #define LEVEL_2_IMPLEMENTED 1
  16:src/main.cpp  **** #define LEVEL_3_IMPLEMENTED 0
  17:src/main.cpp  **** #define LEVEL_4_IMPLEMENTED 0
  18:src/main.cpp  **** 
  19:src/main.cpp  **** #if LEVEL_2_IMPLEMENTED == 1
  20:src/main.cpp  **** // TEST 1 (zadatak 2, niti C API i sinhrona promena konteksta)
  21:src/main.cpp  **** #include "../test/Threads_C_API_test.hpp"
  22:src/main.cpp  **** // TEST 2 (zadatak 2., niti CPP API i sinhrona promena konteksta)
  23:src/main.cpp  **** #include "../test/Threads_CPP_API_test.hpp"
  24:src/main.cpp  **** // TEST 7 (zadatak 2., testiranje da li se korisnicki kod izvrsava u korisnickom rezimu)
  25:src/main.cpp  **** //#include "../test/System_Mode_test.hpp"
  26:src/main.cpp  **** #endif
  27:src/main.cpp  **** 
  28:src/main.cpp  **** #if LEVEL_3_IMPLEMENTED == 1
  29:src/main.cpp  **** // TEST 3 (zadatak 3., kompletan C API sa semaforima, sinhrona promena konteksta)
  30:src/main.cpp  **** #include "../test/ConsumerProducer_C_API_test.hpp"
  31:src/main.cpp  **** // TEST 4 (zadatak 3., kompletan CPP API sa semaforima, sinhrona promena konteksta)
  32:src/main.cpp  **** #include "../test/ConsumerProducer_CPP_Sync_API_test.hpp"
  33:src/main.cpp  **** #endif
  34:src/main.cpp  **** 
  35:src/main.cpp  **** #if LEVEL_4_IMPLEMENTED == 1
  36:src/main.cpp  **** // TEST 5 (zadatak 4., thread_sleep test C API)
  37:src/main.cpp  **** #include "../test/ThreadSleep_C_API_test.hpp"
  38:src/main.cpp  **** // TEST 6 (zadatak 4. CPP API i asinhrona promena konteksta)
  39:src/main.cpp  **** #include "../test/ConsumerProducer_CPP_API_test.hpp"
  40:src/main.cpp  **** #include "System_Mode_test.hpp"
  41:src/main.cpp  **** 
  42:src/main.cpp  **** #endif
GAS LISTING /tmp/ccxwQD06.s 			page 3


  43:src/main.cpp  **** 
  44:src/main.cpp  **** void userMain() {
  41              		.loc 1 44 17
  42              		.cfi_startproc
  43 0000 130101FE 		addi	sp,sp,-32
  44              		.cfi_def_cfa_offset 32
  45 0004 233C1100 		sd	ra,24(sp)
  46 0008 23388100 		sd	s0,16(sp)
  47 000c 23349100 		sd	s1,8(sp)
  48 0010 23302101 		sd	s2,0(sp)
  49              		.cfi_offset 1, -8
  50              		.cfi_offset 8, -16
  51              		.cfi_offset 9, -24
  52              		.cfi_offset 18, -32
  53 0014 13040102 		addi	s0,sp,32
  54              		.cfi_def_cfa 8, 0
  45:src/main.cpp  ****     printString("Unesite broj testa? [1-7]\n");
  55              		.loc 1 45 5
  56              		.loc 1 45 16 is_stmt 0
  57 0018 17050000 		lla	a0,.LC0
  57      13050500 
  58 0020 97000000 		call	_Z11printStringPKc
  58      E7800000 
  59              	.LVL0:
  46:src/main.cpp  ****     int test = getc() - '0';
  60              		.loc 1 46 5 is_stmt 1
  61              		.loc 1 46 20 is_stmt 0
  62 0028 97000000 		call	_Z4getcv
  62      E7800000 
  63              	.LVL1:
  64 0030 1B090500 		sext.w	s2,a0
  65              		.loc 1 46 25
  66 0034 9B0405FD 		addiw	s1,a0,-48
  67              	.LVL2:
  47:src/main.cpp  ****     getc(); // Enter posle broja
  68              		.loc 1 47 5 is_stmt 1
  69              		.loc 1 47 9 is_stmt 0
  70 0038 97000000 		call	_Z4getcv
  70      E7800000 
  71              	.LVL3:
  48:src/main.cpp  **** 
  49:src/main.cpp  ****     if ((test >= 1 && test <= 2) || test == 7) {
  72              		.loc 1 49 5 is_stmt 1
  50:src/main.cpp  ****         if (LEVEL_2_IMPLEMENTED == 0) {
  51:src/main.cpp  ****             printString("Nije navedeno da je zadatak 2 implementiran\n");
  52:src/main.cpp  ****             return;
  53:src/main.cpp  ****         }
  54:src/main.cpp  ****     }
  55:src/main.cpp  **** 
  56:src/main.cpp  ****     if (test >= 3 && test <= 4) {
  73              		.loc 1 56 5
  74              		.loc 1 56 19 is_stmt 0
  75 0040 1B07D9FC 		addiw	a4,s2,-51
  76              		.loc 1 56 5
  77 0044 93071000 		li	a5,1
  78 0048 63F6E704 		bleu	a4,a5,.L11
  57:src/main.cpp  ****         if (LEVEL_3_IMPLEMENTED == 0) {
GAS LISTING /tmp/ccxwQD06.s 			page 4


  58:src/main.cpp  ****             printString("Nije navedeno da je zadatak 3 implementiran\n");
  59:src/main.cpp  ****             return;
  60:src/main.cpp  ****         }
  61:src/main.cpp  ****     }
  62:src/main.cpp  **** 
  63:src/main.cpp  ****     if (test >= 5 && test <= 6) {
  79              		.loc 1 63 5 is_stmt 1
  80              		.loc 1 63 19 is_stmt 0
  81 004c 1B09B9FC 		addiw	s2,s2,-53
  82              	.LVL4:
  83              		.loc 1 63 5
  84 0050 93071000 		li	a5,1
  85 0054 63F42707 		bleu	s2,a5,.L12
  64:src/main.cpp  ****         if (LEVEL_4_IMPLEMENTED == 0) {
  65:src/main.cpp  ****             printString("Nije navedeno da je zadatak 4 implementiran\n");
  66:src/main.cpp  ****             return;
  67:src/main.cpp  ****         }
  68:src/main.cpp  ****     }
  69:src/main.cpp  **** 
  70:src/main.cpp  ****     switch (test) {
  86              		.loc 1 70 5 is_stmt 1
  87 0058 93076000 		li	a5,6
  88 005c 63CA9706 		bgt	s1,a5,.L5
  89 0060 93073000 		li	a5,3
  90 0064 63D0F404 		bge	s1,a5,.L1
  91 0068 93071000 		li	a5,1
  92 006c 6388F408 		beq	s1,a5,.L6
  93 0070 93072000 		li	a5,2
  94 0074 6392F40A 		bne	s1,a5,.L8
  71:src/main.cpp  ****         case 1:
  72:src/main.cpp  **** #if LEVEL_2_IMPLEMENTED == 1
  73:src/main.cpp  ****             Threads_C_API_test();
  74:src/main.cpp  ****             printString("TEST 1 (zadatak 2, niti C API i sinhrona promena konteksta)\n");
  75:src/main.cpp  **** #endif
  76:src/main.cpp  ****             break;
  77:src/main.cpp  ****         case 2:
  95              		.loc 1 77 9
  78:src/main.cpp  **** #if LEVEL_2_IMPLEMENTED == 1
  79:src/main.cpp  ****             Threads_CPP_API_test();
  96              		.loc 1 79 13
  97              		.loc 1 79 33 is_stmt 0
  98 0078 97000000 		call	_Z20Threads_CPP_API_testv
  98      E7800000 
  99              	.LVL5:
  80:src/main.cpp  ****             printString("TEST 2 (zadatak 2., niti CPP API i sinhrona promena konteksta)\n");
 100              		.loc 1 80 13 is_stmt 1
 101              		.loc 1 80 24 is_stmt 0
 102 0080 17050000 		lla	a0,.LC4
 102      13050500 
 103 0088 97000000 		call	_Z11printStringPKc
 103      E7800000 
 104              	.LVL6:
  81:src/main.cpp  **** #endif
  82:src/main.cpp  ****             break;
 105              		.loc 1 82 13 is_stmt 1
 106 0090 6F004001 		j	.L1
 107              	.LVL7:
GAS LISTING /tmp/ccxwQD06.s 			page 5


 108              	.L11:
  57:src/main.cpp  ****             printString("Nije navedeno da je zadatak 3 implementiran\n");
 109              		.loc 1 57 9
  58:src/main.cpp  ****             return;
 110              		.loc 1 58 13
  58:src/main.cpp  ****             return;
 111              		.loc 1 58 24 is_stmt 0
 112 0094 17050000 		lla	a0,.LC1
 112      13050500 
 113 009c 97000000 		call	_Z11printStringPKc
 113      E7800000 
 114              	.LVL8:
  59:src/main.cpp  ****         }
 115              		.loc 1 59 13 is_stmt 1
 116              	.L1:
  83:src/main.cpp  ****         case 3:
  84:src/main.cpp  **** #if LEVEL_3_IMPLEMENTED == 1
  85:src/main.cpp  ****             producerConsumer_C_API();
  86:src/main.cpp  ****             printString("TEST 3 (zadatak 3., kompletan C API sa semaforima, sinhrona promena kontek
  87:src/main.cpp  **** #endif
  88:src/main.cpp  ****             break;
  89:src/main.cpp  ****         case 4:
  90:src/main.cpp  **** #if LEVEL_3_IMPLEMENTED == 1
  91:src/main.cpp  ****             producerConsumer_CPP_Sync_API();
  92:src/main.cpp  ****             printString("TEST 4 (zadatak 3., kompletan CPP API sa semaforima, sinhrona promena kont
  93:src/main.cpp  **** #endif
  94:src/main.cpp  ****             break;
  95:src/main.cpp  ****         case 5:
  96:src/main.cpp  **** #if LEVEL_4_IMPLEMENTED == 1
  97:src/main.cpp  ****             testSleeping();
  98:src/main.cpp  ****             printString("TEST 5 (zadatak 4., thread_sleep test C API)\n");
  99:src/main.cpp  **** #endif
 100:src/main.cpp  ****             break;
 101:src/main.cpp  ****         case 6:
 102:src/main.cpp  **** #if LEVEL_4_IMPLEMENTED == 1
 103:src/main.cpp  ****             testConsumerProducer();
 104:src/main.cpp  ****             printString("TEST 6 (zadatak 4. CPP API i asinhrona promena konteksta)\n");
 105:src/main.cpp  **** #endif
 106:src/main.cpp  ****             break;
 107:src/main.cpp  ****         case 7:
 108:src/main.cpp  **** #if LEVEL_2_IMPLEMENTED == 1
 109:src/main.cpp  ****             //System_Mode_test();
 110:src/main.cpp  ****             printString("Test se nije uspesno zavrsio\n");
 111:src/main.cpp  ****             printString("TEST 7 (zadatak 2., testiranje da li se korisnicki kod izvrsava u korisnic
 112:src/main.cpp  **** #endif
 113:src/main.cpp  ****             break;
 114:src/main.cpp  ****         default:
 115:src/main.cpp  ****             printString("Niste uneli odgovarajuci broj za test\n");
 116:src/main.cpp  ****     }
 117:src/main.cpp  **** }
 117              		.loc 1 117 1 is_stmt 0
 118 00a4 83308101 		ld	ra,24(sp)
 119              		.cfi_remember_state
 120              		.cfi_restore 1
 121 00a8 03340101 		ld	s0,16(sp)
 122              		.cfi_restore 8
 123              		.cfi_def_cfa 2, 32
GAS LISTING /tmp/ccxwQD06.s 			page 6


 124 00ac 83348100 		ld	s1,8(sp)
 125              		.cfi_restore 9
 126 00b0 03390100 		ld	s2,0(sp)
 127              		.cfi_restore 18
 128 00b4 13010102 		addi	sp,sp,32
 129              		.cfi_def_cfa_offset 0
 130 00b8 67800000 		jr	ra
 131              	.L12:
 132              		.cfi_restore_state
  64:src/main.cpp  ****             printString("Nije navedeno da je zadatak 4 implementiran\n");
 133              		.loc 1 64 9 is_stmt 1
  65:src/main.cpp  ****             return;
 134              		.loc 1 65 13
  65:src/main.cpp  ****             return;
 135              		.loc 1 65 24 is_stmt 0
 136 00bc 17050000 		lla	a0,.LC2
 136      13050500 
 137 00c4 97000000 		call	_Z11printStringPKc
 137      E7800000 
 138              	.LVL9:
  66:src/main.cpp  ****         }
 139              		.loc 1 66 13 is_stmt 1
 140 00cc 6FF09FFD 		j	.L1
 141              	.L5:
  70:src/main.cpp  ****         case 1:
 142              		.loc 1 70 5 is_stmt 0
 143 00d0 93077000 		li	a5,7
 144 00d4 6392F404 		bne	s1,a5,.L8
 107:src/main.cpp  **** #if LEVEL_2_IMPLEMENTED == 1
 145              		.loc 1 107 9 is_stmt 1
 110:src/main.cpp  ****             printString("TEST 7 (zadatak 2., testiranje da li se korisnicki kod izvrsava u korisnic
 146              		.loc 1 110 13
 110:src/main.cpp  ****             printString("TEST 7 (zadatak 2., testiranje da li se korisnicki kod izvrsava u korisnic
 147              		.loc 1 110 24 is_stmt 0
 148 00d8 17050000 		lla	a0,.LC5
 148      13050500 
 149 00e0 97000000 		call	_Z11printStringPKc
 149      E7800000 
 150              	.LVL10:
 111:src/main.cpp  **** #endif
 151              		.loc 1 111 13 is_stmt 1
 111:src/main.cpp  **** #endif
 152              		.loc 1 111 24 is_stmt 0
 153 00e8 17050000 		lla	a0,.LC6
 153      13050500 
 154 00f0 97000000 		call	_Z11printStringPKc
 154      E7800000 
 155              	.LVL11:
 113:src/main.cpp  ****         default:
 156              		.loc 1 113 13 is_stmt 1
 157 00f8 6FF0DFFA 		j	.L1
 158              	.L6:
  71:src/main.cpp  **** #if LEVEL_2_IMPLEMENTED == 1
 159              		.loc 1 71 9
  73:src/main.cpp  ****             printString("TEST 1 (zadatak 2, niti C API i sinhrona promena konteksta)\n");
 160              		.loc 1 73 13
  73:src/main.cpp  ****             printString("TEST 1 (zadatak 2, niti C API i sinhrona promena konteksta)\n");
GAS LISTING /tmp/ccxwQD06.s 			page 7


 161              		.loc 1 73 31 is_stmt 0
 162 00fc 97000000 		call	_Z18Threads_C_API_testv
 162      E7800000 
 163              	.LVL12:
  74:src/main.cpp  **** #endif
 164              		.loc 1 74 13 is_stmt 1
  74:src/main.cpp  **** #endif
 165              		.loc 1 74 24 is_stmt 0
 166 0104 17050000 		lla	a0,.LC3
 166      13050500 
 167 010c 97000000 		call	_Z11printStringPKc
 167      E7800000 
 168              	.LVL13:
  76:src/main.cpp  ****         case 2:
 169              		.loc 1 76 13 is_stmt 1
 170 0114 6FF01FF9 		j	.L1
 171              	.L8:
 114:src/main.cpp  ****             printString("Niste uneli odgovarajuci broj za test\n");
 172              		.loc 1 114 9
 115:src/main.cpp  ****     }
 173              		.loc 1 115 13
 115:src/main.cpp  ****     }
 174              		.loc 1 115 24 is_stmt 0
 175 0118 17050000 		lla	a0,.LC7
 175      13050500 
 176 0120 97000000 		call	_Z11printStringPKc
 176      E7800000 
 177              	.LVL14:
 178 0128 6FF0DFF7 		j	.L1
 179              		.cfi_endproc
 180              	.LFE32:
 182              		.section	.rodata.str1.8
 183 019f 00       		.align	3
 184              	.LC8:
 185 01a0 410A00   		.string	"A\n"
 186 01a3 00000000 		.align	3
 186      00
 187              	.LC9:
 188 01a8 0A00     		.string	"\n"
 189              		.text
 190              		.align	2
 191              		.globl	_Z2faPv
 193              	_Z2faPv:
 194              	.LFB33:
 118:src/main.cpp  **** 
 119:src/main.cpp  **** void fa(void*){
 195              		.loc 1 119 15 is_stmt 1
 196              		.cfi_startproc
 197 012c 130101FE 		addi	sp,sp,-32
 198              		.cfi_def_cfa_offset 32
 199 0130 233C1100 		sd	ra,24(sp)
 200 0134 23388100 		sd	s0,16(sp)
 201 0138 23349100 		sd	s1,8(sp)
 202              		.cfi_offset 1, -8
 203              		.cfi_offset 8, -16
 204              		.cfi_offset 9, -24
 205 013c 13040102 		addi	s0,sp,32
GAS LISTING /tmp/ccxwQD06.s 			page 8


 206              		.cfi_def_cfa 8, 0
 120:src/main.cpp  ****     //running je nitA
 121:src/main.cpp  ****     //threadJoin(nitB);
 122:src/main.cpp  ****     for(int i=0;i<10;i++){
 207              		.loc 1 122 5
 208              	.LVL15:
 209              	.LBB23:
 210              		.loc 1 122 13 is_stmt 0
 211 0140 93040000 		li	s1,0
 212              	.LVL16:
 213              	.L15:
 214              		.loc 1 122 18 is_stmt 1 discriminator 3
 215 0144 93079000 		li	a5,9
 216 0148 63CE9700 		bgt	s1,a5,.L14
 123:src/main.cpp  ****         printString("A\n");
 217              		.loc 1 123 9 discriminator 2
 218              		.loc 1 123 20 is_stmt 0 discriminator 2
 219 014c 17050000 		lla	a0,.LC8
 219      13050500 
 220 0154 97000000 		call	_Z11printStringPKc
 220      E7800000 
 221              	.LVL17:
 122:src/main.cpp  ****         printString("A\n");
 222              		.loc 1 122 5 is_stmt 1 discriminator 2
 223 015c 9B841400 		addiw	s1,s1,1
 224              	.LVL18:
 225 0160 6FF05FFE 		j	.L15
 226              	.LVL19:
 227              	.L14:
 228              	.LBE23:
 124:src/main.cpp  **** 
 125:src/main.cpp  ****     }
 126:src/main.cpp  ****     printString("\n");
 229              		.loc 1 126 5
 230              		.loc 1 126 16 is_stmt 0
 231 0164 17050000 		lla	a0,.LC9
 231      13050500 
 232 016c 97000000 		call	_Z11printStringPKc
 232      E7800000 
 233              	.LVL20:
 127:src/main.cpp  ****     _thread::running->setFinished(true);
 234              		.loc 1 127 5 is_stmt 1
 235              	.LBB24:
 236              	.LBB25:
 237              		.file 2 "src/../h/_thread.hpp"
   1:src/../h/_thread.hpp **** //
   2:src/../h/_thread.hpp **** // Created by basara on 19.6.24..
   3:src/../h/_thread.hpp **** //
   4:src/../h/_thread.hpp **** 
   5:src/../h/_thread.hpp **** #ifndef PROJECT_BASE_HPP
   6:src/../h/_thread.hpp **** #define PROJECT_BASE_HPP
   7:src/../h/_thread.hpp **** 
   8:src/../h/_thread.hpp **** #include "../lib/hw.h"
   9:src/../h/_thread.hpp **** #include "scheduler.hpp"
  10:src/../h/_thread.hpp **** 
  11:src/../h/_thread.hpp **** typedef _thread* thread_t;
  12:src/../h/_thread.hpp **** class _thread{
GAS LISTING /tmp/ccxwQD06.s 			page 9


  13:src/../h/_thread.hpp **** public:
  14:src/../h/_thread.hpp ****     static _thread *running;
  15:src/../h/_thread.hpp **** 
  16:src/../h/_thread.hpp ****     ~_thread() {delete[] stack;}
  17:src/../h/_thread.hpp **** 
  18:src/../h/_thread.hpp ****     bool isFinished() const { return finished; }
  19:src/../h/_thread.hpp **** 
  20:src/../h/_thread.hpp ****     void setFinished(bool fin) { _thread::finished = fin; }
 238              		.loc 2 20 34
 239              		.loc 2 20 52 is_stmt 0
 240 0174 97070000 		ld	a5,_ZN7_thread7runningE
 240      83B70700 
 241 017c 13071000 		li	a4,1
 242 0180 2384E702 		sb	a4,40(a5)
 243              	.LVL21:
 244              	.LBE25:
 245              	.LBE24:
 128:src/main.cpp  ****     thread_dispatch();
 246              		.loc 1 128 5 is_stmt 1
 247              		.loc 1 128 20 is_stmt 0
 248 0184 97000000 		call	_Z15thread_dispatchv
 248      E7800000 
 249              	.LVL22:
 129:src/main.cpp  **** }
 250              		.loc 1 129 1
 251 018c 83308101 		ld	ra,24(sp)
 252              		.cfi_restore 1
 253 0190 03340101 		ld	s0,16(sp)
 254              		.cfi_restore 8
 255              		.cfi_def_cfa 2, 32
 256 0194 83348100 		ld	s1,8(sp)
 257              		.cfi_restore 9
 258              	.LVL23:
 259 0198 13010102 		addi	sp,sp,32
 260              		.cfi_def_cfa_offset 0
 261 019c 67800000 		jr	ra
 262              		.cfi_endproc
 263              	.LFE33:
 265              		.section	.rodata.str1.8
 266 01aa 00000000 		.align	3
 266      0000
 267              	.LC10:
 268 01b0 420A00   		.string	"B\n"
 269              		.text
 270              		.align	2
 271              		.globl	_Z2fbPv
 273              	_Z2fbPv:
 274              	.LFB34:
 130:src/main.cpp  **** 
 131:src/main.cpp  **** void fb(void*){
 275              		.loc 1 131 15 is_stmt 1
 276              		.cfi_startproc
 277 01a0 130101FE 		addi	sp,sp,-32
 278              		.cfi_def_cfa_offset 32
 279 01a4 233C1100 		sd	ra,24(sp)
 280 01a8 23388100 		sd	s0,16(sp)
 281 01ac 23349100 		sd	s1,8(sp)
GAS LISTING /tmp/ccxwQD06.s 			page 10


 282              		.cfi_offset 1, -8
 283              		.cfi_offset 8, -16
 284              		.cfi_offset 9, -24
 285 01b0 13040102 		addi	s0,sp,32
 286              		.cfi_def_cfa 8, 0
 132:src/main.cpp  ****     //threadJoin(nitC);
 133:src/main.cpp  ****     for(int i=0;i<10;i++){
 287              		.loc 1 133 5
 288              	.LVL24:
 289              	.LBB26:
 290              		.loc 1 133 13 is_stmt 0
 291 01b4 93040000 		li	s1,0
 292              	.LVL25:
 293              	.L19:
 294              		.loc 1 133 18 is_stmt 1 discriminator 3
 295 01b8 93079000 		li	a5,9
 296 01bc 63CE9700 		bgt	s1,a5,.L18
 134:src/main.cpp  ****         printString("B\n");
 297              		.loc 1 134 9 discriminator 2
 298              		.loc 1 134 20 is_stmt 0 discriminator 2
 299 01c0 17050000 		lla	a0,.LC10
 299      13050500 
 300 01c8 97000000 		call	_Z11printStringPKc
 300      E7800000 
 301              	.LVL26:
 133:src/main.cpp  ****         printString("B\n");
 302              		.loc 1 133 5 is_stmt 1 discriminator 2
 303 01d0 9B841400 		addiw	s1,s1,1
 304              	.LVL27:
 305 01d4 6FF05FFE 		j	.L19
 306              	.LVL28:
 307              	.L18:
 308              	.LBE26:
 135:src/main.cpp  **** 
 136:src/main.cpp  ****     }
 137:src/main.cpp  ****     printString("\n");
 309              		.loc 1 137 5
 310              		.loc 1 137 16 is_stmt 0
 311 01d8 17050000 		lla	a0,.LC9
 311      13050500 
 312 01e0 97000000 		call	_Z11printStringPKc
 312      E7800000 
 313              	.LVL29:
 138:src/main.cpp  ****     _thread::running->setFinished(true);
 314              		.loc 1 138 5 is_stmt 1
 315              	.LBB27:
 316              	.LBB28:
 317              		.loc 2 20 34
 318              		.loc 2 20 52 is_stmt 0
 319 01e8 97070000 		ld	a5,_ZN7_thread7runningE
 319      83B70700 
 320 01f0 13071000 		li	a4,1
 321 01f4 2384E702 		sb	a4,40(a5)
 322              	.LVL30:
 323              	.LBE28:
 324              	.LBE27:
 139:src/main.cpp  ****     thread_dispatch();
GAS LISTING /tmp/ccxwQD06.s 			page 11


 325              		.loc 1 139 5 is_stmt 1
 326              		.loc 1 139 20 is_stmt 0
 327 01f8 97000000 		call	_Z15thread_dispatchv
 327      E7800000 
 328              	.LVL31:
 140:src/main.cpp  **** }
 329              		.loc 1 140 1
 330 0200 83308101 		ld	ra,24(sp)
 331              		.cfi_restore 1
 332 0204 03340101 		ld	s0,16(sp)
 333              		.cfi_restore 8
 334              		.cfi_def_cfa 2, 32
 335 0208 83348100 		ld	s1,8(sp)
 336              		.cfi_restore 9
 337              	.LVL32:
 338 020c 13010102 		addi	sp,sp,32
 339              		.cfi_def_cfa_offset 0
 340 0210 67800000 		jr	ra
 341              		.cfi_endproc
 342              	.LFE34:
 344              		.section	.rodata.str1.8
 345 01b3 00000000 		.align	3
 345      00
 346              	.LC11:
 347 01b8 430A00   		.string	"C\n"
 348              		.text
 349              		.align	2
 350              		.globl	_Z2fcPv
 352              	_Z2fcPv:
 353              	.LFB35:
 141:src/main.cpp  **** 
 142:src/main.cpp  **** void fc(void*){
 354              		.loc 1 142 15 is_stmt 1
 355              		.cfi_startproc
 356 0214 130101FE 		addi	sp,sp,-32
 357              		.cfi_def_cfa_offset 32
 358 0218 233C1100 		sd	ra,24(sp)
 359 021c 23388100 		sd	s0,16(sp)
 360 0220 23349100 		sd	s1,8(sp)
 361              		.cfi_offset 1, -8
 362              		.cfi_offset 8, -16
 363              		.cfi_offset 9, -24
 364 0224 13040102 		addi	s0,sp,32
 365              		.cfi_def_cfa 8, 0
 143:src/main.cpp  ****     for(int i=0;i<10;i++){
 366              		.loc 1 143 5
 367              	.LVL33:
 368              	.LBB29:
 369              		.loc 1 143 13 is_stmt 0
 370 0228 93040000 		li	s1,0
 371              	.LVL34:
 372              	.L23:
 373              		.loc 1 143 18 is_stmt 1 discriminator 3
 374 022c 93079000 		li	a5,9
 375 0230 63CE9700 		bgt	s1,a5,.L22
 144:src/main.cpp  ****         printString("C\n");
 376              		.loc 1 144 9 discriminator 2
GAS LISTING /tmp/ccxwQD06.s 			page 12


 377              		.loc 1 144 20 is_stmt 0 discriminator 2
 378 0234 17050000 		lla	a0,.LC11
 378      13050500 
 379 023c 97000000 		call	_Z11printStringPKc
 379      E7800000 
 380              	.LVL35:
 143:src/main.cpp  ****     for(int i=0;i<10;i++){
 381              		.loc 1 143 5 is_stmt 1 discriminator 2
 382 0244 9B841400 		addiw	s1,s1,1
 383              	.LVL36:
 384 0248 6FF05FFE 		j	.L23
 385              	.LVL37:
 386              	.L22:
 387              	.LBE29:
 145:src/main.cpp  **** 
 146:src/main.cpp  ****     }
 147:src/main.cpp  ****     printString("\n");
 388              		.loc 1 147 5
 389              		.loc 1 147 16 is_stmt 0
 390 024c 17050000 		lla	a0,.LC9
 390      13050500 
 391 0254 97000000 		call	_Z11printStringPKc
 391      E7800000 
 392              	.LVL38:
 148:src/main.cpp  **** 
 149:src/main.cpp  ****     _thread::running->setFinished(true);
 393              		.loc 1 149 5 is_stmt 1
 394              	.LBB30:
 395              	.LBB31:
 396              		.loc 2 20 34
 397              		.loc 2 20 52 is_stmt 0
 398 025c 97070000 		ld	a5,_ZN7_thread7runningE
 398      83B70700 
 399 0264 13071000 		li	a4,1
 400 0268 2384E702 		sb	a4,40(a5)
 401              	.LVL39:
 402              	.LBE31:
 403              	.LBE30:
 150:src/main.cpp  ****     thread_dispatch();
 404              		.loc 1 150 5 is_stmt 1
 405              		.loc 1 150 20 is_stmt 0
 406 026c 97000000 		call	_Z15thread_dispatchv
 406      E7800000 
 407              	.LVL40:
 151:src/main.cpp  **** }
 408              		.loc 1 151 1
 409 0274 83308101 		ld	ra,24(sp)
 410              		.cfi_restore 1
 411 0278 03340101 		ld	s0,16(sp)
 412              		.cfi_restore 8
 413              		.cfi_def_cfa 2, 32
 414 027c 83348100 		ld	s1,8(sp)
 415              		.cfi_restore 9
 416              	.LVL41:
 417 0280 13010102 		addi	sp,sp,32
 418              		.cfi_def_cfa_offset 0
 419 0284 67800000 		jr	ra
GAS LISTING /tmp/ccxwQD06.s 			page 13


 420              		.cfi_endproc
 421              	.LFE35:
 423              		.section	.rodata.str1.8
 424 01bb 00000000 		.align	3
 424      00
 425              	.LC12:
 426 01c0 5A415652 		.string	"ZAVRSENA JE WRAPPER FJA\n"
 426      53454E41 
 426      204A4520 
 426      57524150 
 426      50455220 
 427              		.text
 428              		.align	2
 429              		.globl	_Z7wrapperPv
 431              	_Z7wrapperPv:
 432              	.LFB36:
 152:src/main.cpp  **** 
 153:src/main.cpp  **** 
 154:src/main.cpp  **** 
 155:src/main.cpp  **** void wrapper(void* arg){
 433              		.loc 1 155 24 is_stmt 1
 434              		.cfi_startproc
 435              	.LVL42:
 436 0288 130101FF 		addi	sp,sp,-16
 437              		.cfi_def_cfa_offset 16
 438 028c 23341100 		sd	ra,8(sp)
 439 0290 23308100 		sd	s0,0(sp)
 440              		.cfi_offset 1, -8
 441              		.cfi_offset 8, -16
 442 0294 13040101 		addi	s0,sp,16
 443              		.cfi_def_cfa 8, 0
 156:src/main.cpp  ****     thread_create(&nitA, fa, nullptr);
 444              		.loc 1 156 5
 445              		.loc 1 156 18 is_stmt 0
 446 0298 13060000 		li	a2,0
 447 029c 97050000 		lla	a1,_Z2faPv
 447      93850500 
 448 02a4 17050000 		lla	a0,nitA
 448      13050500 
 449              	.LVL43:
 450 02ac 97000000 		call	_Z13thread_createPP7_threadPFvPvES2_
 450      E7800000 
 451              	.LVL44:
 157:src/main.cpp  ****     thread_create(&nitB, fb, nullptr);
 452              		.loc 1 157 5 is_stmt 1
 453              		.loc 1 157 18 is_stmt 0
 454 02b4 13060000 		li	a2,0
 455 02b8 97050000 		lla	a1,_Z2fbPv
 455      93850500 
 456 02c0 17050000 		lla	a0,nitB
 456      13050500 
 457 02c8 97000000 		call	_Z13thread_createPP7_threadPFvPvES2_
 457      E7800000 
 458              	.LVL45:
 158:src/main.cpp  ****     thread_create(&nitC, fc, nullptr);
 459              		.loc 1 158 5 is_stmt 1
 460              		.loc 1 158 18 is_stmt 0
GAS LISTING /tmp/ccxwQD06.s 			page 14


 461 02d0 13060000 		li	a2,0
 462 02d4 97050000 		lla	a1,_Z2fcPv
 462      93850500 
 463 02dc 17050000 		lla	a0,nitC
 463      13050500 
 464 02e4 97000000 		call	_Z13thread_createPP7_threadPFvPvES2_
 464      E7800000 
 465              	.LVL46:
 466 02ec 6F00C000 		j	.L28
 467              	.L26:
 159:src/main.cpp  **** 
 160:src/main.cpp  ****     while(!nitA->isFinished() || !nitB->isFinished() || !nitC->isFinished()){
 161:src/main.cpp  ****         thread_dispatch();
 468              		.loc 1 161 9 is_stmt 1 discriminator 5
 469              		.loc 1 161 24 is_stmt 0 discriminator 5
 470 02f0 97000000 		call	_Z15thread_dispatchv
 470      E7800000 
 471              	.LVL47:
 472              	.L28:
 160:src/main.cpp  ****         thread_dispatch();
 473              		.loc 1 160 5 is_stmt 1
 160:src/main.cpp  ****         thread_dispatch();
 474              		.loc 1 160 54
 160:src/main.cpp  ****         thread_dispatch();
 475              		.loc 1 160 28 is_stmt 0
 476 02f8 97070000 		ld	a5,nitA
 476      83B70700 
 477              	.LVL48:
 478              	.LBB32:
 479              	.LBB33:
  18:src/../h/_thread.hpp **** 
 480              		.loc 2 18 31 is_stmt 1
  18:src/../h/_thread.hpp **** 
 481              		.loc 2 18 38 is_stmt 0
 482 0300 83C78702 		lbu	a5,40(a5)
 483              	.LVL49:
 484              	.LBE33:
 485              	.LBE32:
 160:src/main.cpp  ****         thread_dispatch();
 486              		.loc 1 160 54
 487 0304 E38607FE 		beqz	a5,.L26
 160:src/main.cpp  ****         thread_dispatch();
 488              		.loc 1 160 51 discriminator 2
 489 0308 97070000 		ld	a5,nitB
 489      83B70700 
 490              	.LVL50:
 491              	.LBB34:
 492              	.LBB35:
  18:src/../h/_thread.hpp **** 
 493              		.loc 2 18 31 is_stmt 1 discriminator 2
  18:src/../h/_thread.hpp **** 
 494              		.loc 2 18 38 is_stmt 0 discriminator 2
 495 0310 83C78702 		lbu	a5,40(a5)
 496              	.LVL51:
 497              	.LBE35:
 498              	.LBE34:
 160:src/main.cpp  ****         thread_dispatch();
GAS LISTING /tmp/ccxwQD06.s 			page 15


 499              		.loc 1 160 31 discriminator 2
 500 0314 E38E07FC 		beqz	a5,.L26
 160:src/main.cpp  ****         thread_dispatch();
 501              		.loc 1 160 74 discriminator 4
 502 0318 97070000 		ld	a5,nitC
 502      83B70700 
 503              	.LVL52:
 504              	.LBB36:
 505              	.LBB37:
  18:src/../h/_thread.hpp **** 
 506              		.loc 2 18 31 is_stmt 1 discriminator 4
  18:src/../h/_thread.hpp **** 
 507              		.loc 2 18 38 is_stmt 0 discriminator 4
 508 0320 83C78702 		lbu	a5,40(a5)
 509              	.LVL53:
 510              	.LBE37:
 511              	.LBE36:
 160:src/main.cpp  ****         thread_dispatch();
 512              		.loc 1 160 54 discriminator 4
 513 0324 E38607FC 		beqz	a5,.L26
 162:src/main.cpp  ****     }
 163:src/main.cpp  **** 
 164:src/main.cpp  ****     printString("ZAVRSENA JE WRAPPER FJA\n");
 514              		.loc 1 164 5 is_stmt 1
 515              		.loc 1 164 16 is_stmt 0
 516 0328 17050000 		lla	a0,.LC12
 516      13050500 
 517 0330 97000000 		call	_Z11printStringPKc
 517      E7800000 
 518              	.LVL54:
 165:src/main.cpp  ****     _thread::running->setFinished(true);
 519              		.loc 1 165 5 is_stmt 1
 520              	.LBB38:
 521              	.LBB39:
 522              		.loc 2 20 34
 523              		.loc 2 20 52 is_stmt 0
 524 0338 97070000 		ld	a5,_ZN7_thread7runningE
 524      83B70700 
 525 0340 13071000 		li	a4,1
 526 0344 2384E702 		sb	a4,40(a5)
 527              	.LVL55:
 528              	.LBE39:
 529              	.LBE38:
 166:src/main.cpp  ****     thread_dispatch();
 530              		.loc 1 166 5 is_stmt 1
 531              		.loc 1 166 20 is_stmt 0
 532 0348 97000000 		call	_Z15thread_dispatchv
 532      E7800000 
 533              	.LVL56:
 167:src/main.cpp  **** }
 534              		.loc 1 167 1
 535 0350 83308100 		ld	ra,8(sp)
 536              		.cfi_restore 1
 537 0354 03340100 		ld	s0,0(sp)
 538              		.cfi_restore 8
 539              		.cfi_def_cfa 2, 16
 540 0358 13010101 		addi	sp,sp,16
GAS LISTING /tmp/ccxwQD06.s 			page 16


 541              		.cfi_def_cfa_offset 0
 542 035c 67800000 		jr	ra
 543              		.cfi_endproc
 544              	.LFE36:
 546              		.align	2
 547              		.globl	main
 549              	main:
 550              	.LFB37:
 168:src/main.cpp  **** 
 169:src/main.cpp  **** int main()
 170:src/main.cpp  **** {
 551              		.loc 1 170 1 is_stmt 1
 552              		.cfi_startproc
 553 0360 130101FE 		addi	sp,sp,-32
 554              		.cfi_def_cfa_offset 32
 555 0364 233C1100 		sd	ra,24(sp)
 556 0368 23388100 		sd	s0,16(sp)
 557              		.cfi_offset 1, -8
 558              		.cfi_offset 8, -16
 559 036c 13040102 		addi	s0,sp,32
 560              		.cfi_def_cfa 8, 0
 171:src/main.cpp  ****     Riscv::w_stvec((uint64) &Riscv::interruptRoutine);    //upisuje adresu prekidne rutine
 561              		.loc 1 171 5
 562              		.loc 1 171 19 is_stmt 0
 563 0370 97070000 		lla	a5,_ZN5Riscv16interruptRoutineEv
 563      93870700 
 564              	.LVL57:
 565              	.LBB40:
 566              	.LBB41:
 567              		.file 3 "src/../h/riscv.hpp"
   1:src/../h/riscv.hpp **** //
   2:src/../h/riscv.hpp **** // Created by marko on 20.4.22..
   3:src/../h/riscv.hpp **** //
   4:src/../h/riscv.hpp **** 
   5:src/../h/riscv.hpp **** #ifndef OS_PROJEKAT_RISCV_HPP
   6:src/../h/riscv.hpp **** #define OS_PROJEKAT_RISCV_HPP
   7:src/../h/riscv.hpp **** 
   8:src/../h/riscv.hpp **** 
   9:src/../h/riscv.hpp **** #include "../lib/hw.h"
  10:src/../h/riscv.hpp **** 
  11:src/../h/riscv.hpp **** 
  12:src/../h/riscv.hpp **** class Riscv
  13:src/../h/riscv.hpp **** {
  14:src/../h/riscv.hpp **** public:
  15:src/../h/riscv.hpp **** 
  16:src/../h/riscv.hpp ****     // pop status.spp and sstatus.spie bits
  17:src/../h/riscv.hpp ****     static void popSppSpie();
  18:src/../h/riscv.hpp ****     //implementaciju ove metode stavljam u cpp zato sto je vazno da ova staticka metoda
  19:src/../h/riscv.hpp ****     //bude ne inline, da bi se ovaj kod pozvao i da bi se promenio ra registar
  20:src/../h/riscv.hpp ****     //bitno je da znamo odakle se desio poziv
  21:src/../h/riscv.hpp ****     //jedini nacin da promenimo rezim privilegije je sa funkcijama koje se vracaju iz prekidne ruti
  22:src/../h/riscv.hpp ****     //pomocu sret, konekts novonapravljene niti nece ici preko normalne prekidne rutine vec ce ici 
  23:src/../h/riscv.hpp ****     //threadWrapera i u okviru njegove funckije treba izaci iz prekidne rutine
  24:src/../h/riscv.hpp ****     //sret ce se vratiti tamo gde je sepc rekao
  25:src/../h/riscv.hpp **** 
  26:src/../h/riscv.hpp ****     //preko name manlinga uazi se u definiciju koja je napisana u fajlu preko asemblera
  27:src/../h/riscv.hpp ****     static void interruptRoutine();
GAS LISTING /tmp/ccxwQD06.s 			page 17


  28:src/../h/riscv.hpp **** 
  29:src/../h/riscv.hpp ****     // push x3..x31 registers onto stack
  30:src/../h/riscv.hpp ****     static void pushRegisters();
  31:src/../h/riscv.hpp **** 
  32:src/../h/riscv.hpp ****     // pop x3..x31 registers onto stack
  33:src/../h/riscv.hpp ****     static void popRegisters();
  34:src/../h/riscv.hpp **** 
  35:src/../h/riscv.hpp ****     // read register scause
  36:src/../h/riscv.hpp ****     static uint64 r_scause();
  37:src/../h/riscv.hpp **** 
  38:src/../h/riscv.hpp ****     // write register scause
  39:src/../h/riscv.hpp ****     static void w_scause(uint64 scause);
  40:src/../h/riscv.hpp **** 
  41:src/../h/riscv.hpp ****     // read register sepc
  42:src/../h/riscv.hpp ****     static uint64 r_sepc();
  43:src/../h/riscv.hpp **** 
  44:src/../h/riscv.hpp ****     // write register sepc
  45:src/../h/riscv.hpp ****     static void w_sepc(uint64 sepc);
  46:src/../h/riscv.hpp **** 
  47:src/../h/riscv.hpp ****     // read register stvec
  48:src/../h/riscv.hpp ****     static uint64 r_stvec();
  49:src/../h/riscv.hpp **** 
  50:src/../h/riscv.hpp ****     // write register stvec
  51:src/../h/riscv.hpp ****     static void w_stvec(uint64 stvec);
  52:src/../h/riscv.hpp **** 
  53:src/../h/riscv.hpp ****     // read register stval
  54:src/../h/riscv.hpp ****     static uint64 r_stval();
  55:src/../h/riscv.hpp **** 
  56:src/../h/riscv.hpp ****     // write register stval
  57:src/../h/riscv.hpp ****     static void w_stval(uint64 stval);
  58:src/../h/riscv.hpp **** 
  59:src/../h/riscv.hpp ****     enum BitMaskSip
  60:src/../h/riscv.hpp ****     {
  61:src/../h/riscv.hpp ****         SIP_SSIP = (1 << 1),
  62:src/../h/riscv.hpp ****         SIP_STIP = (1 << 5),
  63:src/../h/riscv.hpp ****         SIP_SEIP = (1 << 9),
  64:src/../h/riscv.hpp ****     };
  65:src/../h/riscv.hpp **** 
  66:src/../h/riscv.hpp ****     // mask set register sip
  67:src/../h/riscv.hpp ****     static void ms_sip(uint64 mask);
  68:src/../h/riscv.hpp **** 
  69:src/../h/riscv.hpp ****     // mask clear register sip
  70:src/../h/riscv.hpp ****     static void mc_sip(uint64 mask);
  71:src/../h/riscv.hpp **** 
  72:src/../h/riscv.hpp ****     // read register sip
  73:src/../h/riscv.hpp ****     static uint64 r_sip();
  74:src/../h/riscv.hpp **** 
  75:src/../h/riscv.hpp ****     // write register sip
  76:src/../h/riscv.hpp ****     static void w_sip(uint64 sip);
  77:src/../h/riscv.hpp **** 
  78:src/../h/riscv.hpp ****     enum BitMaskSstatus
  79:src/../h/riscv.hpp ****     {
  80:src/../h/riscv.hpp ****         SSTATUS_SIE = (1 << 1),
  81:src/../h/riscv.hpp ****         SSTATUS_SPIE = (1 << 5),
  82:src/../h/riscv.hpp ****         SSTATUS_SPP = (1 << 8),
  83:src/../h/riscv.hpp ****     };
  84:src/../h/riscv.hpp **** 
GAS LISTING /tmp/ccxwQD06.s 			page 18


  85:src/../h/riscv.hpp ****     // mask set register sstatus
  86:src/../h/riscv.hpp ****     static void ms_sstatus(uint64 mask);
  87:src/../h/riscv.hpp **** 
  88:src/../h/riscv.hpp ****     // mask clear register sstatus
  89:src/../h/riscv.hpp ****     static void mc_sstatus(uint64 mask);
  90:src/../h/riscv.hpp **** 
  91:src/../h/riscv.hpp ****     // read register sstatus
  92:src/../h/riscv.hpp ****     static uint64 r_sstatus();
  93:src/../h/riscv.hpp **** 
  94:src/../h/riscv.hpp ****     // write register sstatus
  95:src/../h/riscv.hpp ****     static void w_sstatus(uint64 sstatus);
  96:src/../h/riscv.hpp **** 
  97:src/../h/riscv.hpp **** private:
  98:src/../h/riscv.hpp ****     static void interruptRoutineHandler();
  99:src/../h/riscv.hpp **** };
 100:src/../h/riscv.hpp **** 
 101:src/../h/riscv.hpp **** inline uint64 Riscv::r_scause()
 102:src/../h/riscv.hpp **** {
 103:src/../h/riscv.hpp ****     uint64 volatile scause;
 104:src/../h/riscv.hpp ****     __asm__ volatile ("csrr %[scause], scause" : [scause] "=r"(scause));
 105:src/../h/riscv.hpp ****     return scause;
 106:src/../h/riscv.hpp **** }
 107:src/../h/riscv.hpp **** 
 108:src/../h/riscv.hpp **** inline void Riscv::w_scause(uint64 scause)
 109:src/../h/riscv.hpp **** {
 110:src/../h/riscv.hpp ****     __asm__ volatile ("csrw scause, %[scause]" : : [scause] "r"(scause));
 111:src/../h/riscv.hpp **** }
 112:src/../h/riscv.hpp **** 
 113:src/../h/riscv.hpp **** inline uint64 Riscv::r_sepc()
 114:src/../h/riscv.hpp **** {
 115:src/../h/riscv.hpp ****     uint64 volatile sepc;
 116:src/../h/riscv.hpp ****     __asm__ volatile ("csrr %[sepc], sepc" : [sepc] "=r"(sepc));
 117:src/../h/riscv.hpp ****     return sepc;
 118:src/../h/riscv.hpp **** }
 119:src/../h/riscv.hpp **** 
 120:src/../h/riscv.hpp **** inline void Riscv::w_sepc(uint64 sepc)
 121:src/../h/riscv.hpp **** {
 122:src/../h/riscv.hpp ****     __asm__ volatile ("csrw sepc, %[sepc]" : : [sepc] "r"(sepc));
 123:src/../h/riscv.hpp **** }
 124:src/../h/riscv.hpp **** 
 125:src/../h/riscv.hpp **** inline uint64 Riscv::r_stvec()
 126:src/../h/riscv.hpp **** {
 127:src/../h/riscv.hpp ****     uint64 volatile stvec;
 128:src/../h/riscv.hpp ****     __asm__ volatile ("csrr %[stvec], stvec" : [stvec] "=r"(stvec));
 129:src/../h/riscv.hpp ****     return stvec;
 130:src/../h/riscv.hpp **** }
 131:src/../h/riscv.hpp **** 
 132:src/../h/riscv.hpp **** inline void Riscv::w_stvec(uint64 stvec)
 133:src/../h/riscv.hpp **** {
 134:src/../h/riscv.hpp ****     __asm__ volatile ("csrw stvec, %[stvec]" : : [stvec] "r"(stvec));
 568              		.loc 3 134 5 is_stmt 1
 569              		.loc 3 134 69 is_stmt 0
 570              	 #APP
 571              	# 134 "src/../h/riscv.hpp" 1
 135              	}
 572              		csrw stvec, a5
 573              	# 0 "" 2
GAS LISTING /tmp/ccxwQD06.s 			page 19


 574              	.LVL58:
 575              	 #NO_APP
 576              	.LBE41:
 577              	.LBE40:
 172:src/main.cpp  ****     //Riscv: :ms_sstatus (Riscv:: SSTATUS_SIE);
 173:src/main.cpp  ****     thread_t thread1;
 578              		.loc 1 173 5 is_stmt 1
 174:src/main.cpp  ****     //idle nit(nit koja nema fju koja treba da izvrsava)
 175:src/main.cpp  ****     thread_create(&thread1, nullptr, nullptr);
 579              		.loc 1 175 5
 580              		.loc 1 175 18 is_stmt 0
 581 037c 13060000 		li	a2,0
 582 0380 93050000 		li	a1,0
 583 0384 130584FE 		addi	a0,s0,-24
 584 0388 97000000 		call	_Z13thread_createPP7_threadPFvPvES2_
 584      E7800000 
 585              	.LVL59:
 176:src/main.cpp  ****     _thread::running = thread1;
 586              		.loc 1 176 5 is_stmt 1
 587              		.loc 1 176 22 is_stmt 0
 588 0390 833784FE 		ld	a5,-24(s0)
 589 0394 17070000 		sd	a5,_ZN7_thread7runningE,a4
 589      2330F700 
 177:src/main.cpp  **** 
 178:src/main.cpp  ****     thread_t thread2;
 590              		.loc 1 178 5 is_stmt 1
 179:src/main.cpp  ****     thread_create(&thread2, reinterpret_cast<void (*)(void *)>(userMain), nullptr);
 591              		.loc 1 179 5
 592              		.loc 1 179 18 is_stmt 0
 593 039c 13060000 		li	a2,0
 594 03a0 97050000 		lla	a1,_Z8userMainv
 594      93850500 
 595 03a8 130504FE 		addi	a0,s0,-32
 596 03ac 97000000 		call	_Z13thread_createPP7_threadPFvPvES2_
 596      E7800000 
 597              	.LVL60:
 598              	.L32:
 180:src/main.cpp  **** 
 181:src/main.cpp  ****     while (!(thread2->isFinished())) {
 599              		.loc 1 181 5 is_stmt 1
 600              		.loc 1 181 12
 601              		.loc 1 181 33 is_stmt 0
 602 03b4 833704FE 		ld	a5,-32(s0)
 603              	.LVL61:
 604              	.LBB42:
 605              	.LBB43:
  18:src/../h/_thread.hpp **** 
 606              		.loc 2 18 31 is_stmt 1
  18:src/../h/_thread.hpp **** 
 607              		.loc 2 18 38 is_stmt 0
 608 03b8 83C78702 		lbu	a5,40(a5)
 609              	.LVL62:
 610              	.LBE43:
 611              	.LBE42:
 612              		.loc 1 181 12
 613 03bc 63980700 		bnez	a5,.L31
 182:src/main.cpp  ****         thread_dispatch();
GAS LISTING /tmp/ccxwQD06.s 			page 20


 614              		.loc 1 182 9 is_stmt 1
 615              		.loc 1 182 24 is_stmt 0
 616 03c0 97000000 		call	_Z15thread_dispatchv
 616      E7800000 
 617              	.LVL63:
 618 03c8 6FF0DFFE 		j	.L32
 619              	.L31:
 183:src/main.cpp  ****     }
 184:src/main.cpp  **** 
 185:src/main.cpp  ****     return 0;
 620              		.loc 1 185 5 is_stmt 1
 186:src/main.cpp  **** }
 621              		.loc 1 186 1 is_stmt 0
 622 03cc 13050000 		li	a0,0
 623 03d0 83308101 		ld	ra,24(sp)
 624              		.cfi_restore 1
 625 03d4 03340101 		ld	s0,16(sp)
 626              		.cfi_restore 8
 627              		.cfi_def_cfa 2, 32
 628 03d8 13010102 		addi	sp,sp,32
 629              		.cfi_def_cfa_offset 0
 630 03dc 67800000 		jr	ra
 631              		.cfi_endproc
 632              	.LFE37:
 634              		.globl	nitC
 635              		.globl	nitB
 636              		.globl	nitA
 637              		.section	.sbss,"aw",@nobits
 638              		.align	3
 641              	nitC:
 642 0000 00000000 		.zero	8
 642      00000000 
 645              	nitB:
 646 0008 00000000 		.zero	8
 646      00000000 
 649              	nitA:
 650 0010 00000000 		.zero	8
 650      00000000 
 651              		.text
 652              	.Letext0:
 653              		.file 4 "src/../h/../lib/hw.h"
 654              		.file 5 "src/../h/syscall_c.hpp"
 655              		.file 6 "src/../test/printing.hpp"
 656              		.file 7 "src/../test/Threads_CPP_API_test.hpp"
 657              		.file 8 "src/../test/Threads_C_API_test.hpp"
GAS LISTING /tmp/ccxwQD06.s 			page 21


DEFINED SYMBOLS
                            *ABS*:0000000000000000 main.cpp
     /tmp/ccxwQD06.s:38     .text:0000000000000000 _Z8userMainv
     /tmp/ccxwQD06.s:42     .text:0000000000000000 .L0 
     /tmp/ccxwQD06.s:43     .text:0000000000000000 .L0 
     /tmp/ccxwQD06.s:44     .text:0000000000000004 .L0 
     /tmp/ccxwQD06.s:49     .text:0000000000000014 .L0 
     /tmp/ccxwQD06.s:50     .text:0000000000000014 .L0 
     /tmp/ccxwQD06.s:51     .text:0000000000000014 .L0 
     /tmp/ccxwQD06.s:52     .text:0000000000000014 .L0 
     /tmp/ccxwQD06.s:54     .text:0000000000000018 .L0 
     /tmp/ccxwQD06.s:56     .text:0000000000000018 .L0 
     /tmp/ccxwQD06.s:57     .text:0000000000000018 .L0 
     /tmp/ccxwQD06.s:61     .text:0000000000000028 .L0 
     /tmp/ccxwQD06.s:62     .text:0000000000000028 .L0 
     /tmp/ccxwQD06.s:66     .text:0000000000000034 .L0 
     /tmp/ccxwQD06.s:69     .text:0000000000000038 .L0 
     /tmp/ccxwQD06.s:70     .text:0000000000000038 .L0 
     /tmp/ccxwQD06.s:73     .text:0000000000000040 .L0 
     /tmp/ccxwQD06.s:74     .text:0000000000000040 .L0 
     /tmp/ccxwQD06.s:75     .text:0000000000000040 .L0 
     /tmp/ccxwQD06.s:77     .text:0000000000000044 .L0 
     /tmp/ccxwQD06.s:80     .text:000000000000004c .L0 
     /tmp/ccxwQD06.s:81     .text:000000000000004c .L0 
     /tmp/ccxwQD06.s:84     .text:0000000000000050 .L0 
     /tmp/ccxwQD06.s:87     .text:0000000000000058 .L0 
     /tmp/ccxwQD06.s:96     .text:0000000000000078 .L0 
     /tmp/ccxwQD06.s:97     .text:0000000000000078 .L0 
     /tmp/ccxwQD06.s:98     .text:0000000000000078 .L0 
     /tmp/ccxwQD06.s:101    .text:0000000000000080 .L0 
     /tmp/ccxwQD06.s:102    .text:0000000000000080 .L0 
     /tmp/ccxwQD06.s:106    .text:0000000000000090 .L0 
     /tmp/ccxwQD06.s:110    .text:0000000000000094 .L0 
     /tmp/ccxwQD06.s:111    .text:0000000000000094 .L0 
     /tmp/ccxwQD06.s:112    .text:0000000000000094 .L0 
     /tmp/ccxwQD06.s:117    .text:00000000000000a4 .L0 
     /tmp/ccxwQD06.s:118    .text:00000000000000a4 .L0 
     /tmp/ccxwQD06.s:119    .text:00000000000000a8 .L0 
     /tmp/ccxwQD06.s:120    .text:00000000000000a8 .L0 
     /tmp/ccxwQD06.s:122    .text:00000000000000ac .L0 
     /tmp/ccxwQD06.s:123    .text:00000000000000ac .L0 
     /tmp/ccxwQD06.s:125    .text:00000000000000b0 .L0 
     /tmp/ccxwQD06.s:127    .text:00000000000000b4 .L0 
     /tmp/ccxwQD06.s:129    .text:00000000000000b8 .L0 
     /tmp/ccxwQD06.s:132    .text:00000000000000bc .L0 
     /tmp/ccxwQD06.s:134    .text:00000000000000bc .L0 
     /tmp/ccxwQD06.s:135    .text:00000000000000bc .L0 
     /tmp/ccxwQD06.s:136    .text:00000000000000bc .L0 
     /tmp/ccxwQD06.s:140    .text:00000000000000cc .L0 
     /tmp/ccxwQD06.s:143    .text:00000000000000d0 .L0 
     /tmp/ccxwQD06.s:146    .text:00000000000000d8 .L0 
     /tmp/ccxwQD06.s:147    .text:00000000000000d8 .L0 
     /tmp/ccxwQD06.s:148    .text:00000000000000d8 .L0 
     /tmp/ccxwQD06.s:152    .text:00000000000000e8 .L0 
     /tmp/ccxwQD06.s:153    .text:00000000000000e8 .L0 
     /tmp/ccxwQD06.s:157    .text:00000000000000f8 .L0 
     /tmp/ccxwQD06.s:160    .text:00000000000000fc .L0 
GAS LISTING /tmp/ccxwQD06.s 			page 22


     /tmp/ccxwQD06.s:161    .text:00000000000000fc .L0 
     /tmp/ccxwQD06.s:162    .text:00000000000000fc .L0 
     /tmp/ccxwQD06.s:165    .text:0000000000000104 .L0 
     /tmp/ccxwQD06.s:166    .text:0000000000000104 .L0 
     /tmp/ccxwQD06.s:170    .text:0000000000000114 .L0 
     /tmp/ccxwQD06.s:173    .text:0000000000000118 .L0 
     /tmp/ccxwQD06.s:174    .text:0000000000000118 .L0 
     /tmp/ccxwQD06.s:175    .text:0000000000000118 .L0 
     /tmp/ccxwQD06.s:179    .text:000000000000012c .L0 
     /tmp/ccxwQD06.s:193    .text:000000000000012c _Z2faPv
     /tmp/ccxwQD06.s:196    .text:000000000000012c .L0 
     /tmp/ccxwQD06.s:197    .text:000000000000012c .L0 
     /tmp/ccxwQD06.s:198    .text:0000000000000130 .L0 
     /tmp/ccxwQD06.s:202    .text:000000000000013c .L0 
     /tmp/ccxwQD06.s:203    .text:000000000000013c .L0 
     /tmp/ccxwQD06.s:204    .text:000000000000013c .L0 
     /tmp/ccxwQD06.s:206    .text:0000000000000140 .L0 
     /tmp/ccxwQD06.s:210    .text:0000000000000140 .L0 
     /tmp/ccxwQD06.s:211    .text:0000000000000140 .L0 
     /tmp/ccxwQD06.s:215    .text:0000000000000144 .L0 
     /tmp/ccxwQD06.s:218    .text:000000000000014c .L0 
     /tmp/ccxwQD06.s:219    .text:000000000000014c .L0 
     /tmp/ccxwQD06.s:223    .text:000000000000015c .L0 
     /tmp/ccxwQD06.s:230    .text:0000000000000164 .L0 
     /tmp/ccxwQD06.s:231    .text:0000000000000164 .L0 
     /tmp/ccxwQD06.s:238    .text:0000000000000174 .L0 
     /tmp/ccxwQD06.s:239    .text:0000000000000174 .L0 
     /tmp/ccxwQD06.s:240    .text:0000000000000174 .L0 
     /tmp/ccxwQD06.s:247    .text:0000000000000184 .L0 
     /tmp/ccxwQD06.s:248    .text:0000000000000184 .L0 
     /tmp/ccxwQD06.s:251    .text:000000000000018c .L0 
     /tmp/ccxwQD06.s:252    .text:0000000000000190 .L0 
     /tmp/ccxwQD06.s:254    .text:0000000000000194 .L0 
     /tmp/ccxwQD06.s:255    .text:0000000000000194 .L0 
     /tmp/ccxwQD06.s:257    .text:0000000000000198 .L0 
     /tmp/ccxwQD06.s:260    .text:000000000000019c .L0 
     /tmp/ccxwQD06.s:262    .text:00000000000001a0 .L0 
     /tmp/ccxwQD06.s:273    .text:00000000000001a0 _Z2fbPv
     /tmp/ccxwQD06.s:276    .text:00000000000001a0 .L0 
     /tmp/ccxwQD06.s:277    .text:00000000000001a0 .L0 
     /tmp/ccxwQD06.s:278    .text:00000000000001a4 .L0 
     /tmp/ccxwQD06.s:282    .text:00000000000001b0 .L0 
     /tmp/ccxwQD06.s:283    .text:00000000000001b0 .L0 
     /tmp/ccxwQD06.s:284    .text:00000000000001b0 .L0 
     /tmp/ccxwQD06.s:286    .text:00000000000001b4 .L0 
     /tmp/ccxwQD06.s:290    .text:00000000000001b4 .L0 
     /tmp/ccxwQD06.s:291    .text:00000000000001b4 .L0 
     /tmp/ccxwQD06.s:295    .text:00000000000001b8 .L0 
     /tmp/ccxwQD06.s:298    .text:00000000000001c0 .L0 
     /tmp/ccxwQD06.s:299    .text:00000000000001c0 .L0 
     /tmp/ccxwQD06.s:303    .text:00000000000001d0 .L0 
     /tmp/ccxwQD06.s:310    .text:00000000000001d8 .L0 
     /tmp/ccxwQD06.s:311    .text:00000000000001d8 .L0 
     /tmp/ccxwQD06.s:317    .text:00000000000001e8 .L0 
     /tmp/ccxwQD06.s:318    .text:00000000000001e8 .L0 
     /tmp/ccxwQD06.s:319    .text:00000000000001e8 .L0 
     /tmp/ccxwQD06.s:326    .text:00000000000001f8 .L0 
GAS LISTING /tmp/ccxwQD06.s 			page 23


     /tmp/ccxwQD06.s:327    .text:00000000000001f8 .L0 
     /tmp/ccxwQD06.s:330    .text:0000000000000200 .L0 
     /tmp/ccxwQD06.s:331    .text:0000000000000204 .L0 
     /tmp/ccxwQD06.s:333    .text:0000000000000208 .L0 
     /tmp/ccxwQD06.s:334    .text:0000000000000208 .L0 
     /tmp/ccxwQD06.s:336    .text:000000000000020c .L0 
     /tmp/ccxwQD06.s:339    .text:0000000000000210 .L0 
     /tmp/ccxwQD06.s:341    .text:0000000000000214 .L0 
     /tmp/ccxwQD06.s:352    .text:0000000000000214 _Z2fcPv
     /tmp/ccxwQD06.s:355    .text:0000000000000214 .L0 
     /tmp/ccxwQD06.s:356    .text:0000000000000214 .L0 
     /tmp/ccxwQD06.s:357    .text:0000000000000218 .L0 
     /tmp/ccxwQD06.s:361    .text:0000000000000224 .L0 
     /tmp/ccxwQD06.s:362    .text:0000000000000224 .L0 
     /tmp/ccxwQD06.s:363    .text:0000000000000224 .L0 
     /tmp/ccxwQD06.s:365    .text:0000000000000228 .L0 
     /tmp/ccxwQD06.s:369    .text:0000000000000228 .L0 
     /tmp/ccxwQD06.s:370    .text:0000000000000228 .L0 
     /tmp/ccxwQD06.s:374    .text:000000000000022c .L0 
     /tmp/ccxwQD06.s:377    .text:0000000000000234 .L0 
     /tmp/ccxwQD06.s:378    .text:0000000000000234 .L0 
     /tmp/ccxwQD06.s:382    .text:0000000000000244 .L0 
     /tmp/ccxwQD06.s:389    .text:000000000000024c .L0 
     /tmp/ccxwQD06.s:390    .text:000000000000024c .L0 
     /tmp/ccxwQD06.s:396    .text:000000000000025c .L0 
     /tmp/ccxwQD06.s:397    .text:000000000000025c .L0 
     /tmp/ccxwQD06.s:398    .text:000000000000025c .L0 
     /tmp/ccxwQD06.s:405    .text:000000000000026c .L0 
     /tmp/ccxwQD06.s:406    .text:000000000000026c .L0 
     /tmp/ccxwQD06.s:409    .text:0000000000000274 .L0 
     /tmp/ccxwQD06.s:410    .text:0000000000000278 .L0 
     /tmp/ccxwQD06.s:412    .text:000000000000027c .L0 
     /tmp/ccxwQD06.s:413    .text:000000000000027c .L0 
     /tmp/ccxwQD06.s:415    .text:0000000000000280 .L0 
     /tmp/ccxwQD06.s:418    .text:0000000000000284 .L0 
     /tmp/ccxwQD06.s:420    .text:0000000000000288 .L0 
     /tmp/ccxwQD06.s:431    .text:0000000000000288 _Z7wrapperPv
     /tmp/ccxwQD06.s:434    .text:0000000000000288 .L0 
     /tmp/ccxwQD06.s:436    .text:0000000000000288 .L0 
     /tmp/ccxwQD06.s:437    .text:000000000000028c .L0 
     /tmp/ccxwQD06.s:440    .text:0000000000000294 .L0 
     /tmp/ccxwQD06.s:441    .text:0000000000000294 .L0 
     /tmp/ccxwQD06.s:443    .text:0000000000000298 .L0 
     /tmp/ccxwQD06.s:445    .text:0000000000000298 .L0 
     /tmp/ccxwQD06.s:446    .text:0000000000000298 .L0 
     /tmp/ccxwQD06.s:649    .sbss:0000000000000010 nitA
     /tmp/ccxwQD06.s:453    .text:00000000000002b4 .L0 
     /tmp/ccxwQD06.s:454    .text:00000000000002b4 .L0 
     /tmp/ccxwQD06.s:645    .sbss:0000000000000008 nitB
     /tmp/ccxwQD06.s:460    .text:00000000000002d0 .L0 
     /tmp/ccxwQD06.s:461    .text:00000000000002d0 .L0 
     /tmp/ccxwQD06.s:641    .sbss:0000000000000000 nitC
     /tmp/ccxwQD06.s:469    .text:00000000000002f0 .L0 
     /tmp/ccxwQD06.s:470    .text:00000000000002f0 .L0 
     /tmp/ccxwQD06.s:474    .text:00000000000002f8 .L0 
     /tmp/ccxwQD06.s:475    .text:00000000000002f8 .L0 
     /tmp/ccxwQD06.s:476    .text:00000000000002f8 .L0 
GAS LISTING /tmp/ccxwQD06.s 			page 24


     /tmp/ccxwQD06.s:481    .text:0000000000000300 .L0 
     /tmp/ccxwQD06.s:482    .text:0000000000000300 .L0 
     /tmp/ccxwQD06.s:487    .text:0000000000000304 .L0 
     /tmp/ccxwQD06.s:489    .text:0000000000000308 .L0 
     /tmp/ccxwQD06.s:494    .text:0000000000000310 .L0 
     /tmp/ccxwQD06.s:495    .text:0000000000000310 .L0 
     /tmp/ccxwQD06.s:500    .text:0000000000000314 .L0 
     /tmp/ccxwQD06.s:502    .text:0000000000000318 .L0 
     /tmp/ccxwQD06.s:507    .text:0000000000000320 .L0 
     /tmp/ccxwQD06.s:508    .text:0000000000000320 .L0 
     /tmp/ccxwQD06.s:513    .text:0000000000000324 .L0 
     /tmp/ccxwQD06.s:515    .text:0000000000000328 .L0 
     /tmp/ccxwQD06.s:516    .text:0000000000000328 .L0 
     /tmp/ccxwQD06.s:522    .text:0000000000000338 .L0 
     /tmp/ccxwQD06.s:523    .text:0000000000000338 .L0 
     /tmp/ccxwQD06.s:524    .text:0000000000000338 .L0 
     /tmp/ccxwQD06.s:531    .text:0000000000000348 .L0 
     /tmp/ccxwQD06.s:532    .text:0000000000000348 .L0 
     /tmp/ccxwQD06.s:535    .text:0000000000000350 .L0 
     /tmp/ccxwQD06.s:536    .text:0000000000000354 .L0 
     /tmp/ccxwQD06.s:538    .text:0000000000000358 .L0 
     /tmp/ccxwQD06.s:539    .text:0000000000000358 .L0 
     /tmp/ccxwQD06.s:541    .text:000000000000035c .L0 
     /tmp/ccxwQD06.s:543    .text:0000000000000360 .L0 
     /tmp/ccxwQD06.s:549    .text:0000000000000360 main
     /tmp/ccxwQD06.s:552    .text:0000000000000360 .L0 
     /tmp/ccxwQD06.s:553    .text:0000000000000360 .L0 
     /tmp/ccxwQD06.s:554    .text:0000000000000364 .L0 
     /tmp/ccxwQD06.s:557    .text:000000000000036c .L0 
     /tmp/ccxwQD06.s:558    .text:000000000000036c .L0 
     /tmp/ccxwQD06.s:560    .text:0000000000000370 .L0 
     /tmp/ccxwQD06.s:562    .text:0000000000000370 .L0 
     /tmp/ccxwQD06.s:563    .text:0000000000000370 .L0 
     /tmp/ccxwQD06.s:569    .text:0000000000000378 .L0 
  src/../h/riscv.hpp:134    .text:0000000000000378 .L0 
     /tmp/ccxwQD06.s:579    .text:000000000000037c .L0 
     /tmp/ccxwQD06.s:580    .text:000000000000037c .L0 
     /tmp/ccxwQD06.s:581    .text:000000000000037c .L0 
     /tmp/ccxwQD06.s:587    .text:0000000000000390 .L0 
     /tmp/ccxwQD06.s:588    .text:0000000000000390 .L0 
     /tmp/ccxwQD06.s:591    .text:000000000000039c .L0 
     /tmp/ccxwQD06.s:592    .text:000000000000039c .L0 
     /tmp/ccxwQD06.s:593    .text:000000000000039c .L0 
     /tmp/ccxwQD06.s:600    .text:00000000000003b4 .L0 
     /tmp/ccxwQD06.s:601    .text:00000000000003b4 .L0 
     /tmp/ccxwQD06.s:602    .text:00000000000003b4 .L0 
     /tmp/ccxwQD06.s:607    .text:00000000000003b8 .L0 
     /tmp/ccxwQD06.s:608    .text:00000000000003b8 .L0 
     /tmp/ccxwQD06.s:613    .text:00000000000003bc .L0 
     /tmp/ccxwQD06.s:615    .text:00000000000003c0 .L0 
     /tmp/ccxwQD06.s:616    .text:00000000000003c0 .L0 
     /tmp/ccxwQD06.s:621    .text:00000000000003cc .L0 
     /tmp/ccxwQD06.s:622    .text:00000000000003cc .L0 
     /tmp/ccxwQD06.s:624    .text:00000000000003d4 .L0 
     /tmp/ccxwQD06.s:626    .text:00000000000003d8 .L0 
     /tmp/ccxwQD06.s:627    .text:00000000000003d8 .L0 
     /tmp/ccxwQD06.s:629    .text:00000000000003dc .L0 
GAS LISTING /tmp/ccxwQD06.s 			page 25


     /tmp/ccxwQD06.s:631    .text:00000000000003e0 .L0 
     /tmp/ccxwQD06.s:658    .text:00000000000003e0 .L0 
     /tmp/ccxwQD06.s:11     .rodata.str1.8:0000000000000000 .LC0
     /tmp/ccxwQD06.s:57     .text:0000000000000018 .L0 
     /tmp/ccxwQD06.s:23     .rodata.str1.8:00000000000000c0 .LC4
     /tmp/ccxwQD06.s:102    .text:0000000000000080 .L0 
     /tmp/ccxwQD06.s:14     .rodata.str1.8:0000000000000020 .LC1
     /tmp/ccxwQD06.s:112    .text:0000000000000094 .L0 
     /tmp/ccxwQD06.s:17     .rodata.str1.8:0000000000000050 .LC2
     /tmp/ccxwQD06.s:136    .text:00000000000000bc .L0 
     /tmp/ccxwQD06.s:26     .rodata.str1.8:0000000000000100 .LC5
     /tmp/ccxwQD06.s:148    .text:00000000000000d8 .L0 
     /tmp/ccxwQD06.s:29     .rodata.str1.8:0000000000000120 .LC6
     /tmp/ccxwQD06.s:153    .text:00000000000000e8 .L0 
     /tmp/ccxwQD06.s:20     .rodata.str1.8:0000000000000080 .LC3
     /tmp/ccxwQD06.s:166    .text:0000000000000104 .L0 
     /tmp/ccxwQD06.s:32     .rodata.str1.8:0000000000000178 .LC7
     /tmp/ccxwQD06.s:175    .text:0000000000000118 .L0 
     /tmp/ccxwQD06.s:184    .rodata.str1.8:00000000000001a0 .LC8
     /tmp/ccxwQD06.s:219    .text:000000000000014c .L0 
     /tmp/ccxwQD06.s:187    .rodata.str1.8:00000000000001a8 .LC9
     /tmp/ccxwQD06.s:231    .text:0000000000000164 .L0 
     /tmp/ccxwQD06.s:240    .text:0000000000000174 .L0 
     /tmp/ccxwQD06.s:267    .rodata.str1.8:00000000000001b0 .LC10
     /tmp/ccxwQD06.s:299    .text:00000000000001c0 .L0 
     /tmp/ccxwQD06.s:311    .text:00000000000001d8 .L0 
     /tmp/ccxwQD06.s:319    .text:00000000000001e8 .L0 
     /tmp/ccxwQD06.s:346    .rodata.str1.8:00000000000001b8 .LC11
     /tmp/ccxwQD06.s:378    .text:0000000000000234 .L0 
     /tmp/ccxwQD06.s:390    .text:000000000000024c .L0 
     /tmp/ccxwQD06.s:398    .text:000000000000025c .L0 
     /tmp/ccxwQD06.s:447    .text:000000000000029c .L0 
     /tmp/ccxwQD06.s:448    .text:00000000000002a4 .L0 
     /tmp/ccxwQD06.s:455    .text:00000000000002b8 .L0 
     /tmp/ccxwQD06.s:456    .text:00000000000002c0 .L0 
     /tmp/ccxwQD06.s:462    .text:00000000000002d4 .L0 
     /tmp/ccxwQD06.s:463    .text:00000000000002dc .L0 
     /tmp/ccxwQD06.s:476    .text:00000000000002f8 .L0 
     /tmp/ccxwQD06.s:489    .text:0000000000000308 .L0 
     /tmp/ccxwQD06.s:502    .text:0000000000000318 .L0 
     /tmp/ccxwQD06.s:425    .rodata.str1.8:00000000000001c0 .LC12
     /tmp/ccxwQD06.s:516    .text:0000000000000328 .L0 
     /tmp/ccxwQD06.s:524    .text:0000000000000338 .L0 
     /tmp/ccxwQD06.s:563    .text:0000000000000370 .L0 
     /tmp/ccxwQD06.s:589    .text:0000000000000394 .L0 
     /tmp/ccxwQD06.s:594    .text:00000000000003a0 .L0 
     /tmp/ccxwQD06.s:108    .text:0000000000000094 .L11
     /tmp/ccxwQD06.s:131    .text:00000000000000bc .L12
     /tmp/ccxwQD06.s:141    .text:00000000000000d0 .L5
     /tmp/ccxwQD06.s:116    .text:00000000000000a4 .L1
     /tmp/ccxwQD06.s:158    .text:00000000000000fc .L6
     /tmp/ccxwQD06.s:171    .text:0000000000000118 .L8
     /tmp/ccxwQD06.s:227    .text:0000000000000164 .L14
     /tmp/ccxwQD06.s:213    .text:0000000000000144 .L15
     /tmp/ccxwQD06.s:307    .text:00000000000001d8 .L18
     /tmp/ccxwQD06.s:293    .text:00000000000001b8 .L19
     /tmp/ccxwQD06.s:386    .text:000000000000024c .L22
GAS LISTING /tmp/ccxwQD06.s 			page 26


     /tmp/ccxwQD06.s:372    .text:000000000000022c .L23
     /tmp/ccxwQD06.s:472    .text:00000000000002f8 .L28
     /tmp/ccxwQD06.s:467    .text:00000000000002f0 .L26
     /tmp/ccxwQD06.s:619    .text:00000000000003cc .L31
     /tmp/ccxwQD06.s:598    .text:00000000000003b4 .L32
     /tmp/ccxwQD06.s:1897   .debug_abbrev:0000000000000000 .Ldebug_abbrev0
     /tmp/ccxwQD06.s:2928   .debug_str:000000000000009d .LASF111
     /tmp/ccxwQD06.s:3012   .debug_str:00000000000003fd .LASF112
     /tmp/ccxwQD06.s:2986   .debug_str:0000000000000327 .LASF113
     /tmp/ccxwQD06.s:8      .text:0000000000000000 .Ltext0
     /tmp/ccxwQD06.s:652    .text:00000000000003e0 .Letext0
     /tmp/ccxwQD06.s:2896   .debug_line:0000000000000000 .Ldebug_line0
     /tmp/ccxwQD06.s:3034   .debug_str:00000000000004d1 .LASF0
     /tmp/ccxwQD06.s:3046   .debug_str:0000000000000531 .LASF1
     /tmp/ccxwQD06.s:3024   .debug_str:0000000000000492 .LASF2
     /tmp/ccxwQD06.s:3000   .debug_str:00000000000003c8 .LASF4
     /tmp/ccxwQD06.s:3088   .debug_str:0000000000000653 .LASF3
     /tmp/ccxwQD06.s:2930   .debug_str:0000000000000161 .LASF5
     /tmp/ccxwQD06.s:3048   .debug_str:0000000000000544 .LASF6
     /tmp/ccxwQD06.s:3032   .debug_str:00000000000004be .LASF7
     /tmp/ccxwQD06.s:3116   .debug_str:0000000000000747 .LASF8
     /tmp/ccxwQD06.s:2984   .debug_str:0000000000000319 .LASF9
     /tmp/ccxwQD06.s:3064   .debug_str:00000000000005b5 .LASF10
     /tmp/ccxwQD06.s:3106   .debug_str:00000000000006fa .LASF11
     /tmp/ccxwQD06.s:2932   .debug_str:0000000000000168 .LASF12
     /tmp/ccxwQD06.s:2906   .debug_str:0000000000000030 .LASF13
     /tmp/ccxwQD06.s:2938   .debug_str:0000000000000196 .LASF14
     /tmp/ccxwQD06.s:3080   .debug_str:0000000000000616 .LASF15
     /tmp/ccxwQD06.s:2946   .debug_str:00000000000001f6 .LASF16
     /tmp/ccxwQD06.s:3044   .debug_str:000000000000052b .LASF57
     /tmp/ccxwQD06.s:3078   .debug_str:000000000000060b .LASF17
     /tmp/ccxwQD06.s:3126   .debug_str:000000000000078b .LASF19
     /tmp/ccxwQD06.s:2994   .debug_str:0000000000000399 .LASF18
     /tmp/ccxwQD06.s:3062   .debug_str:0000000000000597 .LASF20
     /tmp/ccxwQD06.s:2926   .debug_str:000000000000008f .LASF21
     /tmp/ccxwQD06.s:2962   .debug_str:000000000000027c .LASF22
     /tmp/ccxwQD06.s:3096   .debug_str:00000000000006ad .LASF23
     /tmp/ccxwQD06.s:2902   .debug_str:0000000000000011 .LASF24
     /tmp/ccxwQD06.s:2908   .debug_str:0000000000000040 .LASF25
     /tmp/ccxwQD06.s:3094   .debug_str:0000000000000698 .LASF27
     /tmp/ccxwQD06.s:2960   .debug_str:0000000000000273 .LASF29
     /tmp/ccxwQD06.s:2958   .debug_str:000000000000025e .LASF31
     /tmp/ccxwQD06.s:3092   .debug_str:0000000000000691 .LASF26
     /tmp/ccxwQD06.s:3068   .debug_str:00000000000005c9 .LASF28
     /tmp/ccxwQD06.s:3104   .debug_str:00000000000006f3 .LASF30
     /tmp/ccxwQD06.s:3098   .debug_str:00000000000006ba .LASF32
     /tmp/ccxwQD06.s:2978   .debug_str:00000000000002f0 .LASF33
     /tmp/ccxwQD06.s:2948   .debug_str:000000000000020c .LASF34
     /tmp/ccxwQD06.s:2900   .debug_str:0000000000000009 .LASF35
     /tmp/ccxwQD06.s:2992   .debug_str:0000000000000385 .LASF36
     /tmp/ccxwQD06.s:2966   .debug_str:000000000000029f .LASF37
     /tmp/ccxwQD06.s:2934   .debug_str:0000000000000178 .LASF38
     /tmp/ccxwQD06.s:3130   .debug_str:00000000000007ae .LASF39
     /tmp/ccxwQD06.s:2968   .debug_str:00000000000002a7 .LASF40
     /tmp/ccxwQD06.s:3036   .debug_str:00000000000004de .LASF41
     /tmp/ccxwQD06.s:3122   .debug_str:0000000000000773 .LASF42
     /tmp/ccxwQD06.s:2924   .debug_str:0000000000000088 .LASF43
GAS LISTING /tmp/ccxwQD06.s 			page 27


     /tmp/ccxwQD06.s:2976   .debug_str:00000000000002dd .LASF44
     /tmp/ccxwQD06.s:2982   .debug_str:0000000000000313 .LASF45
     /tmp/ccxwQD06.s:3102   .debug_str:00000000000006e1 .LASF46
     /tmp/ccxwQD06.s:2922   .debug_str:0000000000000082 .LASF47
     /tmp/ccxwQD06.s:3134   .debug_str:00000000000007be .LASF48
     /tmp/ccxwQD06.s:3128   .debug_str:00000000000007a3 .LASF49
     /tmp/ccxwQD06.s:3084   .debug_str:0000000000000632 .LASF50
     /tmp/ccxwQD06.s:3006   .debug_str:00000000000003dd .LASF51
     /tmp/ccxwQD06.s:3016   .debug_str:0000000000000418 .LASF52
     /tmp/ccxwQD06.s:2936   .debug_str:000000000000018c .LASF53
     /tmp/ccxwQD06.s:2996   .debug_str:00000000000003aa .LASF54
     /tmp/ccxwQD06.s:3028   .debug_str:00000000000004ac .LASF55
     /tmp/ccxwQD06.s:2988   .debug_str:0000000000000352 .LASF56
     /tmp/ccxwQD06.s:3072   .debug_str:00000000000005e1 .LASF74
     /tmp/ccxwQD06.s:2940   .debug_str:00000000000001a2 .LASF76
     /tmp/ccxwQD06.s:2998   .debug_str:00000000000003c0 .LASF58
     /tmp/ccxwQD06.s:2912   .debug_str:0000000000000055 .LASF114
     /tmp/ccxwQD06.s:2964   .debug_str:0000000000000297 .LASF115
     /tmp/ccxwQD06.s:3110   .debug_str:000000000000071c .LASF59
     /tmp/ccxwQD06.s:3052   .debug_str:0000000000000562 .LASF61
     /tmp/ccxwQD06.s:3050   .debug_str:0000000000000557 .LASF85
     /tmp/ccxwQD06.s:3022   .debug_str:0000000000000477 .LASF90
     /tmp/ccxwQD06.s:3026   .debug_str:00000000000004a0 .LASF60
     /tmp/ccxwQD06.s:3020   .debug_str:000000000000045c .LASF62
     /tmp/ccxwQD06.s:3118   .debug_str:0000000000000757 .LASF63
     /tmp/ccxwQD06.s:3090   .debug_str:0000000000000665 .LASF64
     /tmp/ccxwQD06.s:3066   .debug_str:00000000000005c4 .LASF116
     /tmp/ccxwQD06.s:3082   .debug_str:000000000000062c .LASF65
     /tmp/ccxwQD06.s:3100   .debug_str:00000000000006cd .LASF66
     /tmp/ccxwQD06.s:2918   .debug_str:000000000000006d .LASF67
     /tmp/ccxwQD06.s:2980   .debug_str:00000000000002f8 .LASF68
     /tmp/ccxwQD06.s:3042   .debug_str:0000000000000510 .LASF69
     /tmp/ccxwQD06.s:3004   .debug_str:00000000000003d8 .LASF70
     /tmp/ccxwQD06.s:3040   .debug_str:000000000000050a .LASF71
     /tmp/ccxwQD06.s:3008   .debug_str:00000000000003e8 .LASF72
     /tmp/ccxwQD06.s:3002   .debug_str:00000000000003cf .LASF73
     /tmp/ccxwQD06.s:3120   .debug_str:0000000000000765 .LASF117
     /tmp/ccxwQD06.s:3018   .debug_str:0000000000000430 .LASF118
     /tmp/ccxwQD06.s:2942   .debug_str:00000000000001c7 .LASF75
     /tmp/ccxwQD06.s:2944   .debug_str:00000000000001d7 .LASF77
     /tmp/ccxwQD06.s:3014   .debug_str:000000000000040a .LASF78
     /tmp/ccxwQD06.s:2990   .debug_str:0000000000000368 .LASF79
     /tmp/ccxwQD06.s:2898   .debug_str:0000000000000000 .LASF80
     /tmp/ccxwQD06.s:2972   .debug_str:00000000000002c3 .LASF81
     /tmp/ccxwQD06.s:2956   .debug_str:0000000000000259 .LASF82
     /tmp/ccxwQD06.s:2904   .debug_str:000000000000002b .LASF83
     /tmp/ccxwQD06.s:3056   .debug_str:0000000000000578 .LASF84
     /tmp/ccxwQD06.s:3058   .debug_str:000000000000057d .LASF86
     /tmp/ccxwQD06.s:550    .text:0000000000000360 .LFB37
     /tmp/ccxwQD06.s:632    .text:00000000000003e0 .LFE37
     /tmp/ccxwQD06.s:2914   .debug_str:000000000000005d .LASF87
     /tmp/ccxwQD06.s:2916   .debug_str:0000000000000065 .LASF88
     /tmp/ccxwQD06.s:565    .text:0000000000000378 .LBB40
     /tmp/ccxwQD06.s:577    .text:000000000000037c .LBE40
     /tmp/ccxwQD06.s:604    .text:00000000000003b8 .LBB42
     /tmp/ccxwQD06.s:611    .text:00000000000003bc .LBE42
     /tmp/ccxwQD06.s:2740   .debug_loc:0000000000000000 .LLST12
GAS LISTING /tmp/ccxwQD06.s 			page 28


     /tmp/ccxwQD06.s:585    .text:0000000000000390 .LVL59
     /tmp/ccxwQD06.s:597    .text:00000000000003b4 .LVL60
     /tmp/ccxwQD06.s:617    .text:00000000000003c8 .LVL63
     /tmp/ccxwQD06.s:3132   .debug_str:00000000000007b6 .LASF89
     /tmp/ccxwQD06.s:3076   .debug_str:00000000000005fe .LASF91
     /tmp/ccxwQD06.s:432    .text:0000000000000288 .LFB36
     /tmp/ccxwQD06.s:544    .text:0000000000000360 .LFE36
     /tmp/ccxwQD06.s:2747   .debug_loc:0000000000000023 .LLST7
     /tmp/ccxwQD06.s:478    .text:0000000000000300 .LBB32
     /tmp/ccxwQD06.s:485    .text:0000000000000304 .LBE32
     /tmp/ccxwQD06.s:2761   .debug_loc:000000000000005c .LLST8
     /tmp/ccxwQD06.s:491    .text:0000000000000310 .LBB34
     /tmp/ccxwQD06.s:498    .text:0000000000000314 .LBE34
     /tmp/ccxwQD06.s:2768   .debug_loc:000000000000007f .LLST9
     /tmp/ccxwQD06.s:504    .text:0000000000000320 .LBB36
     /tmp/ccxwQD06.s:511    .text:0000000000000324 .LBE36
     /tmp/ccxwQD06.s:2775   .debug_loc:00000000000000a2 .LLST10
     /tmp/ccxwQD06.s:520    .text:0000000000000338 .LBB38
     /tmp/ccxwQD06.s:529    .text:0000000000000348 .LBE38
     /tmp/ccxwQD06.s:2782   .debug_loc:00000000000000c5 .LLST11
     /tmp/ccxwQD06.s:451    .text:00000000000002b4 .LVL44
     /tmp/ccxwQD06.s:458    .text:00000000000002d0 .LVL45
     /tmp/ccxwQD06.s:465    .text:00000000000002ec .LVL46
     /tmp/ccxwQD06.s:471    .text:00000000000002f8 .LVL47
     /tmp/ccxwQD06.s:518    .text:0000000000000338 .LVL54
     /tmp/ccxwQD06.s:533    .text:0000000000000350 .LVL56
     /tmp/ccxwQD06.s:2970   .debug_str:00000000000002bb .LASF92
     /tmp/ccxwQD06.s:353    .text:0000000000000214 .LFB35
     /tmp/ccxwQD06.s:421    .text:0000000000000288 .LFE35
     /tmp/ccxwQD06.s:368    .text:0000000000000228 .LBB29
     /tmp/ccxwQD06.s:387    .text:000000000000024c .LBE29
     /tmp/ccxwQD06.s:2790   .debug_loc:00000000000000e9 .LLST5
     /tmp/ccxwQD06.s:380    .text:0000000000000244 .LVL35
     /tmp/ccxwQD06.s:394    .text:000000000000025c .LBB30
     /tmp/ccxwQD06.s:403    .text:000000000000026c .LBE30
     /tmp/ccxwQD06.s:2806   .debug_loc:0000000000000133 .LLST6
     /tmp/ccxwQD06.s:392    .text:000000000000025c .LVL38
     /tmp/ccxwQD06.s:407    .text:0000000000000274 .LVL40
     /tmp/ccxwQD06.s:3114   .debug_str:000000000000073f .LASF93
     /tmp/ccxwQD06.s:274    .text:00000000000001a0 .LFB34
     /tmp/ccxwQD06.s:342    .text:0000000000000214 .LFE34
     /tmp/ccxwQD06.s:289    .text:00000000000001b4 .LBB26
     /tmp/ccxwQD06.s:308    .text:00000000000001d8 .LBE26
     /tmp/ccxwQD06.s:2814   .debug_loc:0000000000000157 .LLST3
     /tmp/ccxwQD06.s:301    .text:00000000000001d0 .LVL26
     /tmp/ccxwQD06.s:315    .text:00000000000001e8 .LBB27
     /tmp/ccxwQD06.s:324    .text:00000000000001f8 .LBE27
     /tmp/ccxwQD06.s:2830   .debug_loc:00000000000001a1 .LLST4
     /tmp/ccxwQD06.s:313    .text:00000000000001e8 .LVL29
     /tmp/ccxwQD06.s:328    .text:0000000000000200 .LVL31
     /tmp/ccxwQD06.s:3030   .debug_str:00000000000004b6 .LASF94
     /tmp/ccxwQD06.s:194    .text:000000000000012c .LFB33
     /tmp/ccxwQD06.s:263    .text:00000000000001a0 .LFE33
     /tmp/ccxwQD06.s:209    .text:0000000000000140 .LBB23
     /tmp/ccxwQD06.s:228    .text:0000000000000164 .LBE23
     /tmp/ccxwQD06.s:2838   .debug_loc:00000000000001c5 .LLST1
     /tmp/ccxwQD06.s:221    .text:000000000000015c .LVL17
GAS LISTING /tmp/ccxwQD06.s 			page 29


     /tmp/ccxwQD06.s:235    .text:0000000000000174 .LBB24
     /tmp/ccxwQD06.s:245    .text:0000000000000184 .LBE24
     /tmp/ccxwQD06.s:2854   .debug_loc:000000000000020f .LLST2
     /tmp/ccxwQD06.s:233    .text:0000000000000174 .LVL20
     /tmp/ccxwQD06.s:249    .text:000000000000018c .LVL22
     /tmp/ccxwQD06.s:2920   .debug_str:0000000000000079 .LASF95
     /tmp/ccxwQD06.s:3010   .debug_str:00000000000003f0 .LASF96
     /tmp/ccxwQD06.s:39     .text:0000000000000000 .LFB32
     /tmp/ccxwQD06.s:180    .text:000000000000012c .LFE32
     /tmp/ccxwQD06.s:3074   .debug_str:00000000000005f9 .LASF97
     /tmp/ccxwQD06.s:2862   .debug_loc:0000000000000233 .LLST0
     /tmp/ccxwQD06.s:59     .text:0000000000000028 .LVL0
     /tmp/ccxwQD06.s:63     .text:0000000000000030 .LVL1
     /tmp/ccxwQD06.s:71     .text:0000000000000040 .LVL3
     /tmp/ccxwQD06.s:99     .text:0000000000000080 .LVL5
     /tmp/ccxwQD06.s:104    .text:0000000000000090 .LVL6
     /tmp/ccxwQD06.s:114    .text:00000000000000a4 .LVL8
     /tmp/ccxwQD06.s:138    .text:00000000000000cc .LVL9
     /tmp/ccxwQD06.s:150    .text:00000000000000e8 .LVL10
     /tmp/ccxwQD06.s:155    .text:00000000000000f8 .LVL11
     /tmp/ccxwQD06.s:163    .text:0000000000000104 .LVL12
     /tmp/ccxwQD06.s:168    .text:0000000000000114 .LVL13
     /tmp/ccxwQD06.s:177    .text:0000000000000128 .LVL14
     /tmp/ccxwQD06.s:3124   .debug_str:0000000000000786 .LASF98
     /tmp/ccxwQD06.s:3054   .debug_str:0000000000000572 .LASF99
     /tmp/ccxwQD06.s:3038   .debug_str:00000000000004e5 .LASF100
     /tmp/ccxwQD06.s:2950   .debug_str:0000000000000220 .LASF102
     /tmp/ccxwQD06.s:2974   .debug_str:00000000000002c8 .LASF101
     /tmp/ccxwQD06.s:2954   .debug_str:0000000000000246 .LASF103
     /tmp/ccxwQD06.s:2910   .debug_str:0000000000000049 .LASF104
     /tmp/ccxwQD06.s:3086   .debug_str:000000000000064a .LASF105
     /tmp/ccxwQD06.s:3070   .debug_str:00000000000005dc .LASF106
     /tmp/ccxwQD06.s:3112   .debug_str:0000000000000725 .LASF107
     /tmp/ccxwQD06.s:3060   .debug_str:0000000000000582 .LASF108
     /tmp/ccxwQD06.s:2952   .debug_str:000000000000022e .LASF109
     /tmp/ccxwQD06.s:3108   .debug_str:0000000000000709 .LASF110
     /tmp/ccxwQD06.s:603    .text:00000000000003b8 .LVL61
     /tmp/ccxwQD06.s:609    .text:00000000000003bc .LVL62
     /tmp/ccxwQD06.s:435    .text:0000000000000288 .LVL42
     /tmp/ccxwQD06.s:449    .text:00000000000002ac .LVL43
     /tmp/ccxwQD06.s:477    .text:0000000000000300 .LVL48
     /tmp/ccxwQD06.s:483    .text:0000000000000304 .LVL49
     /tmp/ccxwQD06.s:490    .text:0000000000000310 .LVL50
     /tmp/ccxwQD06.s:496    .text:0000000000000314 .LVL51
     /tmp/ccxwQD06.s:503    .text:0000000000000320 .LVL52
     /tmp/ccxwQD06.s:509    .text:0000000000000324 .LVL53
     /tmp/ccxwQD06.s:527    .text:0000000000000348 .LVL55
     /tmp/ccxwQD06.s:367    .text:0000000000000228 .LVL33
     /tmp/ccxwQD06.s:371    .text:000000000000022c .LVL34
     /tmp/ccxwQD06.s:383    .text:0000000000000248 .LVL36
     /tmp/ccxwQD06.s:385    .text:000000000000024c .LVL37
     /tmp/ccxwQD06.s:416    .text:0000000000000280 .LVL41
     /tmp/ccxwQD06.s:401    .text:000000000000026c .LVL39
     /tmp/ccxwQD06.s:288    .text:00000000000001b4 .LVL24
     /tmp/ccxwQD06.s:292    .text:00000000000001b8 .LVL25
     /tmp/ccxwQD06.s:304    .text:00000000000001d4 .LVL27
     /tmp/ccxwQD06.s:306    .text:00000000000001d8 .LVL28
GAS LISTING /tmp/ccxwQD06.s 			page 30


     /tmp/ccxwQD06.s:337    .text:000000000000020c .LVL32
     /tmp/ccxwQD06.s:322    .text:00000000000001f8 .LVL30
     /tmp/ccxwQD06.s:208    .text:0000000000000140 .LVL15
     /tmp/ccxwQD06.s:212    .text:0000000000000144 .LVL16
     /tmp/ccxwQD06.s:224    .text:0000000000000160 .LVL18
     /tmp/ccxwQD06.s:226    .text:0000000000000164 .LVL19
     /tmp/ccxwQD06.s:258    .text:0000000000000198 .LVL23
     /tmp/ccxwQD06.s:243    .text:0000000000000184 .LVL21
     /tmp/ccxwQD06.s:67     .text:0000000000000038 .LVL2
     /tmp/ccxwQD06.s:82     .text:0000000000000050 .LVL4
     /tmp/ccxwQD06.s:107    .text:0000000000000094 .LVL7
     /tmp/ccxwQD06.s:659    .debug_info:0000000000000000 .Ldebug_info0

UNDEFINED SYMBOLS
_Z11printStringPKc
_Z4getcv
_Z20Threads_CPP_API_testv
_Z18Threads_C_API_testv
_ZN7_thread7runningE
_Z15thread_dispatchv
_Z13thread_createPP7_threadPFvPvES2_
_ZN5Riscv16interruptRoutineEv
