GAS LISTING /tmp/ccVaVtHP.s 			page 1


   1              		.file	"main.cpp"
   2              		.option nopic
   3              		.option norelax
   4              		.attribute arch, "rv64i2p0_m2p0_a2p0"
   5              		.attribute unaligned_access, 0
   6              		.attribute stack_align, 16
   7              		.text
   8              	.Ltext0:
   9              		.section	.rodata.str1.8,"aMS",@progbits,1
  10              		.align	3
  11              	.LC0:
  12 0000 410A00   		.string	"A\n"
  13 0003 00000000 		.align	3
  13      00
  14              	.LC1:
  15 0008 0A00     		.string	"\n"
  16              		.text
  17              		.align	2
  18              		.globl	_Z2faPv
  20              	_Z2faPv:
  21              	.LFB32:
  22              		.file 1 "src/main.cpp"
   1:src/main.cpp  **** #include "../h/riscv.hpp"
   2:src/main.cpp  **** #include "../h/_thread.hpp"
   3:src/main.cpp  **** #include "../h/syscall_c.hpp"
   4:src/main.cpp  **** #include "../h/print.hpp"
   5:src/main.cpp  **** 
   6:src/main.cpp  **** thread_t nitA;
   7:src/main.cpp  **** thread_t nitB;
   8:src/main.cpp  **** thread_t nitC;
   9:src/main.cpp  **** 
  10:src/main.cpp  **** void fa(void*){
  23              		.loc 1 10 15
  24              		.cfi_startproc
  25 0000 130101FE 		addi	sp,sp,-32
  26              		.cfi_def_cfa_offset 32
  27 0004 233C1100 		sd	ra,24(sp)
  28 0008 23388100 		sd	s0,16(sp)
  29 000c 23349100 		sd	s1,8(sp)
  30              		.cfi_offset 1, -8
  31              		.cfi_offset 8, -16
  32              		.cfi_offset 9, -24
  33 0010 13040102 		addi	s0,sp,32
  34              		.cfi_def_cfa 8, 0
  11:src/main.cpp  ****     //running je nitA
  12:src/main.cpp  ****     //threadJoin(nitB);
  13:src/main.cpp  ****     for(int i=0;i<10;i++){
  35              		.loc 1 13 5
  36              	.LVL0:
  37              	.LBB23:
  38              		.loc 1 13 13 is_stmt 0
  39 0014 93040000 		li	s1,0
  40              	.LVL1:
  41              	.L3:
  42              		.loc 1 13 18 is_stmt 1 discriminator 3
  43 0018 93079000 		li	a5,9
  44 001c 63CE9700 		bgt	s1,a5,.L2
GAS LISTING /tmp/ccVaVtHP.s 			page 2


  14:src/main.cpp  ****         printString("A\n");
  45              		.loc 1 14 9 discriminator 2
  46              		.loc 1 14 20 is_stmt 0 discriminator 2
  47 0020 17050000 		lla	a0,.LC0
  47      13050500 
  48 0028 97000000 		call	_Z11printStringPKc
  48      E7800000 
  49              	.LVL2:
  13:src/main.cpp  ****         printString("A\n");
  50              		.loc 1 13 5 is_stmt 1 discriminator 2
  51 0030 9B841400 		addiw	s1,s1,1
  52              	.LVL3:
  53 0034 6FF05FFE 		j	.L3
  54              	.LVL4:
  55              	.L2:
  56              	.LBE23:
  15:src/main.cpp  **** 
  16:src/main.cpp  ****     }
  17:src/main.cpp  ****     printString("\n");
  57              		.loc 1 17 5
  58              		.loc 1 17 16 is_stmt 0
  59 0038 17050000 		lla	a0,.LC1
  59      13050500 
  60 0040 97000000 		call	_Z11printStringPKc
  60      E7800000 
  61              	.LVL5:
  18:src/main.cpp  ****     _thread::running->setFinished(true);
  62              		.loc 1 18 5 is_stmt 1
  63              	.LBB24:
  64              	.LBB25:
  65              		.file 2 "src/../h/_thread.hpp"
   1:src/../h/_thread.hpp **** //
   2:src/../h/_thread.hpp **** // Created by basara on 19.6.24..
   3:src/../h/_thread.hpp **** //
   4:src/../h/_thread.hpp **** 
   5:src/../h/_thread.hpp **** #ifndef PROJECT_BASE_HPP
   6:src/../h/_thread.hpp **** #define PROJECT_BASE_HPP
   7:src/../h/_thread.hpp **** 
   8:src/../h/_thread.hpp **** #include "../lib/hw.h"
   9:src/../h/_thread.hpp **** #include "scheduler.hpp"
  10:src/../h/_thread.hpp **** 
  11:src/../h/_thread.hpp **** typedef _thread* thread_t;
  12:src/../h/_thread.hpp **** class _thread{
  13:src/../h/_thread.hpp **** public:
  14:src/../h/_thread.hpp ****     static _thread *running;
  15:src/../h/_thread.hpp **** 
  16:src/../h/_thread.hpp ****     ~_thread() {delete[] stack;}
  17:src/../h/_thread.hpp **** 
  18:src/../h/_thread.hpp ****     bool isFinished() const { return finished; }
  19:src/../h/_thread.hpp **** 
  20:src/../h/_thread.hpp ****     void setFinished(bool fin) { _thread::finished = fin; }
  66              		.loc 2 20 34
  67              		.loc 2 20 52 is_stmt 0
  68 0048 97070000 		ld	a5,_ZN7_thread7runningE
  68      83B70700 
  69 0050 13071000 		li	a4,1
  70 0054 2380E702 		sb	a4,32(a5)
GAS LISTING /tmp/ccVaVtHP.s 			page 3


  71              	.LVL6:
  72              	.LBE25:
  73              	.LBE24:
  19:src/main.cpp  ****     thread_dispatch();
  74              		.loc 1 19 5 is_stmt 1
  75              		.loc 1 19 20 is_stmt 0
  76 0058 97000000 		call	_Z15thread_dispatchv
  76      E7800000 
  77              	.LVL7:
  20:src/main.cpp  **** }
  78              		.loc 1 20 1
  79 0060 83308101 		ld	ra,24(sp)
  80              		.cfi_restore 1
  81 0064 03340101 		ld	s0,16(sp)
  82              		.cfi_restore 8
  83              		.cfi_def_cfa 2, 32
  84 0068 83348100 		ld	s1,8(sp)
  85              		.cfi_restore 9
  86              	.LVL8:
  87 006c 13010102 		addi	sp,sp,32
  88              		.cfi_def_cfa_offset 0
  89 0070 67800000 		jr	ra
  90              		.cfi_endproc
  91              	.LFE32:
  93              		.section	.rodata.str1.8
  94 000a 00000000 		.align	3
  94      0000
  95              	.LC2:
  96 0010 420A00   		.string	"B\n"
  97              		.text
  98              		.align	2
  99              		.globl	_Z2fbPv
 101              	_Z2fbPv:
 102              	.LFB33:
  21:src/main.cpp  **** 
  22:src/main.cpp  **** void fb(void*){
 103              		.loc 1 22 15 is_stmt 1
 104              		.cfi_startproc
 105 0074 130101FE 		addi	sp,sp,-32
 106              		.cfi_def_cfa_offset 32
 107 0078 233C1100 		sd	ra,24(sp)
 108 007c 23388100 		sd	s0,16(sp)
 109 0080 23349100 		sd	s1,8(sp)
 110              		.cfi_offset 1, -8
 111              		.cfi_offset 8, -16
 112              		.cfi_offset 9, -24
 113 0084 13040102 		addi	s0,sp,32
 114              		.cfi_def_cfa 8, 0
  23:src/main.cpp  ****     //threadJoin(nitC);
  24:src/main.cpp  ****     for(int i=0;i<10;i++){
 115              		.loc 1 24 5
 116              	.LVL9:
 117              	.LBB26:
 118              		.loc 1 24 13 is_stmt 0
 119 0088 93040000 		li	s1,0
 120              	.LVL10:
 121              	.L7:
GAS LISTING /tmp/ccVaVtHP.s 			page 4


 122              		.loc 1 24 18 is_stmt 1 discriminator 3
 123 008c 93079000 		li	a5,9
 124 0090 63CE9700 		bgt	s1,a5,.L6
  25:src/main.cpp  ****         printString("B\n");
 125              		.loc 1 25 9 discriminator 2
 126              		.loc 1 25 20 is_stmt 0 discriminator 2
 127 0094 17050000 		lla	a0,.LC2
 127      13050500 
 128 009c 97000000 		call	_Z11printStringPKc
 128      E7800000 
 129              	.LVL11:
  24:src/main.cpp  ****         printString("B\n");
 130              		.loc 1 24 5 is_stmt 1 discriminator 2
 131 00a4 9B841400 		addiw	s1,s1,1
 132              	.LVL12:
 133 00a8 6FF05FFE 		j	.L7
 134              	.LVL13:
 135              	.L6:
 136              	.LBE26:
  26:src/main.cpp  **** 
  27:src/main.cpp  ****     }
  28:src/main.cpp  ****     printString("\n");
 137              		.loc 1 28 5
 138              		.loc 1 28 16 is_stmt 0
 139 00ac 17050000 		lla	a0,.LC1
 139      13050500 
 140 00b4 97000000 		call	_Z11printStringPKc
 140      E7800000 
 141              	.LVL14:
  29:src/main.cpp  ****     _thread::running->setFinished(true);
 142              		.loc 1 29 5 is_stmt 1
 143              	.LBB27:
 144              	.LBB28:
 145              		.loc 2 20 34
 146              		.loc 2 20 52 is_stmt 0
 147 00bc 97070000 		ld	a5,_ZN7_thread7runningE
 147      83B70700 
 148 00c4 13071000 		li	a4,1
 149 00c8 2380E702 		sb	a4,32(a5)
 150              	.LVL15:
 151              	.LBE28:
 152              	.LBE27:
  30:src/main.cpp  ****     thread_dispatch();
 153              		.loc 1 30 5 is_stmt 1
 154              		.loc 1 30 20 is_stmt 0
 155 00cc 97000000 		call	_Z15thread_dispatchv
 155      E7800000 
 156              	.LVL16:
  31:src/main.cpp  **** }
 157              		.loc 1 31 1
 158 00d4 83308101 		ld	ra,24(sp)
 159              		.cfi_restore 1
 160 00d8 03340101 		ld	s0,16(sp)
 161              		.cfi_restore 8
 162              		.cfi_def_cfa 2, 32
 163 00dc 83348100 		ld	s1,8(sp)
 164              		.cfi_restore 9
GAS LISTING /tmp/ccVaVtHP.s 			page 5


 165              	.LVL17:
 166 00e0 13010102 		addi	sp,sp,32
 167              		.cfi_def_cfa_offset 0
 168 00e4 67800000 		jr	ra
 169              		.cfi_endproc
 170              	.LFE33:
 172              		.section	.rodata.str1.8
 173 0013 00000000 		.align	3
 173      00
 174              	.LC3:
 175 0018 430A00   		.string	"C\n"
 176              		.text
 177              		.align	2
 178              		.globl	_Z2fcPv
 180              	_Z2fcPv:
 181              	.LFB34:
  32:src/main.cpp  **** 
  33:src/main.cpp  **** void fc(void*){
 182              		.loc 1 33 15 is_stmt 1
 183              		.cfi_startproc
 184 00e8 130101FE 		addi	sp,sp,-32
 185              		.cfi_def_cfa_offset 32
 186 00ec 233C1100 		sd	ra,24(sp)
 187 00f0 23388100 		sd	s0,16(sp)
 188 00f4 23349100 		sd	s1,8(sp)
 189              		.cfi_offset 1, -8
 190              		.cfi_offset 8, -16
 191              		.cfi_offset 9, -24
 192 00f8 13040102 		addi	s0,sp,32
 193              		.cfi_def_cfa 8, 0
  34:src/main.cpp  ****     for(int i=0;i<10;i++){
 194              		.loc 1 34 5
 195              	.LVL18:
 196              	.LBB29:
 197              		.loc 1 34 13 is_stmt 0
 198 00fc 93040000 		li	s1,0
 199              	.LVL19:
 200              	.L11:
 201              		.loc 1 34 18 is_stmt 1 discriminator 3
 202 0100 93079000 		li	a5,9
 203 0104 63CE9700 		bgt	s1,a5,.L10
  35:src/main.cpp  ****         printString("C\n");
 204              		.loc 1 35 9 discriminator 2
 205              		.loc 1 35 20 is_stmt 0 discriminator 2
 206 0108 17050000 		lla	a0,.LC3
 206      13050500 
 207 0110 97000000 		call	_Z11printStringPKc
 207      E7800000 
 208              	.LVL20:
  34:src/main.cpp  ****     for(int i=0;i<10;i++){
 209              		.loc 1 34 5 is_stmt 1 discriminator 2
 210 0118 9B841400 		addiw	s1,s1,1
 211              	.LVL21:
 212 011c 6FF05FFE 		j	.L11
 213              	.LVL22:
 214              	.L10:
 215              	.LBE29:
GAS LISTING /tmp/ccVaVtHP.s 			page 6


  36:src/main.cpp  **** 
  37:src/main.cpp  ****     }
  38:src/main.cpp  ****     printString("\n");
 216              		.loc 1 38 5
 217              		.loc 1 38 16 is_stmt 0
 218 0120 17050000 		lla	a0,.LC1
 218      13050500 
 219 0128 97000000 		call	_Z11printStringPKc
 219      E7800000 
 220              	.LVL23:
  39:src/main.cpp  **** 
  40:src/main.cpp  ****     _thread::running->setFinished(true);
 221              		.loc 1 40 5 is_stmt 1
 222              	.LBB30:
 223              	.LBB31:
 224              		.loc 2 20 34
 225              		.loc 2 20 52 is_stmt 0
 226 0130 97070000 		ld	a5,_ZN7_thread7runningE
 226      83B70700 
 227 0138 13071000 		li	a4,1
 228 013c 2380E702 		sb	a4,32(a5)
 229              	.LVL24:
 230              	.LBE31:
 231              	.LBE30:
  41:src/main.cpp  ****     thread_dispatch();
 232              		.loc 1 41 5 is_stmt 1
 233              		.loc 1 41 20 is_stmt 0
 234 0140 97000000 		call	_Z15thread_dispatchv
 234      E7800000 
 235              	.LVL25:
  42:src/main.cpp  **** }
 236              		.loc 1 42 1
 237 0148 83308101 		ld	ra,24(sp)
 238              		.cfi_restore 1
 239 014c 03340101 		ld	s0,16(sp)
 240              		.cfi_restore 8
 241              		.cfi_def_cfa 2, 32
 242 0150 83348100 		ld	s1,8(sp)
 243              		.cfi_restore 9
 244              	.LVL26:
 245 0154 13010102 		addi	sp,sp,32
 246              		.cfi_def_cfa_offset 0
 247 0158 67800000 		jr	ra
 248              		.cfi_endproc
 249              	.LFE34:
 251              		.section	.rodata.str1.8
 252 001b 00000000 		.align	3
 252      00
 253              	.LC4:
 254 0020 5A415652 		.string	"ZAVRSENA JE WRAPPER FJA\n"
 254      53454E41 
 254      204A4520 
 254      57524150 
 254      50455220 
 255              		.text
 256              		.align	2
 257              		.globl	_Z7wrapperPv
GAS LISTING /tmp/ccVaVtHP.s 			page 7


 259              	_Z7wrapperPv:
 260              	.LFB35:
  43:src/main.cpp  **** 
  44:src/main.cpp  **** void wrapper(void* arg){
 261              		.loc 1 44 24 is_stmt 1
 262              		.cfi_startproc
 263              	.LVL27:
 264 015c 130101FF 		addi	sp,sp,-16
 265              		.cfi_def_cfa_offset 16
 266 0160 23341100 		sd	ra,8(sp)
 267 0164 23308100 		sd	s0,0(sp)
 268              		.cfi_offset 1, -8
 269              		.cfi_offset 8, -16
 270 0168 13040101 		addi	s0,sp,16
 271              		.cfi_def_cfa 8, 0
  45:src/main.cpp  ****     thread_create(&nitA, fa, nullptr);
 272              		.loc 1 45 5
 273              		.loc 1 45 18 is_stmt 0
 274 016c 13060000 		li	a2,0
 275 0170 97050000 		lla	a1,_Z2faPv
 275      93850500 
 276 0178 17050000 		lla	a0,nitA
 276      13050500 
 277              	.LVL28:
 278 0180 97000000 		call	_Z13thread_createPP7_threadPFvPvES2_
 278      E7800000 
 279              	.LVL29:
  46:src/main.cpp  ****     thread_create(&nitB, fb, nullptr);
 280              		.loc 1 46 5 is_stmt 1
 281              		.loc 1 46 18 is_stmt 0
 282 0188 13060000 		li	a2,0
 283 018c 97050000 		lla	a1,_Z2fbPv
 283      93850500 
 284 0194 17050000 		lla	a0,nitB
 284      13050500 
 285 019c 97000000 		call	_Z13thread_createPP7_threadPFvPvES2_
 285      E7800000 
 286              	.LVL30:
  47:src/main.cpp  ****     thread_create(&nitC, fc, nullptr);
 287              		.loc 1 47 5 is_stmt 1
 288              		.loc 1 47 18 is_stmt 0
 289 01a4 13060000 		li	a2,0
 290 01a8 97050000 		lla	a1,_Z2fcPv
 290      93850500 
 291 01b0 17050000 		lla	a0,nitC
 291      13050500 
 292 01b8 97000000 		call	_Z13thread_createPP7_threadPFvPvES2_
 292      E7800000 
 293              	.LVL31:
 294 01c0 6F00C000 		j	.L16
 295              	.L14:
  48:src/main.cpp  **** 
  49:src/main.cpp  ****     while(!nitA->isFinished() || !nitB->isFinished() || !nitC->isFinished()){
  50:src/main.cpp  ****         thread_dispatch();
 296              		.loc 1 50 9 is_stmt 1 discriminator 5
 297              		.loc 1 50 24 is_stmt 0 discriminator 5
 298 01c4 97000000 		call	_Z15thread_dispatchv
GAS LISTING /tmp/ccVaVtHP.s 			page 8


 298      E7800000 
 299              	.LVL32:
 300              	.L16:
  49:src/main.cpp  ****         thread_dispatch();
 301              		.loc 1 49 5 is_stmt 1
  49:src/main.cpp  ****         thread_dispatch();
 302              		.loc 1 49 54
  49:src/main.cpp  ****         thread_dispatch();
 303              		.loc 1 49 28 is_stmt 0
 304 01cc 97070000 		ld	a5,nitA
 304      83B70700 
 305              	.LVL33:
 306              	.LBB32:
 307              	.LBB33:
  18:src/../h/_thread.hpp **** 
 308              		.loc 2 18 31 is_stmt 1
  18:src/../h/_thread.hpp **** 
 309              		.loc 2 18 38 is_stmt 0
 310 01d4 83C70702 		lbu	a5,32(a5)
 311              	.LVL34:
 312              	.LBE33:
 313              	.LBE32:
  49:src/main.cpp  ****         thread_dispatch();
 314              		.loc 1 49 54
 315 01d8 E38607FE 		beqz	a5,.L14
  49:src/main.cpp  ****         thread_dispatch();
 316              		.loc 1 49 51 discriminator 2
 317 01dc 97070000 		ld	a5,nitB
 317      83B70700 
 318              	.LVL35:
 319              	.LBB34:
 320              	.LBB35:
  18:src/../h/_thread.hpp **** 
 321              		.loc 2 18 31 is_stmt 1 discriminator 2
  18:src/../h/_thread.hpp **** 
 322              		.loc 2 18 38 is_stmt 0 discriminator 2
 323 01e4 83C70702 		lbu	a5,32(a5)
 324              	.LVL36:
 325              	.LBE35:
 326              	.LBE34:
  49:src/main.cpp  ****         thread_dispatch();
 327              		.loc 1 49 31 discriminator 2
 328 01e8 E38E07FC 		beqz	a5,.L14
  49:src/main.cpp  ****         thread_dispatch();
 329              		.loc 1 49 74 discriminator 4
 330 01ec 97070000 		ld	a5,nitC
 330      83B70700 
 331              	.LVL37:
 332              	.LBB36:
 333              	.LBB37:
  18:src/../h/_thread.hpp **** 
 334              		.loc 2 18 31 is_stmt 1 discriminator 4
  18:src/../h/_thread.hpp **** 
 335              		.loc 2 18 38 is_stmt 0 discriminator 4
 336 01f4 83C70702 		lbu	a5,32(a5)
 337              	.LVL38:
 338              	.LBE37:
GAS LISTING /tmp/ccVaVtHP.s 			page 9


 339              	.LBE36:
  49:src/main.cpp  ****         thread_dispatch();
 340              		.loc 1 49 54 discriminator 4
 341 01f8 E38607FC 		beqz	a5,.L14
  51:src/main.cpp  ****     }
  52:src/main.cpp  **** 
  53:src/main.cpp  ****     printString("ZAVRSENA JE WRAPPER FJA\n");
 342              		.loc 1 53 5 is_stmt 1
 343              		.loc 1 53 16 is_stmt 0
 344 01fc 17050000 		lla	a0,.LC4
 344      13050500 
 345 0204 97000000 		call	_Z11printStringPKc
 345      E7800000 
 346              	.LVL39:
  54:src/main.cpp  ****     _thread::running->setFinished(true);
 347              		.loc 1 54 5 is_stmt 1
 348              	.LBB38:
 349              	.LBB39:
 350              		.loc 2 20 34
 351              		.loc 2 20 52 is_stmt 0
 352 020c 97070000 		ld	a5,_ZN7_thread7runningE
 352      83B70700 
 353 0214 13071000 		li	a4,1
 354 0218 2380E702 		sb	a4,32(a5)
 355              	.LVL40:
 356              	.LBE39:
 357              	.LBE38:
  55:src/main.cpp  ****     thread_dispatch();
 358              		.loc 1 55 5 is_stmt 1
 359              		.loc 1 55 20 is_stmt 0
 360 021c 97000000 		call	_Z15thread_dispatchv
 360      E7800000 
 361              	.LVL41:
  56:src/main.cpp  **** }
 362              		.loc 1 56 1
 363 0224 83308100 		ld	ra,8(sp)
 364              		.cfi_restore 1
 365 0228 03340100 		ld	s0,0(sp)
 366              		.cfi_restore 8
 367              		.cfi_def_cfa 2, 16
 368 022c 13010101 		addi	sp,sp,16
 369              		.cfi_def_cfa_offset 0
 370 0230 67800000 		jr	ra
 371              		.cfi_endproc
 372              	.LFE35:
 374              		.align	2
 375              		.globl	main
 377              	main:
 378              	.LFB36:
  57:src/main.cpp  **** 
  58:src/main.cpp  **** int main()
  59:src/main.cpp  **** {
 379              		.loc 1 59 1 is_stmt 1
 380              		.cfi_startproc
 381 0234 130101FE 		addi	sp,sp,-32
 382              		.cfi_def_cfa_offset 32
 383 0238 233C1100 		sd	ra,24(sp)
GAS LISTING /tmp/ccVaVtHP.s 			page 10


 384 023c 23388100 		sd	s0,16(sp)
 385              		.cfi_offset 1, -8
 386              		.cfi_offset 8, -16
 387 0240 13040102 		addi	s0,sp,32
 388              		.cfi_def_cfa 8, 0
  60:src/main.cpp  ****     Riscv::w_stvec((uint64) &Riscv::interruptRoutine);    //upisuje adresu prekidne rutine
 389              		.loc 1 60 5
 390              		.loc 1 60 19 is_stmt 0
 391 0244 97070000 		lla	a5,_ZN5Riscv16interruptRoutineEv
 391      93870700 
 392              	.LVL42:
 393              	.LBB40:
 394              	.LBB41:
 395              		.file 3 "src/../h/riscv.hpp"
   1:src/../h/riscv.hpp **** //
   2:src/../h/riscv.hpp **** // Created by marko on 20.4.22..
   3:src/../h/riscv.hpp **** //
   4:src/../h/riscv.hpp **** 
   5:src/../h/riscv.hpp **** #ifndef OS_PROJEKAT_RISCV_HPP
   6:src/../h/riscv.hpp **** #define OS_PROJEKAT_RISCV_HPP
   7:src/../h/riscv.hpp **** 
   8:src/../h/riscv.hpp **** 
   9:src/../h/riscv.hpp **** #include "../lib/hw.h"
  10:src/../h/riscv.hpp **** 
  11:src/../h/riscv.hpp **** 
  12:src/../h/riscv.hpp **** class Riscv
  13:src/../h/riscv.hpp **** {
  14:src/../h/riscv.hpp **** public:
  15:src/../h/riscv.hpp **** 
  16:src/../h/riscv.hpp ****     //preko name manlinga uazi se u definiciju koja je napisana u fajlu preko asemblera
  17:src/../h/riscv.hpp ****     static void interruptRoutine();
  18:src/../h/riscv.hpp **** 
  19:src/../h/riscv.hpp ****     // pop sstatus.spp and sstatus.spie bits (has to be a non inline function)
  20:src/../h/riscv.hpp ****     static void popSppSpie();
  21:src/../h/riscv.hpp **** 
  22:src/../h/riscv.hpp ****     // push x3..x31 registers onto stack
  23:src/../h/riscv.hpp ****     static void pushRegisters();
  24:src/../h/riscv.hpp **** 
  25:src/../h/riscv.hpp ****     // pop x3..x31 registers onto stack
  26:src/../h/riscv.hpp ****     static void popRegisters();
  27:src/../h/riscv.hpp **** 
  28:src/../h/riscv.hpp ****     // read register scause
  29:src/../h/riscv.hpp ****     static uint64 r_scause();
  30:src/../h/riscv.hpp **** 
  31:src/../h/riscv.hpp ****     // write register scause
  32:src/../h/riscv.hpp ****     static void w_scause(uint64 scause);
  33:src/../h/riscv.hpp **** 
  34:src/../h/riscv.hpp ****     // read register sepc
  35:src/../h/riscv.hpp ****     static uint64 r_sepc();
  36:src/../h/riscv.hpp **** 
  37:src/../h/riscv.hpp ****     // write register sepc
  38:src/../h/riscv.hpp ****     static void w_sepc(uint64 sepc);
  39:src/../h/riscv.hpp **** 
  40:src/../h/riscv.hpp ****     // read register stvec
  41:src/../h/riscv.hpp ****     static uint64 r_stvec();
  42:src/../h/riscv.hpp **** 
  43:src/../h/riscv.hpp ****     // write register stvec
GAS LISTING /tmp/ccVaVtHP.s 			page 11


  44:src/../h/riscv.hpp ****     static void w_stvec(uint64 stvec);
  45:src/../h/riscv.hpp **** 
  46:src/../h/riscv.hpp ****     // read register stval
  47:src/../h/riscv.hpp ****     static uint64 r_stval();
  48:src/../h/riscv.hpp **** 
  49:src/../h/riscv.hpp ****     // write register stval
  50:src/../h/riscv.hpp ****     static void w_stval(uint64 stval);
  51:src/../h/riscv.hpp **** 
  52:src/../h/riscv.hpp ****     enum BitMaskSip
  53:src/../h/riscv.hpp ****     {
  54:src/../h/riscv.hpp ****         SIP_SSIP = (1 << 1),
  55:src/../h/riscv.hpp ****         SIP_STIP = (1 << 5),
  56:src/../h/riscv.hpp ****         SIP_SEIP = (1 << 9),
  57:src/../h/riscv.hpp ****     };
  58:src/../h/riscv.hpp **** 
  59:src/../h/riscv.hpp ****     // mask set register sip
  60:src/../h/riscv.hpp ****     static void ms_sip(uint64 mask);
  61:src/../h/riscv.hpp **** 
  62:src/../h/riscv.hpp ****     // mask clear register sip
  63:src/../h/riscv.hpp ****     static void mc_sip(uint64 mask);
  64:src/../h/riscv.hpp **** 
  65:src/../h/riscv.hpp ****     // read register sip
  66:src/../h/riscv.hpp ****     static uint64 r_sip();
  67:src/../h/riscv.hpp **** 
  68:src/../h/riscv.hpp ****     // write register sip
  69:src/../h/riscv.hpp ****     static void w_sip(uint64 sip);
  70:src/../h/riscv.hpp **** 
  71:src/../h/riscv.hpp ****     enum BitMaskSstatus
  72:src/../h/riscv.hpp ****     {
  73:src/../h/riscv.hpp ****         SSTATUS_SIE = (1 << 1),
  74:src/../h/riscv.hpp ****         SSTATUS_SPIE = (1 << 5),
  75:src/../h/riscv.hpp ****         SSTATUS_SPP = (1 << 8),
  76:src/../h/riscv.hpp ****     };
  77:src/../h/riscv.hpp **** 
  78:src/../h/riscv.hpp ****     // mask set register sstatus
  79:src/../h/riscv.hpp ****     static void ms_sstatus(uint64 mask);
  80:src/../h/riscv.hpp **** 
  81:src/../h/riscv.hpp ****     // mask clear register sstatus
  82:src/../h/riscv.hpp ****     static void mc_sstatus(uint64 mask);
  83:src/../h/riscv.hpp **** 
  84:src/../h/riscv.hpp ****     // read register sstatus
  85:src/../h/riscv.hpp ****     static uint64 r_sstatus();
  86:src/../h/riscv.hpp **** 
  87:src/../h/riscv.hpp ****     // write register sstatus
  88:src/../h/riscv.hpp ****     static void w_sstatus(uint64 sstatus);
  89:src/../h/riscv.hpp **** 
  90:src/../h/riscv.hpp **** private:
  91:src/../h/riscv.hpp ****     static void interruptRoutineHandler();
  92:src/../h/riscv.hpp **** };
  93:src/../h/riscv.hpp **** 
  94:src/../h/riscv.hpp **** inline uint64 Riscv::r_scause()
  95:src/../h/riscv.hpp **** {
  96:src/../h/riscv.hpp ****     uint64 volatile scause;
  97:src/../h/riscv.hpp ****     __asm__ volatile ("csrr %[scause], scause" : [scause] "=r"(scause));
  98:src/../h/riscv.hpp ****     return scause;
  99:src/../h/riscv.hpp **** }
 100:src/../h/riscv.hpp **** 
GAS LISTING /tmp/ccVaVtHP.s 			page 12


 101:src/../h/riscv.hpp **** inline void Riscv::w_scause(uint64 scause)
 102:src/../h/riscv.hpp **** {
 103:src/../h/riscv.hpp ****     __asm__ volatile ("csrw scause, %[scause]" : : [scause] "r"(scause));
 104:src/../h/riscv.hpp **** }
 105:src/../h/riscv.hpp **** 
 106:src/../h/riscv.hpp **** inline uint64 Riscv::r_sepc()
 107:src/../h/riscv.hpp **** {
 108:src/../h/riscv.hpp ****     uint64 volatile sepc;
 109:src/../h/riscv.hpp ****     __asm__ volatile ("csrr %[sepc], sepc" : [sepc] "=r"(sepc));
 110:src/../h/riscv.hpp ****     return sepc;
 111:src/../h/riscv.hpp **** }
 112:src/../h/riscv.hpp **** 
 113:src/../h/riscv.hpp **** inline void Riscv::w_sepc(uint64 sepc)
 114:src/../h/riscv.hpp **** {
 115:src/../h/riscv.hpp ****     __asm__ volatile ("csrw sepc, %[sepc]" : : [sepc] "r"(sepc));
 116:src/../h/riscv.hpp **** }
 117:src/../h/riscv.hpp **** 
 118:src/../h/riscv.hpp **** inline uint64 Riscv::r_stvec()
 119:src/../h/riscv.hpp **** {
 120:src/../h/riscv.hpp ****     uint64 volatile stvec;
 121:src/../h/riscv.hpp ****     __asm__ volatile ("csrr %[stvec], stvec" : [stvec] "=r"(stvec));
 122:src/../h/riscv.hpp ****     return stvec;
 123:src/../h/riscv.hpp **** }
 124:src/../h/riscv.hpp **** 
 125:src/../h/riscv.hpp **** inline void Riscv::w_stvec(uint64 stvec)
 126:src/../h/riscv.hpp **** {
 127:src/../h/riscv.hpp ****     __asm__ volatile ("csrw stvec, %[stvec]" : : [stvec] "r"(stvec));
 396              		.loc 3 127 5 is_stmt 1
 397              		.loc 3 127 69 is_stmt 0
 398              	 #APP
 399              	# 127 "src/../h/riscv.hpp" 1
 128              	}
 400              		csrw stvec, a5
 401              	# 0 "" 2
 402              	.LVL43:
 403              	 #NO_APP
 404              	.LBE41:
 405              	.LBE40:
  61:src/main.cpp  **** 
  62:src/main.cpp  ****     thread_t thread1;
 406              		.loc 1 62 5 is_stmt 1
  63:src/main.cpp  ****     //idle nit(nit koja nema fju koja treba da izvrsava)
  64:src/main.cpp  ****     thread_create(&thread1, nullptr, nullptr);
 407              		.loc 1 64 5
 408              		.loc 1 64 18 is_stmt 0
 409 0250 13060000 		li	a2,0
 410 0254 93050000 		li	a1,0
 411 0258 130584FE 		addi	a0,s0,-24
 412 025c 97000000 		call	_Z13thread_createPP7_threadPFvPvES2_
 412      E7800000 
 413              	.LVL44:
  65:src/main.cpp  ****     _thread::running = thread1;
 414              		.loc 1 65 5 is_stmt 1
 415              		.loc 1 65 22 is_stmt 0
 416 0264 833784FE 		ld	a5,-24(s0)
 417 0268 17070000 		sd	a5,_ZN7_thread7runningE,a4
 417      2330F700 
GAS LISTING /tmp/ccVaVtHP.s 			page 13


  66:src/main.cpp  **** 
  67:src/main.cpp  ****     thread_t thread2;
 418              		.loc 1 67 5 is_stmt 1
  68:src/main.cpp  ****     thread_create(&thread2, wrapper, nullptr);
 419              		.loc 1 68 5
 420              		.loc 1 68 18 is_stmt 0
 421 0270 13060000 		li	a2,0
 422 0274 97050000 		lla	a1,_Z7wrapperPv
 422      93850500 
 423 027c 130504FE 		addi	a0,s0,-32
 424 0280 97000000 		call	_Z13thread_createPP7_threadPFvPvES2_
 424      E7800000 
 425              	.LVL45:
 426              	.L20:
  69:src/main.cpp  **** 
  70:src/main.cpp  ****     while (!(thread2->isFinished())) {
 427              		.loc 1 70 5 is_stmt 1
 428              		.loc 1 70 12
 429              		.loc 1 70 33 is_stmt 0
 430 0288 833704FE 		ld	a5,-32(s0)
 431              	.LVL46:
 432              	.LBB42:
 433              	.LBB43:
  18:src/../h/_thread.hpp **** 
 434              		.loc 2 18 31 is_stmt 1
  18:src/../h/_thread.hpp **** 
 435              		.loc 2 18 38 is_stmt 0
 436 028c 83C70702 		lbu	a5,32(a5)
 437              	.LVL47:
 438              	.LBE43:
 439              	.LBE42:
 440              		.loc 1 70 12
 441 0290 63980700 		bnez	a5,.L19
  71:src/main.cpp  ****         thread_dispatch();
 442              		.loc 1 71 9 is_stmt 1
 443              		.loc 1 71 24 is_stmt 0
 444 0294 97000000 		call	_Z15thread_dispatchv
 444      E7800000 
 445              	.LVL48:
 446 029c 6FF0DFFE 		j	.L20
 447              	.L19:
  72:src/main.cpp  ****     }
  73:src/main.cpp  **** 
  74:src/main.cpp  ****     return 0;
 448              		.loc 1 74 5 is_stmt 1
  75:src/main.cpp  **** }
 449              		.loc 1 75 1 is_stmt 0
 450 02a0 13050000 		li	a0,0
 451 02a4 83308101 		ld	ra,24(sp)
 452              		.cfi_restore 1
 453 02a8 03340101 		ld	s0,16(sp)
 454              		.cfi_restore 8
 455              		.cfi_def_cfa 2, 32
 456 02ac 13010102 		addi	sp,sp,32
 457              		.cfi_def_cfa_offset 0
 458 02b0 67800000 		jr	ra
 459              		.cfi_endproc
GAS LISTING /tmp/ccVaVtHP.s 			page 14


 460              	.LFE36:
 462              		.globl	nitC
 463              		.globl	nitB
 464              		.globl	nitA
 465              		.section	.sbss,"aw",@nobits
 466              		.align	3
 469              	nitC:
 470 0000 00000000 		.zero	8
 470      00000000 
 473              	nitB:
 474 0008 00000000 		.zero	8
 474      00000000 
 477              	nitA:
 478 0010 00000000 		.zero	8
 478      00000000 
 479              		.text
 480              	.Letext0:
 481              		.file 4 "src/../h/../lib/hw.h"
 482              		.file 5 "src/../h/syscall_c.hpp"
 483              		.file 6 "src/../h/print.hpp"
GAS LISTING /tmp/ccVaVtHP.s 			page 15


DEFINED SYMBOLS
                            *ABS*:0000000000000000 main.cpp
     /tmp/ccVaVtHP.s:20     .text:0000000000000000 _Z2faPv
     /tmp/ccVaVtHP.s:24     .text:0000000000000000 .L0 
     /tmp/ccVaVtHP.s:25     .text:0000000000000000 .L0 
     /tmp/ccVaVtHP.s:26     .text:0000000000000004 .L0 
     /tmp/ccVaVtHP.s:30     .text:0000000000000010 .L0 
     /tmp/ccVaVtHP.s:31     .text:0000000000000010 .L0 
     /tmp/ccVaVtHP.s:32     .text:0000000000000010 .L0 
     /tmp/ccVaVtHP.s:34     .text:0000000000000014 .L0 
     /tmp/ccVaVtHP.s:38     .text:0000000000000014 .L0 
     /tmp/ccVaVtHP.s:39     .text:0000000000000014 .L0 
     /tmp/ccVaVtHP.s:43     .text:0000000000000018 .L0 
     /tmp/ccVaVtHP.s:46     .text:0000000000000020 .L0 
     /tmp/ccVaVtHP.s:47     .text:0000000000000020 .L0 
     /tmp/ccVaVtHP.s:51     .text:0000000000000030 .L0 
     /tmp/ccVaVtHP.s:58     .text:0000000000000038 .L0 
     /tmp/ccVaVtHP.s:59     .text:0000000000000038 .L0 
     /tmp/ccVaVtHP.s:66     .text:0000000000000048 .L0 
     /tmp/ccVaVtHP.s:67     .text:0000000000000048 .L0 
     /tmp/ccVaVtHP.s:68     .text:0000000000000048 .L0 
     /tmp/ccVaVtHP.s:75     .text:0000000000000058 .L0 
     /tmp/ccVaVtHP.s:76     .text:0000000000000058 .L0 
     /tmp/ccVaVtHP.s:79     .text:0000000000000060 .L0 
     /tmp/ccVaVtHP.s:80     .text:0000000000000064 .L0 
     /tmp/ccVaVtHP.s:82     .text:0000000000000068 .L0 
     /tmp/ccVaVtHP.s:83     .text:0000000000000068 .L0 
     /tmp/ccVaVtHP.s:85     .text:000000000000006c .L0 
     /tmp/ccVaVtHP.s:88     .text:0000000000000070 .L0 
     /tmp/ccVaVtHP.s:90     .text:0000000000000074 .L0 
     /tmp/ccVaVtHP.s:101    .text:0000000000000074 _Z2fbPv
     /tmp/ccVaVtHP.s:104    .text:0000000000000074 .L0 
     /tmp/ccVaVtHP.s:105    .text:0000000000000074 .L0 
     /tmp/ccVaVtHP.s:106    .text:0000000000000078 .L0 
     /tmp/ccVaVtHP.s:110    .text:0000000000000084 .L0 
     /tmp/ccVaVtHP.s:111    .text:0000000000000084 .L0 
     /tmp/ccVaVtHP.s:112    .text:0000000000000084 .L0 
     /tmp/ccVaVtHP.s:114    .text:0000000000000088 .L0 
     /tmp/ccVaVtHP.s:118    .text:0000000000000088 .L0 
     /tmp/ccVaVtHP.s:119    .text:0000000000000088 .L0 
     /tmp/ccVaVtHP.s:123    .text:000000000000008c .L0 
     /tmp/ccVaVtHP.s:126    .text:0000000000000094 .L0 
     /tmp/ccVaVtHP.s:127    .text:0000000000000094 .L0 
     /tmp/ccVaVtHP.s:131    .text:00000000000000a4 .L0 
     /tmp/ccVaVtHP.s:138    .text:00000000000000ac .L0 
     /tmp/ccVaVtHP.s:139    .text:00000000000000ac .L0 
     /tmp/ccVaVtHP.s:145    .text:00000000000000bc .L0 
     /tmp/ccVaVtHP.s:146    .text:00000000000000bc .L0 
     /tmp/ccVaVtHP.s:147    .text:00000000000000bc .L0 
     /tmp/ccVaVtHP.s:154    .text:00000000000000cc .L0 
     /tmp/ccVaVtHP.s:155    .text:00000000000000cc .L0 
     /tmp/ccVaVtHP.s:158    .text:00000000000000d4 .L0 
     /tmp/ccVaVtHP.s:159    .text:00000000000000d8 .L0 
     /tmp/ccVaVtHP.s:161    .text:00000000000000dc .L0 
     /tmp/ccVaVtHP.s:162    .text:00000000000000dc .L0 
     /tmp/ccVaVtHP.s:164    .text:00000000000000e0 .L0 
     /tmp/ccVaVtHP.s:167    .text:00000000000000e4 .L0 
GAS LISTING /tmp/ccVaVtHP.s 			page 16


     /tmp/ccVaVtHP.s:169    .text:00000000000000e8 .L0 
     /tmp/ccVaVtHP.s:180    .text:00000000000000e8 _Z2fcPv
     /tmp/ccVaVtHP.s:183    .text:00000000000000e8 .L0 
     /tmp/ccVaVtHP.s:184    .text:00000000000000e8 .L0 
     /tmp/ccVaVtHP.s:185    .text:00000000000000ec .L0 
     /tmp/ccVaVtHP.s:189    .text:00000000000000f8 .L0 
     /tmp/ccVaVtHP.s:190    .text:00000000000000f8 .L0 
     /tmp/ccVaVtHP.s:191    .text:00000000000000f8 .L0 
     /tmp/ccVaVtHP.s:193    .text:00000000000000fc .L0 
     /tmp/ccVaVtHP.s:197    .text:00000000000000fc .L0 
     /tmp/ccVaVtHP.s:198    .text:00000000000000fc .L0 
     /tmp/ccVaVtHP.s:202    .text:0000000000000100 .L0 
     /tmp/ccVaVtHP.s:205    .text:0000000000000108 .L0 
     /tmp/ccVaVtHP.s:206    .text:0000000000000108 .L0 
     /tmp/ccVaVtHP.s:210    .text:0000000000000118 .L0 
     /tmp/ccVaVtHP.s:217    .text:0000000000000120 .L0 
     /tmp/ccVaVtHP.s:218    .text:0000000000000120 .L0 
     /tmp/ccVaVtHP.s:224    .text:0000000000000130 .L0 
     /tmp/ccVaVtHP.s:225    .text:0000000000000130 .L0 
     /tmp/ccVaVtHP.s:226    .text:0000000000000130 .L0 
     /tmp/ccVaVtHP.s:233    .text:0000000000000140 .L0 
     /tmp/ccVaVtHP.s:234    .text:0000000000000140 .L0 
     /tmp/ccVaVtHP.s:237    .text:0000000000000148 .L0 
     /tmp/ccVaVtHP.s:238    .text:000000000000014c .L0 
     /tmp/ccVaVtHP.s:240    .text:0000000000000150 .L0 
     /tmp/ccVaVtHP.s:241    .text:0000000000000150 .L0 
     /tmp/ccVaVtHP.s:243    .text:0000000000000154 .L0 
     /tmp/ccVaVtHP.s:246    .text:0000000000000158 .L0 
     /tmp/ccVaVtHP.s:248    .text:000000000000015c .L0 
     /tmp/ccVaVtHP.s:259    .text:000000000000015c _Z7wrapperPv
     /tmp/ccVaVtHP.s:262    .text:000000000000015c .L0 
     /tmp/ccVaVtHP.s:264    .text:000000000000015c .L0 
     /tmp/ccVaVtHP.s:265    .text:0000000000000160 .L0 
     /tmp/ccVaVtHP.s:268    .text:0000000000000168 .L0 
     /tmp/ccVaVtHP.s:269    .text:0000000000000168 .L0 
     /tmp/ccVaVtHP.s:271    .text:000000000000016c .L0 
     /tmp/ccVaVtHP.s:273    .text:000000000000016c .L0 
     /tmp/ccVaVtHP.s:274    .text:000000000000016c .L0 
     /tmp/ccVaVtHP.s:477    .sbss:0000000000000010 nitA
     /tmp/ccVaVtHP.s:281    .text:0000000000000188 .L0 
     /tmp/ccVaVtHP.s:282    .text:0000000000000188 .L0 
     /tmp/ccVaVtHP.s:473    .sbss:0000000000000008 nitB
     /tmp/ccVaVtHP.s:288    .text:00000000000001a4 .L0 
     /tmp/ccVaVtHP.s:289    .text:00000000000001a4 .L0 
     /tmp/ccVaVtHP.s:469    .sbss:0000000000000000 nitC
     /tmp/ccVaVtHP.s:297    .text:00000000000001c4 .L0 
     /tmp/ccVaVtHP.s:298    .text:00000000000001c4 .L0 
     /tmp/ccVaVtHP.s:302    .text:00000000000001cc .L0 
     /tmp/ccVaVtHP.s:303    .text:00000000000001cc .L0 
     /tmp/ccVaVtHP.s:304    .text:00000000000001cc .L0 
     /tmp/ccVaVtHP.s:309    .text:00000000000001d4 .L0 
     /tmp/ccVaVtHP.s:310    .text:00000000000001d4 .L0 
     /tmp/ccVaVtHP.s:315    .text:00000000000001d8 .L0 
     /tmp/ccVaVtHP.s:317    .text:00000000000001dc .L0 
     /tmp/ccVaVtHP.s:322    .text:00000000000001e4 .L0 
     /tmp/ccVaVtHP.s:323    .text:00000000000001e4 .L0 
     /tmp/ccVaVtHP.s:328    .text:00000000000001e8 .L0 
GAS LISTING /tmp/ccVaVtHP.s 			page 17


     /tmp/ccVaVtHP.s:330    .text:00000000000001ec .L0 
     /tmp/ccVaVtHP.s:335    .text:00000000000001f4 .L0 
     /tmp/ccVaVtHP.s:336    .text:00000000000001f4 .L0 
     /tmp/ccVaVtHP.s:341    .text:00000000000001f8 .L0 
     /tmp/ccVaVtHP.s:343    .text:00000000000001fc .L0 
     /tmp/ccVaVtHP.s:344    .text:00000000000001fc .L0 
     /tmp/ccVaVtHP.s:350    .text:000000000000020c .L0 
     /tmp/ccVaVtHP.s:351    .text:000000000000020c .L0 
     /tmp/ccVaVtHP.s:352    .text:000000000000020c .L0 
     /tmp/ccVaVtHP.s:359    .text:000000000000021c .L0 
     /tmp/ccVaVtHP.s:360    .text:000000000000021c .L0 
     /tmp/ccVaVtHP.s:363    .text:0000000000000224 .L0 
     /tmp/ccVaVtHP.s:364    .text:0000000000000228 .L0 
     /tmp/ccVaVtHP.s:366    .text:000000000000022c .L0 
     /tmp/ccVaVtHP.s:367    .text:000000000000022c .L0 
     /tmp/ccVaVtHP.s:369    .text:0000000000000230 .L0 
     /tmp/ccVaVtHP.s:371    .text:0000000000000234 .L0 
     /tmp/ccVaVtHP.s:377    .text:0000000000000234 main
     /tmp/ccVaVtHP.s:380    .text:0000000000000234 .L0 
     /tmp/ccVaVtHP.s:381    .text:0000000000000234 .L0 
     /tmp/ccVaVtHP.s:382    .text:0000000000000238 .L0 
     /tmp/ccVaVtHP.s:385    .text:0000000000000240 .L0 
     /tmp/ccVaVtHP.s:386    .text:0000000000000240 .L0 
     /tmp/ccVaVtHP.s:388    .text:0000000000000244 .L0 
     /tmp/ccVaVtHP.s:390    .text:0000000000000244 .L0 
     /tmp/ccVaVtHP.s:391    .text:0000000000000244 .L0 
     /tmp/ccVaVtHP.s:397    .text:000000000000024c .L0 
  src/../h/riscv.hpp:127    .text:000000000000024c .L0 
     /tmp/ccVaVtHP.s:407    .text:0000000000000250 .L0 
     /tmp/ccVaVtHP.s:408    .text:0000000000000250 .L0 
     /tmp/ccVaVtHP.s:409    .text:0000000000000250 .L0 
     /tmp/ccVaVtHP.s:415    .text:0000000000000264 .L0 
     /tmp/ccVaVtHP.s:416    .text:0000000000000264 .L0 
     /tmp/ccVaVtHP.s:419    .text:0000000000000270 .L0 
     /tmp/ccVaVtHP.s:420    .text:0000000000000270 .L0 
     /tmp/ccVaVtHP.s:421    .text:0000000000000270 .L0 
     /tmp/ccVaVtHP.s:428    .text:0000000000000288 .L0 
     /tmp/ccVaVtHP.s:429    .text:0000000000000288 .L0 
     /tmp/ccVaVtHP.s:430    .text:0000000000000288 .L0 
     /tmp/ccVaVtHP.s:435    .text:000000000000028c .L0 
     /tmp/ccVaVtHP.s:436    .text:000000000000028c .L0 
     /tmp/ccVaVtHP.s:441    .text:0000000000000290 .L0 
     /tmp/ccVaVtHP.s:443    .text:0000000000000294 .L0 
     /tmp/ccVaVtHP.s:444    .text:0000000000000294 .L0 
     /tmp/ccVaVtHP.s:449    .text:00000000000002a0 .L0 
     /tmp/ccVaVtHP.s:450    .text:00000000000002a0 .L0 
     /tmp/ccVaVtHP.s:452    .text:00000000000002a8 .L0 
     /tmp/ccVaVtHP.s:454    .text:00000000000002ac .L0 
     /tmp/ccVaVtHP.s:455    .text:00000000000002ac .L0 
     /tmp/ccVaVtHP.s:457    .text:00000000000002b0 .L0 
     /tmp/ccVaVtHP.s:459    .text:00000000000002b4 .L0 
     /tmp/ccVaVtHP.s:484    .text:00000000000002b4 .L0 
     /tmp/ccVaVtHP.s:11     .rodata.str1.8:0000000000000000 .LC0
     /tmp/ccVaVtHP.s:47     .text:0000000000000020 .L0 
     /tmp/ccVaVtHP.s:14     .rodata.str1.8:0000000000000008 .LC1
     /tmp/ccVaVtHP.s:59     .text:0000000000000038 .L0 
     /tmp/ccVaVtHP.s:68     .text:0000000000000048 .L0 
GAS LISTING /tmp/ccVaVtHP.s 			page 18


     /tmp/ccVaVtHP.s:95     .rodata.str1.8:0000000000000010 .LC2
     /tmp/ccVaVtHP.s:127    .text:0000000000000094 .L0 
     /tmp/ccVaVtHP.s:139    .text:00000000000000ac .L0 
     /tmp/ccVaVtHP.s:147    .text:00000000000000bc .L0 
     /tmp/ccVaVtHP.s:174    .rodata.str1.8:0000000000000018 .LC3
     /tmp/ccVaVtHP.s:206    .text:0000000000000108 .L0 
     /tmp/ccVaVtHP.s:218    .text:0000000000000120 .L0 
     /tmp/ccVaVtHP.s:226    .text:0000000000000130 .L0 
     /tmp/ccVaVtHP.s:275    .text:0000000000000170 .L0 
     /tmp/ccVaVtHP.s:276    .text:0000000000000178 .L0 
     /tmp/ccVaVtHP.s:283    .text:000000000000018c .L0 
     /tmp/ccVaVtHP.s:284    .text:0000000000000194 .L0 
     /tmp/ccVaVtHP.s:290    .text:00000000000001a8 .L0 
     /tmp/ccVaVtHP.s:291    .text:00000000000001b0 .L0 
     /tmp/ccVaVtHP.s:304    .text:00000000000001cc .L0 
     /tmp/ccVaVtHP.s:317    .text:00000000000001dc .L0 
     /tmp/ccVaVtHP.s:330    .text:00000000000001ec .L0 
     /tmp/ccVaVtHP.s:253    .rodata.str1.8:0000000000000020 .LC4
     /tmp/ccVaVtHP.s:344    .text:00000000000001fc .L0 
     /tmp/ccVaVtHP.s:352    .text:000000000000020c .L0 
     /tmp/ccVaVtHP.s:391    .text:0000000000000244 .L0 
     /tmp/ccVaVtHP.s:417    .text:0000000000000268 .L0 
     /tmp/ccVaVtHP.s:422    .text:0000000000000274 .L0 
     /tmp/ccVaVtHP.s:55     .text:0000000000000038 .L2
     /tmp/ccVaVtHP.s:41     .text:0000000000000018 .L3
     /tmp/ccVaVtHP.s:135    .text:00000000000000ac .L6
     /tmp/ccVaVtHP.s:121    .text:000000000000008c .L7
     /tmp/ccVaVtHP.s:214    .text:0000000000000120 .L10
     /tmp/ccVaVtHP.s:200    .text:0000000000000100 .L11
     /tmp/ccVaVtHP.s:300    .text:00000000000001cc .L16
     /tmp/ccVaVtHP.s:295    .text:00000000000001c4 .L14
     /tmp/ccVaVtHP.s:447    .text:00000000000002a0 .L19
     /tmp/ccVaVtHP.s:426    .text:0000000000000288 .L20
     /tmp/ccVaVtHP.s:1570   .debug_abbrev:0000000000000000 .Ldebug_abbrev0
     /tmp/ccVaVtHP.s:2559   .debug_str:0000000000000094 .LASF100
     /tmp/ccVaVtHP.s:2637   .debug_str:00000000000003c7 .LASF101
     /tmp/ccVaVtHP.s:2569   .debug_str:000000000000018d .LASF102
     /tmp/ccVaVtHP.s:8      .text:0000000000000000 .Ltext0
     /tmp/ccVaVtHP.s:480    .text:00000000000002b4 .Letext0
     /tmp/ccVaVtHP.s:2529   .debug_line:0000000000000000 .Ldebug_line0
     /tmp/ccVaVtHP.s:2659   .debug_str:00000000000004a6 .LASF0
     /tmp/ccVaVtHP.s:2669   .debug_str:00000000000004eb .LASF1
     /tmp/ccVaVtHP.s:2647   .debug_str:000000000000044e .LASF2
     /tmp/ccVaVtHP.s:2627   .debug_str:000000000000039f .LASF4
     /tmp/ccVaVtHP.s:2705   .debug_str:00000000000005f1 .LASF3
     /tmp/ccVaVtHP.s:2561   .debug_str:0000000000000158 .LASF5
     /tmp/ccVaVtHP.s:2671   .debug_str:00000000000004fe .LASF6
     /tmp/ccVaVtHP.s:2657   .debug_str:0000000000000493 .LASF7
     /tmp/ccVaVtHP.s:2727   .debug_str:000000000000068c .LASF8
     /tmp/ccVaVtHP.s:2613   .debug_str:000000000000030e .LASF9
     /tmp/ccVaVtHP.s:2685   .debug_str:000000000000055a .LASF10
     /tmp/ccVaVtHP.s:2721   .debug_str:000000000000066c .LASF11
     /tmp/ccVaVtHP.s:2563   .debug_str:000000000000015f .LASF12
     /tmp/ccVaVtHP.s:2539   .debug_str:0000000000000030 .LASF13
     /tmp/ccVaVtHP.s:2649   .debug_str:000000000000045c .LASF14
     /tmp/ccVaVtHP.s:2699   .debug_str:00000000000005bd .LASF15
     /tmp/ccVaVtHP.s:2577   .debug_str:0000000000000203 .LASF16
GAS LISTING /tmp/ccVaVtHP.s 			page 19


     /tmp/ccVaVtHP.s:2667   .debug_str:00000000000004e5 .LASF57
     /tmp/ccVaVtHP.s:2621   .debug_str:0000000000000370 .LASF17
     /tmp/ccVaVtHP.s:2683   .debug_str:000000000000053c .LASF19
     /tmp/ccVaVtHP.s:2697   .debug_str:00000000000005b2 .LASF18
     /tmp/ccVaVtHP.s:2737   .debug_str:00000000000006d0 .LASF20
     /tmp/ccVaVtHP.s:2557   .debug_str:0000000000000086 .LASF21
     /tmp/ccVaVtHP.s:2591   .debug_str:0000000000000271 .LASF22
     /tmp/ccVaVtHP.s:2711   .debug_str:000000000000061f .LASF23
     /tmp/ccVaVtHP.s:2535   .debug_str:0000000000000011 .LASF24
     /tmp/ccVaVtHP.s:2541   .debug_str:0000000000000040 .LASF25
     /tmp/ccVaVtHP.s:2709   .debug_str:000000000000060a .LASF27
     /tmp/ccVaVtHP.s:2589   .debug_str:0000000000000268 .LASF29
     /tmp/ccVaVtHP.s:2587   .debug_str:0000000000000253 .LASF31
     /tmp/ccVaVtHP.s:2707   .debug_str:0000000000000603 .LASF26
     /tmp/ccVaVtHP.s:2689   .debug_str:000000000000056e .LASF28
     /tmp/ccVaVtHP.s:2719   .debug_str:0000000000000665 .LASF30
     /tmp/ccVaVtHP.s:2713   .debug_str:000000000000062c .LASF32
     /tmp/ccVaVtHP.s:2607   .debug_str:00000000000002e5 .LASF33
     /tmp/ccVaVtHP.s:2579   .debug_str:0000000000000219 .LASF34
     /tmp/ccVaVtHP.s:2533   .debug_str:0000000000000009 .LASF35
     /tmp/ccVaVtHP.s:2619   .debug_str:000000000000035c .LASF36
     /tmp/ccVaVtHP.s:2595   .debug_str:0000000000000294 .LASF37
     /tmp/ccVaVtHP.s:2565   .debug_str:000000000000016f .LASF38
     /tmp/ccVaVtHP.s:2741   .debug_str:00000000000006f3 .LASF39
     /tmp/ccVaVtHP.s:2597   .debug_str:000000000000029c .LASF40
     /tmp/ccVaVtHP.s:2661   .debug_str:00000000000004b3 .LASF41
     /tmp/ccVaVtHP.s:2733   .debug_str:00000000000006b8 .LASF42
     /tmp/ccVaVtHP.s:2555   .debug_str:000000000000007f .LASF43
     /tmp/ccVaVtHP.s:2605   .debug_str:00000000000002d2 .LASF44
     /tmp/ccVaVtHP.s:2611   .debug_str:0000000000000308 .LASF45
     /tmp/ccVaVtHP.s:2717   .debug_str:0000000000000653 .LASF46
     /tmp/ccVaVtHP.s:2553   .debug_str:0000000000000079 .LASF47
     /tmp/ccVaVtHP.s:2745   .debug_str:0000000000000703 .LASF48
     /tmp/ccVaVtHP.s:2739   .debug_str:00000000000006e8 .LASF49
     /tmp/ccVaVtHP.s:2703   .debug_str:00000000000005d9 .LASF50
     /tmp/ccVaVtHP.s:2633   .debug_str:00000000000003b4 .LASF51
     /tmp/ccVaVtHP.s:2639   .debug_str:00000000000003d4 .LASF52
     /tmp/ccVaVtHP.s:2567   .debug_str:0000000000000183 .LASF53
     /tmp/ccVaVtHP.s:2623   .debug_str:0000000000000381 .LASF54
     /tmp/ccVaVtHP.s:2653   .debug_str:0000000000000481 .LASF55
     /tmp/ccVaVtHP.s:2617   .debug_str:0000000000000346 .LASF56
     /tmp/ccVaVtHP.s:2693   .debug_str:000000000000058d .LASF74
     /tmp/ccVaVtHP.s:2571   .debug_str:00000000000001af .LASF76
     /tmp/ccVaVtHP.s:2625   .debug_str:0000000000000397 .LASF58
     /tmp/ccVaVtHP.s:2545   .debug_str:0000000000000055 .LASF103
     /tmp/ccVaVtHP.s:2593   .debug_str:000000000000028c .LASF104
     /tmp/ccVaVtHP.s:2723   .debug_str:000000000000067b .LASF59
     /tmp/ccVaVtHP.s:2675   .debug_str:000000000000051c .LASF61
     /tmp/ccVaVtHP.s:2673   .debug_str:0000000000000511 .LASF83
     /tmp/ccVaVtHP.s:2645   .debug_str:0000000000000433 .LASF88
     /tmp/ccVaVtHP.s:2691   .debug_str:0000000000000581 .LASF60
     /tmp/ccVaVtHP.s:2643   .debug_str:0000000000000418 .LASF62
     /tmp/ccVaVtHP.s:2729   .debug_str:000000000000069c .LASF63
     /tmp/ccVaVtHP.s:2615   .debug_str:000000000000031c .LASF64
     /tmp/ccVaVtHP.s:2687   .debug_str:0000000000000569 .LASF105
     /tmp/ccVaVtHP.s:2701   .debug_str:00000000000005d3 .LASF65
     /tmp/ccVaVtHP.s:2715   .debug_str:000000000000063f .LASF66
GAS LISTING /tmp/ccVaVtHP.s 			page 20


     /tmp/ccVaVtHP.s:2551   .debug_str:000000000000006d .LASF67
     /tmp/ccVaVtHP.s:2609   .debug_str:00000000000002ed .LASF68
     /tmp/ccVaVtHP.s:2651   .debug_str:0000000000000468 .LASF69
     /tmp/ccVaVtHP.s:2631   .debug_str:00000000000003af .LASF70
     /tmp/ccVaVtHP.s:2665   .debug_str:00000000000004df .LASF71
     /tmp/ccVaVtHP.s:2635   .debug_str:00000000000003bf .LASF72
     /tmp/ccVaVtHP.s:2629   .debug_str:00000000000003a6 .LASF73
     /tmp/ccVaVtHP.s:2731   .debug_str:00000000000006aa .LASF106
     /tmp/ccVaVtHP.s:2641   .debug_str:00000000000003ec .LASF107
     /tmp/ccVaVtHP.s:2573   .debug_str:00000000000001d4 .LASF75
     /tmp/ccVaVtHP.s:2575   .debug_str:00000000000001e4 .LASF77
     /tmp/ccVaVtHP.s:2531   .debug_str:0000000000000000 .LASF78
     /tmp/ccVaVtHP.s:2601   .debug_str:00000000000002b8 .LASF79
     /tmp/ccVaVtHP.s:2585   .debug_str:000000000000024e .LASF80
     /tmp/ccVaVtHP.s:2537   .debug_str:000000000000002b .LASF81
     /tmp/ccVaVtHP.s:2679   .debug_str:0000000000000532 .LASF82
     /tmp/ccVaVtHP.s:2681   .debug_str:0000000000000537 .LASF84
     /tmp/ccVaVtHP.s:378    .text:0000000000000234 .LFB36
     /tmp/ccVaVtHP.s:460    .text:00000000000002b4 .LFE36
     /tmp/ccVaVtHP.s:2547   .debug_str:000000000000005d .LASF85
     /tmp/ccVaVtHP.s:2549   .debug_str:0000000000000065 .LASF86
     /tmp/ccVaVtHP.s:393    .text:000000000000024c .LBB40
     /tmp/ccVaVtHP.s:405    .text:0000000000000250 .LBE40
     /tmp/ccVaVtHP.s:432    .text:000000000000028c .LBB42
     /tmp/ccVaVtHP.s:439    .text:0000000000000290 .LBE42
     /tmp/ccVaVtHP.s:2394   .debug_loc:0000000000000000 .LLST11
     /tmp/ccVaVtHP.s:413    .text:0000000000000264 .LVL44
     /tmp/ccVaVtHP.s:425    .text:0000000000000288 .LVL45
     /tmp/ccVaVtHP.s:445    .text:000000000000029c .LVL48
     /tmp/ccVaVtHP.s:2743   .debug_str:00000000000006fb .LASF87
     /tmp/ccVaVtHP.s:2695   .debug_str:00000000000005a5 .LASF89
     /tmp/ccVaVtHP.s:260    .text:000000000000015c .LFB35
     /tmp/ccVaVtHP.s:372    .text:0000000000000234 .LFE35
     /tmp/ccVaVtHP.s:2401   .debug_loc:0000000000000023 .LLST6
     /tmp/ccVaVtHP.s:306    .text:00000000000001d4 .LBB32
     /tmp/ccVaVtHP.s:313    .text:00000000000001d8 .LBE32
     /tmp/ccVaVtHP.s:2415   .debug_loc:000000000000005c .LLST7
     /tmp/ccVaVtHP.s:319    .text:00000000000001e4 .LBB34
     /tmp/ccVaVtHP.s:326    .text:00000000000001e8 .LBE34
     /tmp/ccVaVtHP.s:2422   .debug_loc:000000000000007f .LLST8
     /tmp/ccVaVtHP.s:332    .text:00000000000001f4 .LBB36
     /tmp/ccVaVtHP.s:339    .text:00000000000001f8 .LBE36
     /tmp/ccVaVtHP.s:2429   .debug_loc:00000000000000a2 .LLST9
     /tmp/ccVaVtHP.s:348    .text:000000000000020c .LBB38
     /tmp/ccVaVtHP.s:357    .text:000000000000021c .LBE38
     /tmp/ccVaVtHP.s:2436   .debug_loc:00000000000000c5 .LLST10
     /tmp/ccVaVtHP.s:279    .text:0000000000000188 .LVL29
     /tmp/ccVaVtHP.s:286    .text:00000000000001a4 .LVL30
     /tmp/ccVaVtHP.s:293    .text:00000000000001c0 .LVL31
     /tmp/ccVaVtHP.s:299    .text:00000000000001cc .LVL32
     /tmp/ccVaVtHP.s:346    .text:000000000000020c .LVL39
     /tmp/ccVaVtHP.s:361    .text:0000000000000224 .LVL41
     /tmp/ccVaVtHP.s:2599   .debug_str:00000000000002b0 .LASF90
     /tmp/ccVaVtHP.s:181    .text:00000000000000e8 .LFB34
     /tmp/ccVaVtHP.s:249    .text:000000000000015c .LFE34
     /tmp/ccVaVtHP.s:196    .text:00000000000000fc .LBB29
     /tmp/ccVaVtHP.s:215    .text:0000000000000120 .LBE29
GAS LISTING /tmp/ccVaVtHP.s 			page 21


     /tmp/ccVaVtHP.s:2444   .debug_loc:00000000000000e9 .LLST4
     /tmp/ccVaVtHP.s:208    .text:0000000000000118 .LVL20
     /tmp/ccVaVtHP.s:222    .text:0000000000000130 .LBB30
     /tmp/ccVaVtHP.s:231    .text:0000000000000140 .LBE30
     /tmp/ccVaVtHP.s:2460   .debug_loc:0000000000000133 .LLST5
     /tmp/ccVaVtHP.s:220    .text:0000000000000130 .LVL23
     /tmp/ccVaVtHP.s:235    .text:0000000000000148 .LVL25
     /tmp/ccVaVtHP.s:2725   .debug_str:0000000000000684 .LASF91
     /tmp/ccVaVtHP.s:102    .text:0000000000000074 .LFB33
     /tmp/ccVaVtHP.s:170    .text:00000000000000e8 .LFE33
     /tmp/ccVaVtHP.s:117    .text:0000000000000088 .LBB26
     /tmp/ccVaVtHP.s:136    .text:00000000000000ac .LBE26
     /tmp/ccVaVtHP.s:2468   .debug_loc:0000000000000157 .LLST2
     /tmp/ccVaVtHP.s:129    .text:00000000000000a4 .LVL11
     /tmp/ccVaVtHP.s:143    .text:00000000000000bc .LBB27
     /tmp/ccVaVtHP.s:152    .text:00000000000000cc .LBE27
     /tmp/ccVaVtHP.s:2484   .debug_loc:00000000000001a1 .LLST3
     /tmp/ccVaVtHP.s:141    .text:00000000000000bc .LVL14
     /tmp/ccVaVtHP.s:156    .text:00000000000000d4 .LVL16
     /tmp/ccVaVtHP.s:2655   .debug_str:000000000000048b .LASF92
     /tmp/ccVaVtHP.s:21     .text:0000000000000000 .LFB32
     /tmp/ccVaVtHP.s:91     .text:0000000000000074 .LFE32
     /tmp/ccVaVtHP.s:37     .text:0000000000000014 .LBB23
     /tmp/ccVaVtHP.s:56     .text:0000000000000038 .LBE23
     /tmp/ccVaVtHP.s:2492   .debug_loc:00000000000001c5 .LLST0
     /tmp/ccVaVtHP.s:49     .text:0000000000000030 .LVL2
     /tmp/ccVaVtHP.s:63     .text:0000000000000048 .LBB24
     /tmp/ccVaVtHP.s:73     .text:0000000000000058 .LBE24
     /tmp/ccVaVtHP.s:2508   .debug_loc:000000000000020f .LLST1
     /tmp/ccVaVtHP.s:61     .text:0000000000000048 .LVL5
     /tmp/ccVaVtHP.s:77     .text:0000000000000060 .LVL7
     /tmp/ccVaVtHP.s:2735   .debug_str:00000000000006cb .LASF93
     /tmp/ccVaVtHP.s:2677   .debug_str:000000000000052c .LASF94
     /tmp/ccVaVtHP.s:2663   .debug_str:00000000000004ba .LASF95
     /tmp/ccVaVtHP.s:2581   .debug_str:000000000000022d .LASF97
     /tmp/ccVaVtHP.s:2603   .debug_str:00000000000002bd .LASF96
     /tmp/ccVaVtHP.s:2583   .debug_str:000000000000023b .LASF98
     /tmp/ccVaVtHP.s:2543   .debug_str:0000000000000049 .LASF99
     /tmp/ccVaVtHP.s:431    .text:000000000000028c .LVL46
     /tmp/ccVaVtHP.s:437    .text:0000000000000290 .LVL47
     /tmp/ccVaVtHP.s:263    .text:000000000000015c .LVL27
     /tmp/ccVaVtHP.s:277    .text:0000000000000180 .LVL28
     /tmp/ccVaVtHP.s:305    .text:00000000000001d4 .LVL33
     /tmp/ccVaVtHP.s:311    .text:00000000000001d8 .LVL34
     /tmp/ccVaVtHP.s:318    .text:00000000000001e4 .LVL35
     /tmp/ccVaVtHP.s:324    .text:00000000000001e8 .LVL36
     /tmp/ccVaVtHP.s:331    .text:00000000000001f4 .LVL37
     /tmp/ccVaVtHP.s:337    .text:00000000000001f8 .LVL38
     /tmp/ccVaVtHP.s:355    .text:000000000000021c .LVL40
     /tmp/ccVaVtHP.s:195    .text:00000000000000fc .LVL18
     /tmp/ccVaVtHP.s:199    .text:0000000000000100 .LVL19
     /tmp/ccVaVtHP.s:211    .text:000000000000011c .LVL21
     /tmp/ccVaVtHP.s:213    .text:0000000000000120 .LVL22
     /tmp/ccVaVtHP.s:244    .text:0000000000000154 .LVL26
     /tmp/ccVaVtHP.s:229    .text:0000000000000140 .LVL24
     /tmp/ccVaVtHP.s:116    .text:0000000000000088 .LVL9
     /tmp/ccVaVtHP.s:120    .text:000000000000008c .LVL10
GAS LISTING /tmp/ccVaVtHP.s 			page 22


     /tmp/ccVaVtHP.s:132    .text:00000000000000a8 .LVL12
     /tmp/ccVaVtHP.s:134    .text:00000000000000ac .LVL13
     /tmp/ccVaVtHP.s:165    .text:00000000000000e0 .LVL17
     /tmp/ccVaVtHP.s:150    .text:00000000000000cc .LVL15
     /tmp/ccVaVtHP.s:36     .text:0000000000000014 .LVL0
     /tmp/ccVaVtHP.s:40     .text:0000000000000018 .LVL1
     /tmp/ccVaVtHP.s:52     .text:0000000000000034 .LVL3
     /tmp/ccVaVtHP.s:54     .text:0000000000000038 .LVL4
     /tmp/ccVaVtHP.s:86     .text:000000000000006c .LVL8
     /tmp/ccVaVtHP.s:71     .text:0000000000000058 .LVL6
     /tmp/ccVaVtHP.s:485    .debug_info:0000000000000000 .Ldebug_info0

UNDEFINED SYMBOLS
_Z11printStringPKc
_ZN7_thread7runningE
_Z15thread_dispatchv
_Z13thread_createPP7_threadPFvPvES2_
_ZN5Riscv16interruptRoutineEv
