GAS LISTING /tmp/ccGDJBEQ.s 			page 1


   1              		.file	"syscall_c.cpp"
   2              		.option nopic
   3              		.option norelax
   4              		.attribute arch, "rv64i2p0_m2p0_a2p0"
   5              		.attribute unaligned_access, 0
   6              		.attribute stack_align, 16
   7              		.text
   8              	.Ltext0:
   9              		.align	2
  10              		.globl	_Z13thread_createPP7_threadPFvPvES2_
  12              	_Z13thread_createPP7_threadPFvPvES2_:
  13              	.LFB16:
  14              		.file 1 "src/syscall_c.cpp"
   1:src/syscall_c.cpp **** //
   2:src/syscall_c.cpp **** // Created by basara on 20.6.24..
   3:src/syscall_c.cpp **** //
   4:src/syscall_c.cpp **** 
   5:src/syscall_c.cpp **** 
   6:src/syscall_c.cpp **** #include "../lib/hw.h"
   7:src/syscall_c.cpp **** #include "../h/_thread.hpp"
   8:src/syscall_c.cpp **** 
   9:src/syscall_c.cpp **** int thread_create(thread_t* handle, void(*start_routine)(void*), void* arg){
  15              		.loc 1 9 76
  16              		.cfi_startproc
  17              	.LVL0:
  18 0000 130101FF 		addi	sp,sp,-16
  19              		.cfi_def_cfa_offset 16
  20 0004 23348100 		sd	s0,8(sp)
  21              		.cfi_offset 8, -8
  22 0008 13040101 		addi	s0,sp,16
  23              		.cfi_def_cfa 8, 0
  10:src/syscall_c.cpp ****     uint64 const fcode = 0x11;
  24              		.loc 1 10 5
  25              	.LVL1:
  11:src/syscall_c.cpp ****     __asm__ volatile("mv a3, %0" : : "r"(arg));
  26              		.loc 1 11 5
  27              		.loc 1 11 47 is_stmt 0
  28              	 #APP
  29              	# 11 "src/syscall_c.cpp" 1
  12              	    __asm__ volatile("mv a2, %0" : : "r"(start_routine));
  30              		mv a3, a2
  31              	# 0 "" 2
  32              		.loc 1 12 5 is_stmt 1
  33              		.loc 1 12 57 is_stmt 0
  34              	# 12 "src/syscall_c.cpp" 1
  13              	    __asm__ volatile("mv a1, %0" : : "r"(handle));
  35              		mv a2, a1
  36              	# 0 "" 2
  37              		.loc 1 13 5 is_stmt 1
  38              		.loc 1 13 50 is_stmt 0
  39              	# 13 "src/syscall_c.cpp" 1
  14              	    __asm__ volatile("mv a0, %0" : : "r"(fcode));
  40              		mv a1, a0
  41              	# 0 "" 2
  42              		.loc 1 14 5 is_stmt 1
  43              		.loc 1 14 49 is_stmt 0
  44              	 #NO_APP
GAS LISTING /tmp/ccGDJBEQ.s 			page 2


  45 0018 93071001 		li	a5,17
  46              	 #APP
  47              	# 14 "src/syscall_c.cpp" 1
  15              	    __asm__ volatile("ecall");
  48              		mv a0, a5
  49              	# 0 "" 2
  50              		.loc 1 15 5 is_stmt 1
  51              		.loc 1 15 30 is_stmt 0
  52              	# 15 "src/syscall_c.cpp" 1
  16              	    return 0;
  53              		ecall
  54              	# 0 "" 2
  55              		.loc 1 16 5 is_stmt 1
  17:src/syscall_c.cpp ****     //dodati promenljivu za povratnu vrednost
  18:src/syscall_c.cpp **** }
  56              		.loc 1 18 1 is_stmt 0
  57              	 #NO_APP
  58 0024 13050000 		li	a0,0
  59              	.LVL2:
  60 0028 03348100 		ld	s0,8(sp)
  61              		.cfi_restore 8
  62              		.cfi_def_cfa 2, 16
  63 002c 13010101 		addi	sp,sp,16
  64              		.cfi_def_cfa_offset 0
  65 0030 67800000 		jr	ra
  66              		.cfi_endproc
  67              	.LFE16:
  69              		.align	2
  70              		.globl	_Z15thread_dispatchv
  72              	_Z15thread_dispatchv:
  73              	.LFB17:
  19:src/syscall_c.cpp **** 
  20:src/syscall_c.cpp **** void thread_dispatch(){
  74              		.loc 1 20 23 is_stmt 1
  75              		.cfi_startproc
  76 0034 130101FF 		addi	sp,sp,-16
  77              		.cfi_def_cfa_offset 16
  78 0038 23348100 		sd	s0,8(sp)
  79              		.cfi_offset 8, -8
  80 003c 13040101 		addi	s0,sp,16
  81              		.cfi_def_cfa 8, 0
  21:src/syscall_c.cpp ****     uint64 const fcode = 0x13;
  82              		.loc 1 21 5
  83              	.LVL3:
  22:src/syscall_c.cpp ****     __asm__ volatile("mv a0, %0" : : "r"(fcode));
  84              		.loc 1 22 5
  85              		.loc 1 22 49 is_stmt 0
  86 0040 93073001 		li	a5,19
  87              	 #APP
  88              	# 22 "src/syscall_c.cpp" 1
  23              	    __asm__ volatile("ecall");
  89              		mv a0, a5
  90              	# 0 "" 2
  91              		.loc 1 23 5 is_stmt 1
  92              		.loc 1 23 30 is_stmt 0
  93              	# 23 "src/syscall_c.cpp" 1
  24              	}
GAS LISTING /tmp/ccGDJBEQ.s 			page 3


  94              		ecall
  95              	# 0 "" 2
  96              		.loc 1 24 1
  97              	 #NO_APP
  98 004c 03348100 		ld	s0,8(sp)
  99              		.cfi_restore 8
 100              		.cfi_def_cfa 2, 16
 101 0050 13010101 		addi	sp,sp,16
 102              		.cfi_def_cfa_offset 0
 103 0054 67800000 		jr	ra
 104              		.cfi_endproc
 105              	.LFE17:
 107              		.align	2
 108              		.globl	_Z11thread_exitv
 110              	_Z11thread_exitv:
 111              	.LFB18:
  25:src/syscall_c.cpp **** 
  26:src/syscall_c.cpp **** void thread_exit(){
 112              		.loc 1 26 19 is_stmt 1
 113              		.cfi_startproc
 114 0058 130101FF 		addi	sp,sp,-16
 115              		.cfi_def_cfa_offset 16
 116 005c 23348100 		sd	s0,8(sp)
 117              		.cfi_offset 8, -8
 118 0060 13040101 		addi	s0,sp,16
 119              		.cfi_def_cfa 8, 0
  27:src/syscall_c.cpp ****     uint64 const fcode = 0x12;
 120              		.loc 1 27 5
 121              	.LVL4:
  28:src/syscall_c.cpp ****     __asm__ volatile("mv a0, %0" : : "r"(fcode));
 122              		.loc 1 28 5
 123              		.loc 1 28 49 is_stmt 0
 124 0064 93072001 		li	a5,18
 125              	 #APP
 126              	# 28 "src/syscall_c.cpp" 1
  29              	    __asm__ volatile("ecall");
 127              		mv a0, a5
 128              	# 0 "" 2
 129              		.loc 1 29 5 is_stmt 1
 130              		.loc 1 29 30 is_stmt 0
 131              	# 29 "src/syscall_c.cpp" 1
  30              	}...
 132              		ecall
 133              	# 0 "" 2
 134              		.loc 1 30 1
 135              	 #NO_APP
 136 0070 03348100 		ld	s0,8(sp)
 137              		.cfi_restore 8
 138              		.cfi_def_cfa 2, 16
 139 0074 13010101 		addi	sp,sp,16
 140              		.cfi_def_cfa_offset 0
 141 0078 67800000 		jr	ra
 142              		.cfi_endproc
 143              	.LFE18:
 145              	.Letext0:
 146              		.file 2 "src/../lib/hw.h"
 147              		.file 3 "src/../h/_thread.hpp"
GAS LISTING /tmp/ccGDJBEQ.s 			page 4


GAS LISTING /tmp/ccGDJBEQ.s 			page 5


DEFINED SYMBOLS
                            *ABS*:0000000000000000 syscall_c.cpp
     /tmp/ccGDJBEQ.s:12     .text:0000000000000000 _Z13thread_createPP7_threadPFvPvES2_
     /tmp/ccGDJBEQ.s:16     .text:0000000000000000 .L0 
     /tmp/ccGDJBEQ.s:18     .text:0000000000000000 .L0 
     /tmp/ccGDJBEQ.s:19     .text:0000000000000004 .L0 
     /tmp/ccGDJBEQ.s:21     .text:0000000000000008 .L0 
     /tmp/ccGDJBEQ.s:23     .text:000000000000000c .L0 
     /tmp/ccGDJBEQ.s:26     .text:000000000000000c .L0 
     /tmp/ccGDJBEQ.s:27     .text:000000000000000c .L0 
   src/syscall_c.cpp:11     .text:000000000000000c .L0 
     /tmp/ccGDJBEQ.s:33     .text:0000000000000010 .L0 
   src/syscall_c.cpp:12     .text:0000000000000010 .L0 
     /tmp/ccGDJBEQ.s:38     .text:0000000000000014 .L0 
   src/syscall_c.cpp:13     .text:0000000000000014 .L0 
     /tmp/ccGDJBEQ.s:43     .text:0000000000000018 .L0 
     /tmp/ccGDJBEQ.s:45     .text:0000000000000018 .L0 
     /tmp/ccGDJBEQ.s:51     .text:0000000000000020 .L0 
   src/syscall_c.cpp:15     .text:0000000000000020 .L0 
     /tmp/ccGDJBEQ.s:56     .text:0000000000000024 .L0 
     /tmp/ccGDJBEQ.s:58     .text:0000000000000024 .L0 
     /tmp/ccGDJBEQ.s:61     .text:000000000000002c .L0 
     /tmp/ccGDJBEQ.s:62     .text:000000000000002c .L0 
     /tmp/ccGDJBEQ.s:64     .text:0000000000000030 .L0 
     /tmp/ccGDJBEQ.s:66     .text:0000000000000034 .L0 
     /tmp/ccGDJBEQ.s:72     .text:0000000000000034 _Z15thread_dispatchv
     /tmp/ccGDJBEQ.s:75     .text:0000000000000034 .L0 
     /tmp/ccGDJBEQ.s:76     .text:0000000000000034 .L0 
     /tmp/ccGDJBEQ.s:77     .text:0000000000000038 .L0 
     /tmp/ccGDJBEQ.s:79     .text:000000000000003c .L0 
     /tmp/ccGDJBEQ.s:81     .text:0000000000000040 .L0 
     /tmp/ccGDJBEQ.s:84     .text:0000000000000040 .L0 
     /tmp/ccGDJBEQ.s:85     .text:0000000000000040 .L0 
     /tmp/ccGDJBEQ.s:86     .text:0000000000000040 .L0 
     /tmp/ccGDJBEQ.s:92     .text:0000000000000048 .L0 
   src/syscall_c.cpp:23     .text:0000000000000048 .L0 
     /tmp/ccGDJBEQ.s:98     .text:000000000000004c .L0 
     /tmp/ccGDJBEQ.s:99     .text:0000000000000050 .L0 
     /tmp/ccGDJBEQ.s:100    .text:0000000000000050 .L0 
     /tmp/ccGDJBEQ.s:102    .text:0000000000000054 .L0 
     /tmp/ccGDJBEQ.s:104    .text:0000000000000058 .L0 
     /tmp/ccGDJBEQ.s:110    .text:0000000000000058 _Z11thread_exitv
     /tmp/ccGDJBEQ.s:113    .text:0000000000000058 .L0 
     /tmp/ccGDJBEQ.s:114    .text:0000000000000058 .L0 
     /tmp/ccGDJBEQ.s:115    .text:000000000000005c .L0 
     /tmp/ccGDJBEQ.s:117    .text:0000000000000060 .L0 
     /tmp/ccGDJBEQ.s:119    .text:0000000000000064 .L0 
     /tmp/ccGDJBEQ.s:122    .text:0000000000000064 .L0 
     /tmp/ccGDJBEQ.s:123    .text:0000000000000064 .L0 
     /tmp/ccGDJBEQ.s:124    .text:0000000000000064 .L0 
     /tmp/ccGDJBEQ.s:130    .text:000000000000006c .L0 
   src/syscall_c.cpp:29     .text:000000000000006c .L0 
     /tmp/ccGDJBEQ.s:136    .text:0000000000000070 .L0 
     /tmp/ccGDJBEQ.s:137    .text:0000000000000074 .L0 
     /tmp/ccGDJBEQ.s:138    .text:0000000000000074 .L0 
     /tmp/ccGDJBEQ.s:140    .text:0000000000000078 .L0 
     /tmp/ccGDJBEQ.s:142    .text:000000000000007c .L0 
GAS LISTING /tmp/ccGDJBEQ.s 			page 6


     /tmp/ccGDJBEQ.s:148    .text:000000000000007c .L0 
     /tmp/ccGDJBEQ.s:579    .debug_abbrev:0000000000000000 .Ldebug_abbrev0
     /tmp/ccGDJBEQ.s:1184   .debug_str:0000000000000062 .LASF38
     /tmp/ccGDJBEQ.s:1278   .debug_str:00000000000003fb .LASF39
     /tmp/ccGDJBEQ.s:1228   .debug_str:0000000000000283 .LASF40
     /tmp/ccGDJBEQ.s:8      .text:0000000000000000 .Ltext0
     /tmp/ccGDJBEQ.s:145    .text:000000000000007c .Letext0
     /tmp/ccGDJBEQ.s:1172   .debug_line:0000000000000000 .Ldebug_line0
     /tmp/ccGDJBEQ.s:1240   .debug_str:00000000000002dc .LASF0
     /tmp/ccGDJBEQ.s:1220   .debug_str:000000000000024d .LASF1
     /tmp/ccGDJBEQ.s:1214   .debug_str:0000000000000212 .LASF2
     /tmp/ccGDJBEQ.s:1188   .debug_str:0000000000000134 .LASF4
     /tmp/ccGDJBEQ.s:1218   .debug_str:000000000000023b .LASF3
     /tmp/ccGDJBEQ.s:1178   .debug_str:0000000000000027 .LASF5
     /tmp/ccGDJBEQ.s:1176   .debug_str:0000000000000014 .LASF6
     /tmp/ccGDJBEQ.s:1202   .debug_str:00000000000001c7 .LASF7
     /tmp/ccGDJBEQ.s:1248   .debug_str:0000000000000322 .LASF8
     /tmp/ccGDJBEQ.s:1186   .debug_str:0000000000000126 .LASF9
     /tmp/ccGDJBEQ.s:1280   .debug_str:000000000000040d .LASF10
     /tmp/ccGDJBEQ.s:1208   .debug_str:00000000000001f3 .LASF11
     /tmp/ccGDJBEQ.s:1268   .debug_str:000000000000039d .LASF12
     /tmp/ccGDJBEQ.s:1256   .debug_str:0000000000000359 .LASF13
     /tmp/ccGDJBEQ.s:1226   .debug_str:0000000000000277 .LASF14
     /tmp/ccGDJBEQ.s:1194   .debug_str:0000000000000146 .LASF15
     /tmp/ccGDJBEQ.s:1250   .debug_str:0000000000000332 .LASF16
     /tmp/ccGDJBEQ.s:1260   .debug_str:0000000000000379 .LASF41
     /tmp/ccGDJBEQ.s:1274   .debug_str:00000000000003d8 .LASF42
     /tmp/ccGDJBEQ.s:1242   .debug_str:00000000000002e9 .LASF43
     /tmp/ccGDJBEQ.s:1212   .debug_str:0000000000000209 .LASF17
     /tmp/ccGDJBEQ.s:1232   .debug_str:00000000000002b3 .LASF19
     /tmp/ccGDJBEQ.s:1206   .debug_str:00000000000001e8 .LASF29
     /tmp/ccGDJBEQ.s:1180   .debug_str:000000000000002e .LASF31
     /tmp/ccGDJBEQ.s:1244   .debug_str:00000000000002f1 .LASF18
     /tmp/ccGDJBEQ.s:1276   .debug_str:00000000000003e0 .LASF20
     /tmp/ccGDJBEQ.s:1204   .debug_str:00000000000001da .LASF21
     /tmp/ccGDJBEQ.s:1200   .debug_str:000000000000019d .LASF22
     /tmp/ccGDJBEQ.s:1190   .debug_str:000000000000013b .LASF44
     /tmp/ccGDJBEQ.s:1238   .debug_str:00000000000002d6 .LASF45
     /tmp/ccGDJBEQ.s:1174   .debug_str:0000000000000000 .LASF46
     /tmp/ccGDJBEQ.s:1270   .debug_str:00000000000003ad .LASF30
     /tmp/ccGDJBEQ.s:1216   .debug_str:0000000000000220 .LASF47
     /tmp/ccGDJBEQ.s:1182   .debug_str:0000000000000049 .LASF48
     /tmp/ccGDJBEQ.s:1234   .debug_str:00000000000002c3 .LASF23
     /tmp/ccGDJBEQ.s:1192   .debug_str:0000000000000140 .LASF24
     /tmp/ccGDJBEQ.s:1254   .debug_str:0000000000000351 .LASF25
     /tmp/ccGDJBEQ.s:1224   .debug_str:000000000000026e .LASF26
     /tmp/ccGDJBEQ.s:1230   .debug_str:00000000000002a5 .LASF49
     /tmp/ccGDJBEQ.s:1198   .debug_str:0000000000000171 .LASF50
     /tmp/ccGDJBEQ.s:1258   .debug_str:0000000000000369 .LASF34
     /tmp/ccGDJBEQ.s:1272   .debug_str:00000000000003b9 .LASF51
     /tmp/ccGDJBEQ.s:1252   .debug_str:0000000000000348 .LASF27
     /tmp/ccGDJBEQ.s:1266   .debug_str:0000000000000398 .LASF28
     /tmp/ccGDJBEQ.s:1264   .debug_str:0000000000000387 .LASF32
     /tmp/ccGDJBEQ.s:111    .text:0000000000000058 .LFB18
     /tmp/ccGDJBEQ.s:143    .text:000000000000007c .LFE18
     /tmp/ccGDJBEQ.s:1262   .debug_str:0000000000000381 .LASF33
     /tmp/ccGDJBEQ.s:1196   .debug_str:000000000000015c .LASF35
GAS LISTING /tmp/ccGDJBEQ.s 			page 7


     /tmp/ccGDJBEQ.s:73     .text:0000000000000034 .LFB17
     /tmp/ccGDJBEQ.s:105    .text:0000000000000058 .LFE17
     /tmp/ccGDJBEQ.s:1222   .debug_str:0000000000000260 .LASF52
     /tmp/ccGDJBEQ.s:1246   .debug_str:00000000000002fd .LASF53
     /tmp/ccGDJBEQ.s:13     .text:0000000000000000 .LFB16
     /tmp/ccGDJBEQ.s:67     .text:0000000000000034 .LFE16
     /tmp/ccGDJBEQ.s:1210   .debug_str:0000000000000202 .LASF36
     /tmp/ccGDJBEQ.s:1145   .debug_loc:0000000000000000 .LLST0
     /tmp/ccGDJBEQ.s:1236   .debug_str:00000000000002c8 .LASF37
     /tmp/ccGDJBEQ.s:17     .text:0000000000000000 .LVL0
     /tmp/ccGDJBEQ.s:59     .text:0000000000000028 .LVL2
     /tmp/ccGDJBEQ.s:149    .debug_info:0000000000000000 .Ldebug_info0

NO UNDEFINED SYMBOLS
