GAS LISTING /tmp/ccw4Swci.s 			page 1


   1              		.file	"syscall_c.cpp"
   2              		.option nopic
   3              		.option norelax
   4              		.attribute arch, "rv64i2p0_m2p0_a2p0"
   5              		.attribute unaligned_access, 0
   6              		.attribute stack_align, 16
   7              		.text
   8              	.Ltext0:
   9              		.align	2
  10              		.globl	_Z13thread_createPP7_threadPFvPvES2_
  12              	_Z13thread_createPP7_threadPFvPvES2_:
  13              	.LFB8:
  14              		.file 1 "src/syscall_c.cpp"
   1:src/syscall_c.cpp **** //
   2:src/syscall_c.cpp **** // Created by basara on 20.6.24..
   3:src/syscall_c.cpp **** //
   4:src/syscall_c.cpp **** 
   5:src/syscall_c.cpp **** 
   6:src/syscall_c.cpp **** #include "../lib/hw.h"
   7:src/syscall_c.cpp **** #include "../lib/console.h"
   8:src/syscall_c.cpp **** #include "../h/syscall_c.hpp"
   9:src/syscall_c.cpp **** 
  10:src/syscall_c.cpp **** int thread_create(thread_t* handle, void(*start_routine)(void*), void* arg){
  15              		.loc 1 10 76
  16              		.cfi_startproc
  17              	.LVL0:
  18 0000 130101FF 		addi	sp,sp,-16
  19              		.cfi_def_cfa_offset 16
  20 0004 23348100 		sd	s0,8(sp)
  21              		.cfi_offset 8, -8
  22 0008 13040101 		addi	s0,sp,16
  23              		.cfi_def_cfa 8, 0
  11:src/syscall_c.cpp ****     uint64 const fcode = 0x11;
  24              		.loc 1 11 5
  25              	.LVL1:
  12:src/syscall_c.cpp ****     int retval;
  26              		.loc 1 12 5
  13:src/syscall_c.cpp ****     __asm__ volatile("mv a3, %0" : : "r"(arg));
  27              		.loc 1 13 5
  28              		.loc 1 13 47 is_stmt 0
  29              	 #APP
  30              	# 13 "src/syscall_c.cpp" 1
  14              	    __asm__ volatile("mv a2, %0" : : "r"(start_routine));
  31              		mv a3, a2
  32              	# 0 "" 2
  33              		.loc 1 14 5 is_stmt 1
  34              		.loc 1 14 57 is_stmt 0
  35              	# 14 "src/syscall_c.cpp" 1
  15              	    __asm__ volatile("mv a1, %0" : : "r"(handle));
  36              		mv a2, a1
  37              	# 0 "" 2
  38              		.loc 1 15 5 is_stmt 1
  39              		.loc 1 15 50 is_stmt 0
  40              	# 15 "src/syscall_c.cpp" 1
  16              	    __asm__ volatile("mv a0, %0" : : "r"(fcode));
  41              		mv a1, a0
  42              	# 0 "" 2
GAS LISTING /tmp/ccw4Swci.s 			page 2


  43              		.loc 1 16 5 is_stmt 1
  44              		.loc 1 16 49 is_stmt 0
  45              	 #NO_APP
  46 0018 93071001 		li	a5,17
  47              	 #APP
  48              	# 16 "src/syscall_c.cpp" 1
  17              	    __asm__ volatile("ecall");
  49              		mv a0, a5
  50              	# 0 "" 2
  51              		.loc 1 17 5 is_stmt 1
  52              		.loc 1 17 30 is_stmt 0
  53              	# 17 "src/syscall_c.cpp" 1
  18              	    asm volatile("mv %0, a0" : "=r" (retval)); // c <- a0
  54              		ecall
  55              	# 0 "" 2
  56              		.loc 1 18 5 is_stmt 1
  57              		.loc 1 18 46 is_stmt 0
  58              	# 18 "src/syscall_c.cpp" 1
  19              	    return retval;//PROVERITI DA LI JE UREDU
  59              		mv a0, a0
  60              	# 0 "" 2
  61              	.LVL2:
  62              		.loc 1 19 5 is_stmt 1
  20:src/syscall_c.cpp **** 
  21:src/syscall_c.cpp ****     //dodati promenljivu za povratnu vrednost
  22:src/syscall_c.cpp **** }
  63              		.loc 1 22 1 is_stmt 0
  64              	 #NO_APP
  65 0028 1B050500 		sext.w	a0,a0
  66 002c 03348100 		ld	s0,8(sp)
  67              		.cfi_restore 8
  68              		.cfi_def_cfa 2, 16
  69 0030 13010101 		addi	sp,sp,16
  70              		.cfi_def_cfa_offset 0
  71 0034 67800000 		jr	ra
  72              		.cfi_endproc
  73              	.LFE8:
  75              		.align	2
  76              		.globl	_Z15thread_dispatchv
  78              	_Z15thread_dispatchv:
  79              	.LFB9:
  23:src/syscall_c.cpp **** 
  24:src/syscall_c.cpp **** void thread_dispatch(){
  80              		.loc 1 24 23 is_stmt 1
  81              		.cfi_startproc
  82 0038 130101FF 		addi	sp,sp,-16
  83              		.cfi_def_cfa_offset 16
  84 003c 23348100 		sd	s0,8(sp)
  85              		.cfi_offset 8, -8
  86 0040 13040101 		addi	s0,sp,16
  87              		.cfi_def_cfa 8, 0
  25:src/syscall_c.cpp ****     uint64 const fcode = 0x13;
  88              		.loc 1 25 5
  89              	.LVL3:
  26:src/syscall_c.cpp ****     __asm__ volatile("mv a0, %0" : : "r"(fcode));
  90              		.loc 1 26 5
  91              		.loc 1 26 49 is_stmt 0
GAS LISTING /tmp/ccw4Swci.s 			page 3


  92 0044 93073001 		li	a5,19
  93              	 #APP
  94              	# 26 "src/syscall_c.cpp" 1
  27              	    __asm__ volatile("ecall");
  95              		mv a0, a5
  96              	# 0 "" 2
  97              		.loc 1 27 5 is_stmt 1
  98              		.loc 1 27 30 is_stmt 0
  99              	# 27 "src/syscall_c.cpp" 1
  28              	}
 100              		ecall
 101              	# 0 "" 2
 102              		.loc 1 28 1
 103              	 #NO_APP
 104 0050 03348100 		ld	s0,8(sp)
 105              		.cfi_restore 8
 106              		.cfi_def_cfa 2, 16
 107 0054 13010101 		addi	sp,sp,16
 108              		.cfi_def_cfa_offset 0
 109 0058 67800000 		jr	ra
 110              		.cfi_endproc
 111              	.LFE9:
 113              		.align	2
 114              		.globl	_Z11thread_exitv
 116              	_Z11thread_exitv:
 117              	.LFB10:
  29:src/syscall_c.cpp **** 
  30:src/syscall_c.cpp **** int thread_exit(){
 118              		.loc 1 30 18 is_stmt 1
 119              		.cfi_startproc
 120 005c 130101FF 		addi	sp,sp,-16
 121              		.cfi_def_cfa_offset 16
 122 0060 23348100 		sd	s0,8(sp)
 123              		.cfi_offset 8, -8
 124 0064 13040101 		addi	s0,sp,16
 125              		.cfi_def_cfa 8, 0
  31:src/syscall_c.cpp ****     uint64 const fcode = 0x12;
 126              		.loc 1 31 5
 127              	.LVL4:
  32:src/syscall_c.cpp ****     int retval;
 128              		.loc 1 32 5
  33:src/syscall_c.cpp ****     __asm__ volatile("mv a0, %0" : : "r"(fcode));
 129              		.loc 1 33 5
 130              		.loc 1 33 49 is_stmt 0
 131 0068 93072001 		li	a5,18
 132              	 #APP
 133              	# 33 "src/syscall_c.cpp" 1
  34              	    __asm__ volatile("ecall");
 134              		mv a0, a5
 135              	# 0 "" 2
 136              		.loc 1 34 5 is_stmt 1
 137              		.loc 1 34 30 is_stmt 0
 138              	# 34 "src/syscall_c.cpp" 1
  35              	    asm volatile("mv %0, a0" : "=r" (retval));
 139              		ecall
 140              	# 0 "" 2
 141              		.loc 1 35 5 is_stmt 1
GAS LISTING /tmp/ccw4Swci.s 			page 4


 142              		.loc 1 35 46 is_stmt 0
 143              	# 35 "src/syscall_c.cpp" 1
  36              	    return retval;
 144              		mv a0, a0
 145              	# 0 "" 2
 146              	.LVL5:
 147              		.loc 1 36 5 is_stmt 1
  37:src/syscall_c.cpp **** }
 148              		.loc 1 37 1 is_stmt 0
 149              	 #NO_APP
 150 0078 1B050500 		sext.w	a0,a0
 151 007c 03348100 		ld	s0,8(sp)
 152              		.cfi_restore 8
 153              		.cfi_def_cfa 2, 16
 154 0080 13010101 		addi	sp,sp,16
 155              		.cfi_def_cfa_offset 0
 156 0084 67800000 		jr	ra
 157              		.cfi_endproc
 158              	.LFE10:
 160              		.align	2
 161              		.globl	_Z4getcv
 163              	_Z4getcv:
 164              	.LFB11:
  38:src/syscall_c.cpp **** 
  39:src/syscall_c.cpp **** char getc(){
 165              		.loc 1 39 12 is_stmt 1
 166              		.cfi_startproc
 167 0088 130101FF 		addi	sp,sp,-16
 168              		.cfi_def_cfa_offset 16
 169 008c 23348100 		sd	s0,8(sp)
 170              		.cfi_offset 8, -8
 171 0090 13040101 		addi	s0,sp,16
 172              		.cfi_def_cfa 8, 0
  40:src/syscall_c.cpp ****     uint64 const fcode = 0x41;
 173              		.loc 1 40 5
 174              	.LVL6:
  41:src/syscall_c.cpp ****     char ch;
 175              		.loc 1 41 5
  42:src/syscall_c.cpp ****     __asm__ volatile("mv a0, %0" : : "r"(fcode));
 176              		.loc 1 42 5
 177              		.loc 1 42 49 is_stmt 0
 178 0094 93071004 		li	a5,65
 179              	 #APP
 180              	# 42 "src/syscall_c.cpp" 1
  43              	    __asm__ volatile("ecall");
 181              		mv a0, a5
 182              	# 0 "" 2
 183              		.loc 1 43 5 is_stmt 1
 184              		.loc 1 43 30 is_stmt 0
 185              	# 43 "src/syscall_c.cpp" 1
  44              	    asm volatile("mv %0, a0" : "=r" (ch));
 186              		ecall
 187              	# 0 "" 2
 188              		.loc 1 44 5 is_stmt 1
 189              		.loc 1 44 42 is_stmt 0
 190              	# 44 "src/syscall_c.cpp" 1
  45              	    return ch;
GAS LISTING /tmp/ccw4Swci.s 			page 5


 191              		mv a0, a0
 192              	# 0 "" 2
 193              	.LVL7:
 194              		.loc 1 45 5 is_stmt 1
  46:src/syscall_c.cpp **** }
 195              		.loc 1 46 1 is_stmt 0
 196              	 #NO_APP
 197 00a4 1375F50F 		andi	a0,a0,0xff
 198 00a8 03348100 		ld	s0,8(sp)
 199              		.cfi_restore 8
 200              		.cfi_def_cfa 2, 16
 201 00ac 13010101 		addi	sp,sp,16
 202              		.cfi_def_cfa_offset 0
 203 00b0 67800000 		jr	ra
 204              		.cfi_endproc
 205              	.LFE11:
 207              		.align	2
 208              		.globl	_Z4putcc
 210              	_Z4putcc:
 211              	.LFB12:
  47:src/syscall_c.cpp **** 
  48:src/syscall_c.cpp **** void putc(char c){
 212              		.loc 1 48 18 is_stmt 1
 213              		.cfi_startproc
 214              	.LVL8:
 215 00b4 130101FF 		addi	sp,sp,-16
 216              		.cfi_def_cfa_offset 16
 217 00b8 23341100 		sd	ra,8(sp)
 218 00bc 23308100 		sd	s0,0(sp)
 219              		.cfi_offset 1, -8
 220              		.cfi_offset 8, -16
 221 00c0 13040101 		addi	s0,sp,16
 222              		.cfi_def_cfa 8, 0
  49:src/syscall_c.cpp ****     __putc(c);
 223              		.loc 1 49 5
 224              		.loc 1 49 11 is_stmt 0
 225 00c4 97000000 		call	__putc
 225      E7800000 
 226              	.LVL9:
  50:src/syscall_c.cpp **** }
 227              		.loc 1 50 1
 228 00cc 83308100 		ld	ra,8(sp)
 229              		.cfi_restore 1
 230 00d0 03340100 		ld	s0,0(sp)
 231              		.cfi_restore 8
 232              		.cfi_def_cfa 2, 16
 233 00d4 13010101 		addi	sp,sp,16
 234              		.cfi_def_cfa_offset 0
 235 00d8 67800000 		jr	ra
 236              		.cfi_endproc
 237              	.LFE12:
 239              		.align	2
 240              		.globl	_Z8sem_openPP4_semj
 242              	_Z8sem_openPP4_semj:
 243              	.LFB13:
  51:src/syscall_c.cpp **** 
  52:src/syscall_c.cpp **** int sem_open(sem_t* handle, unsigned init){
GAS LISTING /tmp/ccw4Swci.s 			page 6


 244              		.loc 1 52 43 is_stmt 1
 245              		.cfi_startproc
 246              	.LVL10:
 247 00dc 130101FF 		addi	sp,sp,-16
 248              		.cfi_def_cfa_offset 16
 249 00e0 23348100 		sd	s0,8(sp)
 250              		.cfi_offset 8, -8
 251 00e4 13040101 		addi	s0,sp,16
 252              		.cfi_def_cfa 8, 0
  53:src/syscall_c.cpp ****     uint64 const fcode = 0x21;
 253              		.loc 1 53 5
 254              	.LVL11:
  54:src/syscall_c.cpp ****     int retval;
 255              		.loc 1 54 5
  55:src/syscall_c.cpp ****     __asm__ volatile("mv a2, %0" : : "r"(init));
 256              		.loc 1 55 5
 257              		.loc 1 55 48 is_stmt 0
 258              	 #APP
 259              	# 55 "src/syscall_c.cpp" 1
  56              	    __asm__ volatile("mv a1, %0" : : "r"(handle));
 260              		mv a2, a1
 261              	# 0 "" 2
 262              		.loc 1 56 5 is_stmt 1
 263              		.loc 1 56 50 is_stmt 0
 264              	# 56 "src/syscall_c.cpp" 1
  57              	    __asm__ volatile("mv a0, %0" : : "r"(fcode));
 265              		mv a1, a0
 266              	# 0 "" 2
 267              		.loc 1 57 5 is_stmt 1
 268              		.loc 1 57 49 is_stmt 0
 269              	 #NO_APP
 270 00f0 93071002 		li	a5,33
 271              	 #APP
 272              	# 57 "src/syscall_c.cpp" 1
  58              	    __asm__ volatile("ecall");
 273              		mv a0, a5
 274              	# 0 "" 2
 275              		.loc 1 58 5 is_stmt 1
 276              		.loc 1 58 30 is_stmt 0
 277              	# 58 "src/syscall_c.cpp" 1
  59              	    asm volatile("mv %0, a0" : "=r" (retval)); // c <- a0
 278              		ecall
 279              	# 0 "" 2
 280              		.loc 1 59 5 is_stmt 1
 281              		.loc 1 59 46 is_stmt 0
 282              	# 59 "src/syscall_c.cpp" 1
  60              	    return retval;
 283              		mv a0, a0
 284              	# 0 "" 2
 285              	.LVL12:
 286              		.loc 1 60 5 is_stmt 1
  61:src/syscall_c.cpp **** }
 287              		.loc 1 61 1 is_stmt 0
 288              	 #NO_APP
 289 0100 1B050500 		sext.w	a0,a0
 290 0104 03348100 		ld	s0,8(sp)
 291              		.cfi_restore 8
GAS LISTING /tmp/ccw4Swci.s 			page 7


 292              		.cfi_def_cfa 2, 16
 293 0108 13010101 		addi	sp,sp,16
 294              		.cfi_def_cfa_offset 0
 295 010c 67800000 		jr	ra
 296              		.cfi_endproc
 297              	.LFE13:
 299              		.align	2
 300              		.globl	_Z9sem_closeP4_sem
 302              	_Z9sem_closeP4_sem:
 303              	.LFB14:
  62:src/syscall_c.cpp **** 
  63:src/syscall_c.cpp **** int sem_close(sem_t handle){
 304              		.loc 1 63 28 is_stmt 1
 305              		.cfi_startproc
 306              	.LVL13:
 307 0110 130101FF 		addi	sp,sp,-16
 308              		.cfi_def_cfa_offset 16
 309 0114 23348100 		sd	s0,8(sp)
 310              		.cfi_offset 8, -8
 311 0118 13040101 		addi	s0,sp,16
 312              		.cfi_def_cfa 8, 0
  64:src/syscall_c.cpp ****     uint64 const fcode = 0x22;
 313              		.loc 1 64 5
 314              	.LVL14:
  65:src/syscall_c.cpp ****     int retval;
 315              		.loc 1 65 5
  66:src/syscall_c.cpp ****     __asm__ volatile("mv a1, %0" : : "r"(handle));
 316              		.loc 1 66 5
 317              		.loc 1 66 50 is_stmt 0
 318              	 #APP
 319              	# 66 "src/syscall_c.cpp" 1
  67              	    __asm__ volatile("mv a0, %0" : : "r"(fcode));
 320              		mv a1, a0
 321              	# 0 "" 2
 322              		.loc 1 67 5 is_stmt 1
 323              		.loc 1 67 49 is_stmt 0
 324              	 #NO_APP
 325 0120 93072002 		li	a5,34
 326              	 #APP
 327              	# 67 "src/syscall_c.cpp" 1
  68              	    __asm__ volatile("ecall");
 328              		mv a0, a5
 329              	# 0 "" 2
 330              		.loc 1 68 5 is_stmt 1
 331              		.loc 1 68 30 is_stmt 0
 332              	# 68 "src/syscall_c.cpp" 1
  69              	    asm volatile("mv %0, a0" : "=r" (retval)); // c <- a0
 333              		ecall
 334              	# 0 "" 2
 335              		.loc 1 69 5 is_stmt 1
 336              		.loc 1 69 46 is_stmt 0
 337              	# 69 "src/syscall_c.cpp" 1
  70              	    return retval;
 338              		mv a0, a0
 339              	# 0 "" 2
 340              	.LVL15:
 341              		.loc 1 70 5 is_stmt 1
GAS LISTING /tmp/ccw4Swci.s 			page 8


  71:src/syscall_c.cpp **** }
 342              		.loc 1 71 1 is_stmt 0
 343              	 #NO_APP
 344 0130 1B050500 		sext.w	a0,a0
 345 0134 03348100 		ld	s0,8(sp)
 346              		.cfi_restore 8
 347              		.cfi_def_cfa 2, 16
 348 0138 13010101 		addi	sp,sp,16
 349              		.cfi_def_cfa_offset 0
 350 013c 67800000 		jr	ra
 351              		.cfi_endproc
 352              	.LFE14:
 354              		.align	2
 355              		.globl	_Z8sem_waitP4_sem
 357              	_Z8sem_waitP4_sem:
 358              	.LFB15:
  72:src/syscall_c.cpp **** 
  73:src/syscall_c.cpp **** int sem_wait(sem_t handle){
 359              		.loc 1 73 27 is_stmt 1
 360              		.cfi_startproc
 361              	.LVL16:
 362 0140 130101FF 		addi	sp,sp,-16
 363              		.cfi_def_cfa_offset 16
 364 0144 23348100 		sd	s0,8(sp)
 365              		.cfi_offset 8, -8
 366 0148 13040101 		addi	s0,sp,16
 367              		.cfi_def_cfa 8, 0
  74:src/syscall_c.cpp ****     uint64 const fcode = 0x23;
 368              		.loc 1 74 5
 369              	.LVL17:
  75:src/syscall_c.cpp ****     int retval;
 370              		.loc 1 75 5
  76:src/syscall_c.cpp ****     __asm__ volatile("mv a1, %0" : : "r"(handle));
 371              		.loc 1 76 5
 372              		.loc 1 76 50 is_stmt 0
 373              	 #APP
 374              	# 76 "src/syscall_c.cpp" 1
  77              	    __asm__ volatile("mv a0, %0" : : "r"(fcode));
 375              		mv a1, a0
 376              	# 0 "" 2
 377              		.loc 1 77 5 is_stmt 1
 378              		.loc 1 77 49 is_stmt 0
 379              	 #NO_APP
 380 0150 93073002 		li	a5,35
 381              	 #APP
 382              	# 77 "src/syscall_c.cpp" 1
  78              	    __asm__ volatile("ecall");
 383              		mv a0, a5
 384              	# 0 "" 2
 385              		.loc 1 78 5 is_stmt 1
 386              		.loc 1 78 30 is_stmt 0
 387              	# 78 "src/syscall_c.cpp" 1
  79              	    asm volatile("mv %0, a0" : "=r" (retval)); // c <- a0
 388              		ecall
 389              	# 0 "" 2
 390              		.loc 1 79 5 is_stmt 1
 391              		.loc 1 79 46 is_stmt 0
GAS LISTING /tmp/ccw4Swci.s 			page 9


 392              	# 79 "src/syscall_c.cpp" 1
  80              	    return retval;
 393              		mv a0, a0
 394              	# 0 "" 2
 395              	.LVL18:
 396              		.loc 1 80 5 is_stmt 1
  81:src/syscall_c.cpp **** }
 397              		.loc 1 81 1 is_stmt 0
 398              	 #NO_APP
 399 0160 1B050500 		sext.w	a0,a0
 400 0164 03348100 		ld	s0,8(sp)
 401              		.cfi_restore 8
 402              		.cfi_def_cfa 2, 16
 403 0168 13010101 		addi	sp,sp,16
 404              		.cfi_def_cfa_offset 0
 405 016c 67800000 		jr	ra
 406              		.cfi_endproc
 407              	.LFE15:
 409              		.align	2
 410              		.globl	_Z10sem_signalP4_sem
 412              	_Z10sem_signalP4_sem:
 413              	.LFB16:
  82:src/syscall_c.cpp **** 
  83:src/syscall_c.cpp **** int sem_signal(sem_t handle){
 414              		.loc 1 83 29 is_stmt 1
 415              		.cfi_startproc
 416              	.LVL19:
 417 0170 130101FF 		addi	sp,sp,-16
 418              		.cfi_def_cfa_offset 16
 419 0174 23348100 		sd	s0,8(sp)
 420              		.cfi_offset 8, -8
 421 0178 13040101 		addi	s0,sp,16
 422              		.cfi_def_cfa 8, 0
  84:src/syscall_c.cpp ****     uint64 const fcode = 0x24;
 423              		.loc 1 84 5
 424              	.LVL20:
  85:src/syscall_c.cpp ****     int retval;
 425              		.loc 1 85 5
  86:src/syscall_c.cpp ****     __asm__ volatile("mv a1, %0" : : "r"(handle));
 426              		.loc 1 86 5
 427              		.loc 1 86 50 is_stmt 0
 428              	 #APP
 429              	# 86 "src/syscall_c.cpp" 1
  87              	    __asm__ volatile("mv a0, %0" : : "r"(fcode));
 430              		mv a1, a0
 431              	# 0 "" 2
 432              		.loc 1 87 5 is_stmt 1
 433              		.loc 1 87 49 is_stmt 0
 434              	 #NO_APP
 435 0180 93074002 		li	a5,36
 436              	 #APP
 437              	# 87 "src/syscall_c.cpp" 1
  88              	    __asm__ volatile("ecall");
 438              		mv a0, a5
 439              	# 0 "" 2
 440              		.loc 1 88 5 is_stmt 1
 441              		.loc 1 88 30 is_stmt 0
GAS LISTING /tmp/ccw4Swci.s 			page 10


 442              	# 88 "src/syscall_c.cpp" 1
  89              	    asm volatile("mv %0, a0" : "=r" (retval)); // c <- a0
 443              		ecall
 444              	# 0 "" 2
 445              		.loc 1 89 5 is_stmt 1
 446              		.loc 1 89 46 is_stmt 0
 447              	# 89 "src/syscall_c.cpp" 1
  90              	    return retval;
 448              		mv a0, a0
 449              	# 0 "" 2
 450              	.LVL21:
 451              		.loc 1 90 5 is_stmt 1
  91:src/syscall_c.cpp **** }
 452              		.loc 1 91 1 is_stmt 0
 453              	 #NO_APP
 454 0190 1B050500 		sext.w	a0,a0
 455 0194 03348100 		ld	s0,8(sp)
 456              		.cfi_restore 8
 457              		.cfi_def_cfa 2, 16
 458 0198 13010101 		addi	sp,sp,16
 459              		.cfi_def_cfa_offset 0
 460 019c 67800000 		jr	ra
 461              		.cfi_endproc
 462              	.LFE16:
 464              		.align	2
 465              		.globl	_Z11sem_trywaitP4_sem
 467              	_Z11sem_trywaitP4_sem:
 468              	.LFB17:
  92:src/syscall_c.cpp **** 
  93:src/syscall_c.cpp **** int sem_trywait(sem_t handle){
 469              		.loc 1 93 30 is_stmt 1
 470              		.cfi_startproc
 471              	.LVL22:
 472 01a0 130101FF 		addi	sp,sp,-16
 473              		.cfi_def_cfa_offset 16
 474 01a4 23348100 		sd	s0,8(sp)
 475              		.cfi_offset 8, -8
 476 01a8 13040101 		addi	s0,sp,16
 477              		.cfi_def_cfa 8, 0
  94:src/syscall_c.cpp ****     uint64 const fcode = 0x26;
 478              		.loc 1 94 5
 479              	.LVL23:
  95:src/syscall_c.cpp ****     int retval;
 480              		.loc 1 95 5
  96:src/syscall_c.cpp ****     __asm__ volatile("mv a1, %0" : : "r"(handle));
 481              		.loc 1 96 5
 482              		.loc 1 96 50 is_stmt 0
 483              	 #APP
 484              	# 96 "src/syscall_c.cpp" 1
  97              	    __asm__ volatile("mv a0, %0" : : "r"(fcode));
 485              		mv a1, a0
 486              	# 0 "" 2
 487              		.loc 1 97 5 is_stmt 1
 488              		.loc 1 97 49 is_stmt 0
 489              	 #NO_APP
 490 01b0 93076002 		li	a5,38
 491              	 #APP
GAS LISTING /tmp/ccw4Swci.s 			page 11


 492              	# 97 "src/syscall_c.cpp" 1
  98              	    __asm__ volatile("ecall");
 493              		mv a0, a5
 494              	# 0 "" 2
 495              		.loc 1 98 5 is_stmt 1
 496              		.loc 1 98 30 is_stmt 0
 497              	# 98 "src/syscall_c.cpp" 1
  99              	    asm volatile("mv %0, a0" : "=r" (retval)); // c <- a0
 498              		ecall
 499              	# 0 "" 2
 500              		.loc 1 99 5 is_stmt 1
 501              		.loc 1 99 46 is_stmt 0
 502              	# 99 "src/syscall_c.cpp" 1
 100              	    return retval;
 503              		mv a0, a0
 504              	# 0 "" 2
 505              	.LVL24:
 506              		.loc 1 100 5 is_stmt 1
 101:src/syscall_c.cpp **** }
 507              		.loc 1 101 1 is_stmt 0
 508              	 #NO_APP
 509 01c0 1B050500 		sext.w	a0,a0
 510 01c4 03348100 		ld	s0,8(sp)
 511              		.cfi_restore 8
 512              		.cfi_def_cfa 2, 16
 513 01c8 13010101 		addi	sp,sp,16
 514              		.cfi_def_cfa_offset 0
 515 01cc 67800000 		jr	ra
 516              		.cfi_endproc
 517              	.LFE17:
 519              	.Letext0:
 520              		.file 2 "src/../lib/hw.h"
 521              		.file 3 "src/../h/syscall_c.hpp"
 522              		.file 4 "src/../lib/console.h"
GAS LISTING /tmp/ccw4Swci.s 			page 12

