GAS LISTING /tmp/ccVVIZwl.s 			page 1


   1              		.file	"syscall_c.cpp"
   2              		.option nopic
   3              		.option norelax
   4              		.attribute arch, "rv64i2p0_m2p0_a2p0"
   5              		.attribute unaligned_access, 0
   6              		.attribute stack_align, 16
   7              		.text
   8              	.Ltext0:
   9              		.align	2
  10              		.globl	_Z13thread_createPP7_threadPFvPvES2_
  12              	_Z13thread_createPP7_threadPFvPvES2_:
  13              	.LFB16:
  14              		.file 1 "src/syscall_c.cpp"
   1:src/syscall_c.cpp **** //
   2:src/syscall_c.cpp **** // Created by basara on 20.6.24..
   3:src/syscall_c.cpp **** //
   4:src/syscall_c.cpp **** 
   5:src/syscall_c.cpp **** 
   6:src/syscall_c.cpp **** #include "../lib/hw.h"
   7:src/syscall_c.cpp **** #include "../h/_thread.hpp"
   8:src/syscall_c.cpp **** #include "../lib/console.h"
   9:src/syscall_c.cpp **** 
  10:src/syscall_c.cpp **** int thread_create(thread_t* handle, void(*start_routine)(void*), void* arg){
  15              		.loc 1 10 76
  16              		.cfi_startproc
  17              	.LVL0:
  18 0000 130101FF 		addi	sp,sp,-16
  19              		.cfi_def_cfa_offset 16
  20 0004 23348100 		sd	s0,8(sp)
  21              		.cfi_offset 8, -8
  22 0008 13040101 		addi	s0,sp,16
  23              		.cfi_def_cfa 8, 0
  11:src/syscall_c.cpp ****     uint64 const fcode = 0x11;
  24              		.loc 1 11 5
  25              	.LVL1:
  12:src/syscall_c.cpp ****     __asm__ volatile("mv a3, %0" : : "r"(arg));
  26              		.loc 1 12 5
  27              		.loc 1 12 47 is_stmt 0
  28              	 #APP
  29              	# 12 "src/syscall_c.cpp" 1
  13              	    __asm__ volatile("mv a2, %0" : : "r"(start_routine));
  30              		mv a3, a2
  31              	# 0 "" 2
  32              		.loc 1 13 5 is_stmt 1
  33              		.loc 1 13 57 is_stmt 0
  34              	# 13 "src/syscall_c.cpp" 1
  14              	    __asm__ volatile("mv a1, %0" : : "r"(handle));
  35              		mv a2, a1
  36              	# 0 "" 2
  37              		.loc 1 14 5 is_stmt 1
  38              		.loc 1 14 50 is_stmt 0
  39              	# 14 "src/syscall_c.cpp" 1
  15              	    __asm__ volatile("mv a0, %0" : : "r"(fcode));
  40              		mv a1, a0
  41              	# 0 "" 2
  42              		.loc 1 15 5 is_stmt 1
  43              		.loc 1 15 49 is_stmt 0
GAS LISTING /tmp/ccVVIZwl.s 			page 2


  44              	 #NO_APP
  45 0018 93071001 		li	a5,17
  46              	 #APP
  47              	# 15 "src/syscall_c.cpp" 1
  16              	    __asm__ volatile("ecall");
  48              		mv a0, a5
  49              	# 0 "" 2
  50              		.loc 1 16 5 is_stmt 1
  51              		.loc 1 16 30 is_stmt 0
  52              	# 16 "src/syscall_c.cpp" 1
  17              	    return 0;
  53              		ecall
  54              	# 0 "" 2
  55              		.loc 1 17 5 is_stmt 1
  18:src/syscall_c.cpp ****     //dodati promenljivu za povratnu vrednost
  19:src/syscall_c.cpp **** }
  56              		.loc 1 19 1 is_stmt 0
  57              	 #NO_APP
  58 0024 13050000 		li	a0,0
  59              	.LVL2:
  60 0028 03348100 		ld	s0,8(sp)
  61              		.cfi_restore 8
  62              		.cfi_def_cfa 2, 16
  63 002c 13010101 		addi	sp,sp,16
  64              		.cfi_def_cfa_offset 0
  65 0030 67800000 		jr	ra
  66              		.cfi_endproc
  67              	.LFE16:
  69              		.align	2
  70              		.globl	_Z15thread_dispatchv
  72              	_Z15thread_dispatchv:
  73              	.LFB17:
  20:src/syscall_c.cpp **** 
  21:src/syscall_c.cpp **** void thread_dispatch(){
  74              		.loc 1 21 23 is_stmt 1
  75              		.cfi_startproc
  76 0034 130101FF 		addi	sp,sp,-16
  77              		.cfi_def_cfa_offset 16
  78 0038 23348100 		sd	s0,8(sp)
  79              		.cfi_offset 8, -8
  80 003c 13040101 		addi	s0,sp,16
  81              		.cfi_def_cfa 8, 0
  22:src/syscall_c.cpp ****     uint64 const fcode = 0x13;
  82              		.loc 1 22 5
  83              	.LVL3:
  23:src/syscall_c.cpp ****     __asm__ volatile("mv a0, %0" : : "r"(fcode));
  84              		.loc 1 23 5
  85              		.loc 1 23 49 is_stmt 0
  86 0040 93073001 		li	a5,19
  87              	 #APP
  88              	# 23 "src/syscall_c.cpp" 1
  24              	    __asm__ volatile("ecall");
  89              		mv a0, a5
  90              	# 0 "" 2
  91              		.loc 1 24 5 is_stmt 1
  92              		.loc 1 24 30 is_stmt 0
  93              	# 24 "src/syscall_c.cpp" 1
GAS LISTING /tmp/ccVVIZwl.s 			page 3


  25              	}
  94              		ecall
  95              	# 0 "" 2
  96              		.loc 1 25 1
  97              	 #NO_APP
  98 004c 03348100 		ld	s0,8(sp)
  99              		.cfi_restore 8
 100              		.cfi_def_cfa 2, 16
 101 0050 13010101 		addi	sp,sp,16
 102              		.cfi_def_cfa_offset 0
 103 0054 67800000 		jr	ra
 104              		.cfi_endproc
 105              	.LFE17:
 107              		.align	2
 108              		.globl	_Z11thread_exitv
 110              	_Z11thread_exitv:
 111              	.LFB18:
  26:src/syscall_c.cpp **** 
  27:src/syscall_c.cpp **** void thread_exit(){
 112              		.loc 1 27 19 is_stmt 1
 113              		.cfi_startproc
 114 0058 130101FF 		addi	sp,sp,-16
 115              		.cfi_def_cfa_offset 16
 116 005c 23348100 		sd	s0,8(sp)
 117              		.cfi_offset 8, -8
 118 0060 13040101 		addi	s0,sp,16
 119              		.cfi_def_cfa 8, 0
  28:src/syscall_c.cpp ****     uint64 const fcode = 0x12;
 120              		.loc 1 28 5
 121              	.LVL4:
  29:src/syscall_c.cpp ****     __asm__ volatile("mv a0, %0" : : "r"(fcode));
 122              		.loc 1 29 5
 123              		.loc 1 29 49 is_stmt 0
 124 0064 93072001 		li	a5,18
 125              	 #APP
 126              	# 29 "src/syscall_c.cpp" 1
  30              	    __asm__ volatile("ecall");
 127              		mv a0, a5
 128              	# 0 "" 2
 129              		.loc 1 30 5 is_stmt 1
 130              		.loc 1 30 30 is_stmt 0
 131              	# 30 "src/syscall_c.cpp" 1
  31              	}
 132              		ecall
 133              	# 0 "" 2
 134              		.loc 1 31 1
 135              	 #NO_APP
 136 0070 03348100 		ld	s0,8(sp)
 137              		.cfi_restore 8
 138              		.cfi_def_cfa 2, 16
 139 0074 13010101 		addi	sp,sp,16
 140              		.cfi_def_cfa_offset 0
 141 0078 67800000 		jr	ra
 142              		.cfi_endproc
 143              	.LFE18:
 145              		.align	2
 146              		.globl	_Z4getcv
GAS LISTING /tmp/ccVVIZwl.s 			page 4


 148              	_Z4getcv:
 149              	.LFB19:
  32:src/syscall_c.cpp **** 
  33:src/syscall_c.cpp **** void getc(){
 150              		.loc 1 33 12 is_stmt 1
 151              		.cfi_startproc
 152 007c 130101FF 		addi	sp,sp,-16
 153              		.cfi_def_cfa_offset 16
 154 0080 23348100 		sd	s0,8(sp)
 155              		.cfi_offset 8, -8
 156 0084 13040101 		addi	s0,sp,16
 157              		.cfi_def_cfa 8, 0
  34:src/syscall_c.cpp ****     uint64 const fcode = 0x20;
 158              		.loc 1 34 5
 159              	.LVL5:
  35:src/syscall_c.cpp ****     __asm__ volatile("mv a0, %0" : : "r"(fcode));
 160              		.loc 1 35 5
 161              		.loc 1 35 49 is_stmt 0
 162 0088 93070002 		li	a5,32
 163              	 #APP
 164              	# 35 "src/syscall_c.cpp" 1
  36              	    __asm__ volatile("ecall");
 165              		mv a0, a5
 166              	# 0 "" 2
 167              		.loc 1 36 5 is_stmt 1
 168              		.loc 1 36 30 is_stmt 0
 169              	# 36 "src/syscall_c.cpp" 1
  37              	}
 170              		ecall
 171              	# 0 "" 2
 172              		.loc 1 37 1
 173              	 #NO_APP
 174 0094 03348100 		ld	s0,8(sp)
 175              		.cfi_restore 8
 176              		.cfi_def_cfa 2, 16
 177 0098 13010101 		addi	sp,sp,16
 178              		.cfi_def_cfa_offset 0
 179 009c 67800000 		jr	ra
 180              		.cfi_endproc
 181              	.LFE19:
 183              		.align	2
 184              		.globl	_Z4putcc
 186              	_Z4putcc:
 187              	.LFB20:
  38:src/syscall_c.cpp **** 
  39:src/syscall_c.cpp **** void putc(char c){
 188              		.loc 1 39 18 is_stmt 1
 189              		.cfi_startproc
 190              	.LVL6:
 191 00a0 130101FF 		addi	sp,sp,-16
 192              		.cfi_def_cfa_offset 16
 193 00a4 23341100 		sd	ra,8(sp)
 194 00a8 23308100 		sd	s0,0(sp)
 195              		.cfi_offset 1, -8
 196              		.cfi_offset 8, -16
 197 00ac 13040101 		addi	s0,sp,16
 198              		.cfi_def_cfa 8, 0
GAS LISTING /tmp/ccVVIZwl.s 			page 5


  40:src/syscall_c.cpp ****     __putc(c);
 199              		.loc 1 40 5
 200              		.loc 1 40 11 is_stmt 0
 201 00b0 97000000 		call	__putc
 201      E7800000 
 202              	.LVL7:
  41:src/syscall_c.cpp **** }...
 203              		.loc 1 41 1
 204 00b8 83308100 		ld	ra,8(sp)
 205              		.cfi_restore 1
 206 00bc 03340100 		ld	s0,0(sp)
 207              		.cfi_restore 8
 208              		.cfi_def_cfa 2, 16
 209 00c0 13010101 		addi	sp,sp,16
 210              		.cfi_def_cfa_offset 0
 211 00c4 67800000 		jr	ra
 212              		.cfi_endproc
 213              	.LFE20:
 215              	.Letext0:
 216              		.file 2 "src/../lib/hw.h"
 217              		.file 3 "src/../h/_thread.hpp"
 218              		.file 4 "src/../lib/console.h"
GAS LISTING /tmp/ccVVIZwl.s 			page 6


DEFINED SYMBOLS
                            *ABS*:0000000000000000 syscall_c.cpp
     /tmp/ccVVIZwl.s:12     .text:0000000000000000 _Z13thread_createPP7_threadPFvPvES2_
     /tmp/ccVVIZwl.s:16     .text:0000000000000000 .L0 
     /tmp/ccVVIZwl.s:18     .text:0000000000000000 .L0 
     /tmp/ccVVIZwl.s:19     .text:0000000000000004 .L0 
     /tmp/ccVVIZwl.s:21     .text:0000000000000008 .L0 
     /tmp/ccVVIZwl.s:23     .text:000000000000000c .L0 
     /tmp/ccVVIZwl.s:26     .text:000000000000000c .L0 
     /tmp/ccVVIZwl.s:27     .text:000000000000000c .L0 
   src/syscall_c.cpp:12     .text:000000000000000c .L0 
     /tmp/ccVVIZwl.s:33     .text:0000000000000010 .L0 
   src/syscall_c.cpp:13     .text:0000000000000010 .L0 
     /tmp/ccVVIZwl.s:38     .text:0000000000000014 .L0 
   src/syscall_c.cpp:14     .text:0000000000000014 .L0 
     /tmp/ccVVIZwl.s:43     .text:0000000000000018 .L0 
     /tmp/ccVVIZwl.s:45     .text:0000000000000018 .L0 
     /tmp/ccVVIZwl.s:51     .text:0000000000000020 .L0 
   src/syscall_c.cpp:16     .text:0000000000000020 .L0 
     /tmp/ccVVIZwl.s:56     .text:0000000000000024 .L0 
     /tmp/ccVVIZwl.s:58     .text:0000000000000024 .L0 
     /tmp/ccVVIZwl.s:61     .text:000000000000002c .L0 
     /tmp/ccVVIZwl.s:62     .text:000000000000002c .L0 
     /tmp/ccVVIZwl.s:64     .text:0000000000000030 .L0 
     /tmp/ccVVIZwl.s:66     .text:0000000000000034 .L0 
     /tmp/ccVVIZwl.s:72     .text:0000000000000034 _Z15thread_dispatchv
     /tmp/ccVVIZwl.s:75     .text:0000000000000034 .L0 
     /tmp/ccVVIZwl.s:76     .text:0000000000000034 .L0 
     /tmp/ccVVIZwl.s:77     .text:0000000000000038 .L0 
     /tmp/ccVVIZwl.s:79     .text:000000000000003c .L0 
     /tmp/ccVVIZwl.s:81     .text:0000000000000040 .L0 
     /tmp/ccVVIZwl.s:84     .text:0000000000000040 .L0 
     /tmp/ccVVIZwl.s:85     .text:0000000000000040 .L0 
     /tmp/ccVVIZwl.s:86     .text:0000000000000040 .L0 
     /tmp/ccVVIZwl.s:92     .text:0000000000000048 .L0 
   src/syscall_c.cpp:24     .text:0000000000000048 .L0 
     /tmp/ccVVIZwl.s:98     .text:000000000000004c .L0 
     /tmp/ccVVIZwl.s:99     .text:0000000000000050 .L0 
     /tmp/ccVVIZwl.s:100    .text:0000000000000050 .L0 
     /tmp/ccVVIZwl.s:102    .text:0000000000000054 .L0 
     /tmp/ccVVIZwl.s:104    .text:0000000000000058 .L0 
     /tmp/ccVVIZwl.s:110    .text:0000000000000058 _Z11thread_exitv
     /tmp/ccVVIZwl.s:113    .text:0000000000000058 .L0 
     /tmp/ccVVIZwl.s:114    .text:0000000000000058 .L0 
     /tmp/ccVVIZwl.s:115    .text:000000000000005c .L0 
     /tmp/ccVVIZwl.s:117    .text:0000000000000060 .L0 
     /tmp/ccVVIZwl.s:119    .text:0000000000000064 .L0 
     /tmp/ccVVIZwl.s:122    .text:0000000000000064 .L0 
     /tmp/ccVVIZwl.s:123    .text:0000000000000064 .L0 
     /tmp/ccVVIZwl.s:124    .text:0000000000000064 .L0 
     /tmp/ccVVIZwl.s:130    .text:000000000000006c .L0 
   src/syscall_c.cpp:30     .text:000000000000006c .L0 
     /tmp/ccVVIZwl.s:136    .text:0000000000000070 .L0 
     /tmp/ccVVIZwl.s:137    .text:0000000000000074 .L0 
     /tmp/ccVVIZwl.s:138    .text:0000000000000074 .L0 
     /tmp/ccVVIZwl.s:140    .text:0000000000000078 .L0 
     /tmp/ccVVIZwl.s:142    .text:000000000000007c .L0 
GAS LISTING /tmp/ccVVIZwl.s 			page 7


     /tmp/ccVVIZwl.s:148    .text:000000000000007c _Z4getcv
     /tmp/ccVVIZwl.s:151    .text:000000000000007c .L0 
     /tmp/ccVVIZwl.s:152    .text:000000000000007c .L0 
     /tmp/ccVVIZwl.s:153    .text:0000000000000080 .L0 
     /tmp/ccVVIZwl.s:155    .text:0000000000000084 .L0 
     /tmp/ccVVIZwl.s:157    .text:0000000000000088 .L0 
     /tmp/ccVVIZwl.s:160    .text:0000000000000088 .L0 
     /tmp/ccVVIZwl.s:161    .text:0000000000000088 .L0 
     /tmp/ccVVIZwl.s:162    .text:0000000000000088 .L0 
     /tmp/ccVVIZwl.s:168    .text:0000000000000090 .L0 
   src/syscall_c.cpp:36     .text:0000000000000090 .L0 
     /tmp/ccVVIZwl.s:174    .text:0000000000000094 .L0 
     /tmp/ccVVIZwl.s:175    .text:0000000000000098 .L0 
     /tmp/ccVVIZwl.s:176    .text:0000000000000098 .L0 
     /tmp/ccVVIZwl.s:178    .text:000000000000009c .L0 
     /tmp/ccVVIZwl.s:180    .text:00000000000000a0 .L0 
     /tmp/ccVVIZwl.s:186    .text:00000000000000a0 _Z4putcc
     /tmp/ccVVIZwl.s:189    .text:00000000000000a0 .L0 
     /tmp/ccVVIZwl.s:191    .text:00000000000000a0 .L0 
     /tmp/ccVVIZwl.s:192    .text:00000000000000a4 .L0 
     /tmp/ccVVIZwl.s:195    .text:00000000000000ac .L0 
     /tmp/ccVVIZwl.s:196    .text:00000000000000ac .L0 
     /tmp/ccVVIZwl.s:198    .text:00000000000000b0 .L0 
     /tmp/ccVVIZwl.s:200    .text:00000000000000b0 .L0 
     /tmp/ccVVIZwl.s:201    .text:00000000000000b0 .L0 
     /tmp/ccVVIZwl.s:204    .text:00000000000000b8 .L0 
     /tmp/ccVVIZwl.s:205    .text:00000000000000bc .L0 
     /tmp/ccVVIZwl.s:207    .text:00000000000000c0 .L0 
     /tmp/ccVVIZwl.s:208    .text:00000000000000c0 .L0 
     /tmp/ccVVIZwl.s:210    .text:00000000000000c4 .L0 
     /tmp/ccVVIZwl.s:212    .text:00000000000000c8 .L0 
     /tmp/ccVVIZwl.s:219    .text:00000000000000c8 .L0 
     /tmp/ccVVIZwl.s:710    .debug_abbrev:0000000000000000 .Ldebug_abbrev0
     /tmp/ccVVIZwl.s:1367   .debug_str:0000000000000049 .LASF46
     /tmp/ccVVIZwl.s:1479   .debug_str:000000000000045b .LASF47
     /tmp/ccVVIZwl.s:1455   .debug_str:0000000000000382 .LASF48
     /tmp/ccVVIZwl.s:8      .text:0000000000000000 .Ltext0
     /tmp/ccVVIZwl.s:215    .text:00000000000000c8 .Letext0
     /tmp/ccVVIZwl.s:1357   .debug_line:0000000000000000 .Ldebug_line0
     /tmp/ccVVIZwl.s:1427   .debug_str:00000000000002e3 .LASF0
     /tmp/ccVVIZwl.s:1407   .debug_str:0000000000000256 .LASF1
     /tmp/ccVVIZwl.s:1399   .debug_str:0000000000000216 .LASF2
     /tmp/ccVVIZwl.s:1371   .debug_str:000000000000011b .LASF4
     /tmp/ccVVIZwl.s:1405   .debug_str:0000000000000244 .LASF3
     /tmp/ccVVIZwl.s:1363   .debug_str:0000000000000027 .LASF5
     /tmp/ccVVIZwl.s:1361   .debug_str:0000000000000014 .LASF6
     /tmp/ccVVIZwl.s:1387   .debug_str:00000000000001cb .LASF7
     /tmp/ccVVIZwl.s:1437   .debug_str:0000000000000319 .LASF8
     /tmp/ccVVIZwl.s:1369   .debug_str:000000000000010d .LASF9
     /tmp/ccVVIZwl.s:1481   .debug_str:000000000000046d .LASF10
     /tmp/ccVVIZwl.s:1393   .debug_str:00000000000001f7 .LASF11
     /tmp/ccVVIZwl.s:1467   .debug_str:00000000000003f4 .LASF12
     /tmp/ccVVIZwl.s:1445   .debug_str:0000000000000350 .LASF13
     /tmp/ccVVIZwl.s:1413   .debug_str:000000000000027b .LASF14
     /tmp/ccVVIZwl.s:1379   .debug_str:0000000000000159 .LASF15
     /tmp/ccVVIZwl.s:1439   .debug_str:0000000000000329 .LASF16
     /tmp/ccVVIZwl.s:1453   .debug_str:000000000000037a .LASF49
GAS LISTING /tmp/ccVVIZwl.s 			page 8


     /tmp/ccVVIZwl.s:1473   .debug_str:000000000000042f .LASF50
     /tmp/ccVVIZwl.s:1429   .debug_str:00000000000002f0 .LASF51
     /tmp/ccVVIZwl.s:1397   .debug_str:000000000000020d .LASF17
     /tmp/ccVVIZwl.s:1419   .debug_str:00000000000002ba .LASF19
     /tmp/ccVVIZwl.s:1391   .debug_str:00000000000001ec .LASF33
     /tmp/ccVVIZwl.s:1365   .debug_str:000000000000002e .LASF35
     /tmp/ccVVIZwl.s:1433   .debug_str:0000000000000306 .LASF18
     /tmp/ccVVIZwl.s:1477   .debug_str:0000000000000440 .LASF20
     /tmp/ccVVIZwl.s:1389   .debug_str:00000000000001de .LASF21
     /tmp/ccVVIZwl.s:1377   .debug_str:000000000000012d .LASF22
     /tmp/ccVVIZwl.s:1373   .debug_str:0000000000000122 .LASF52
     /tmp/ccVVIZwl.s:1425   .debug_str:00000000000002dd .LASF53
     /tmp/ccVVIZwl.s:1359   .debug_str:0000000000000000 .LASF54
     /tmp/ccVVIZwl.s:1469   .debug_str:0000000000000404 .LASF41
     /tmp/ccVVIZwl.s:1403   .debug_str:0000000000000229 .LASF55
     /tmp/ccVVIZwl.s:1381   .debug_str:000000000000016f .LASF56
     /tmp/ccVVIZwl.s:1421   .debug_str:00000000000002ca .LASF23
     /tmp/ccVVIZwl.s:1375   .debug_str:0000000000000127 .LASF24
     /tmp/ccVVIZwl.s:1443   .debug_str:0000000000000348 .LASF25
     /tmp/ccVVIZwl.s:1411   .debug_str:0000000000000272 .LASF26
     /tmp/ccVVIZwl.s:1417   .debug_str:00000000000002ac .LASF57
     /tmp/ccVVIZwl.s:1385   .debug_str:000000000000019f .LASF58
     /tmp/ccVVIZwl.s:1447   .debug_str:0000000000000360 .LASF27
     /tmp/ccVVIZwl.s:1471   .debug_str:0000000000000410 .LASF29
     /tmp/ccVVIZwl.s:1431   .debug_str:00000000000002f8 .LASF28
     /tmp/ccVVIZwl.s:1459   .debug_str:00000000000003b3 .LASF30
     /tmp/ccVVIZwl.s:1441   .debug_str:000000000000033f .LASF31
     /tmp/ccVVIZwl.s:1465   .debug_str:00000000000003ef .LASF32
     /tmp/ccVVIZwl.s:1451   .debug_str:0000000000000375 .LASF34
     /tmp/ccVVIZwl.s:1409   .debug_str:0000000000000269 .LASF36
     /tmp/ccVVIZwl.s:187    .text:00000000000000a0 .LFB20
     /tmp/ccVVIZwl.s:213    .text:00000000000000c8 .LFE20
     /tmp/ccVVIZwl.s:1316   .debug_loc:0000000000000000 .LLST1
     /tmp/ccVVIZwl.s:202    .text:00000000000000b8 .LVL7
     /tmp/ccVVIZwl.s:1449   .debug_str:0000000000000370 .LASF37
     /tmp/ccVVIZwl.s:1401   .debug_str:0000000000000224 .LASF38
     /tmp/ccVVIZwl.s:1475   .debug_str:0000000000000437 .LASF39
     /tmp/ccVVIZwl.s:149    .text:000000000000007c .LFB19
     /tmp/ccVVIZwl.s:181    .text:00000000000000a0 .LFE19
     /tmp/ccVVIZwl.s:1457   .debug_str:00000000000003ad .LASF40
     /tmp/ccVVIZwl.s:1463   .debug_str:00000000000003de .LASF42
     /tmp/ccVVIZwl.s:111    .text:0000000000000058 .LFB18
     /tmp/ccVVIZwl.s:143    .text:000000000000007c .LFE18
     /tmp/ccVVIZwl.s:1383   .debug_str:000000000000018a .LASF43
     /tmp/ccVVIZwl.s:73     .text:0000000000000034 .LFB17
     /tmp/ccVVIZwl.s:105    .text:0000000000000058 .LFE17
     /tmp/ccVVIZwl.s:1461   .debug_str:00000000000003d0 .LASF59
     /tmp/ccVVIZwl.s:1415   .debug_str:0000000000000287 .LASF60
     /tmp/ccVVIZwl.s:13     .text:0000000000000000 .LFB16
     /tmp/ccVVIZwl.s:67     .text:0000000000000034 .LFE16
     /tmp/ccVVIZwl.s:1395   .debug_str:0000000000000206 .LASF44
     /tmp/ccVVIZwl.s:1330   .debug_loc:0000000000000039 .LLST0
     /tmp/ccVVIZwl.s:1423   .debug_str:00000000000002cf .LASF45
     /tmp/ccVVIZwl.s:1435   .debug_str:0000000000000312 .LASF61
     /tmp/ccVVIZwl.s:190    .text:00000000000000a0 .LVL6
     /tmp/ccVVIZwl.s:17     .text:0000000000000000 .LVL0
     /tmp/ccVVIZwl.s:59     .text:0000000000000028 .LVL2
GAS LISTING /tmp/ccVVIZwl.s 			page 9


     /tmp/ccVVIZwl.s:220    .debug_info:0000000000000000 .Ldebug_info0

UNDEFINED SYMBOLS
__putc
