GAS LISTING /tmp/ccwY5lHr.s 			page 1


   1              		.file	"workers.cpp"
   2              		.option nopic
   3              		.option norelax
   4              		.attribute arch, "rv64i2p0_m2p0_a2p0"
   5              		.attribute unaligned_access, 0
   6              		.attribute stack_align, 16
   7              		.text
   8              	.Ltext0:
   9              		.align	2
  11              	_ZL9fibonaccim:
  12              	.LFB16:
  13              		.file 1 "src/workers.cpp"
   1:src/workers.cpp **** //
   2:src/workers.cpp **** // Created by marko on 20.4.22..
   3:src/workers.cpp **** //
   4:src/workers.cpp **** 
   5:src/workers.cpp **** #include "../lib/hw.h"
   6:src/workers.cpp **** #include "../h/print.hpp"
   7:src/workers.cpp **** #include "../h/_thread.hpp"
   8:src/workers.cpp **** 
   9:src/workers.cpp **** static uint64 fibonacci(uint64 n)
  10:src/workers.cpp **** {
  14              		.loc 1 10 1
  15              		.cfi_startproc
  16              	.LVL0:
  17 0000 130101FE 		addi	sp,sp,-32
  18              		.cfi_def_cfa_offset 32
  19 0004 233C1100 		sd	ra,24(sp)
  20 0008 23388100 		sd	s0,16(sp)
  21 000c 23349100 		sd	s1,8(sp)
  22 0010 23302101 		sd	s2,0(sp)
  23              		.cfi_offset 1, -8
  24              		.cfi_offset 8, -16
  25              		.cfi_offset 9, -24
  26              		.cfi_offset 18, -32
  27 0014 13040102 		addi	s0,sp,32
  28              		.cfi_def_cfa 8, 0
  29 0018 93040500 		mv	s1,a0
  11:src/workers.cpp ****     if (n == 0 || n == 1) { return n; }
  30              		.loc 1 11 5
  31 001c 93071000 		li	a5,1
  32 0020 63F6A702 		bleu	a0,a5,.L1
  12:src/workers.cpp ****     if (n % 4 == 0)_thread::yield();
  33              		.loc 1 12 5
  34              		.loc 1 12 11 is_stmt 0
  35 0024 93773500 		andi	a5,a0,3
  36              		.loc 1 12 5
  37 0028 638E0702 		beqz	a5,.L6
  38              	.LVL1:
  39              	.L3:
  13:src/workers.cpp ****     return fibonacci(n - 1) + fibonacci(n - 2);
  40              		.loc 1 13 5 is_stmt 1
  41              		.loc 1 13 21 is_stmt 0
  42 002c 1385F4FF 		addi	a0,s1,-1
  43 0030 97000000 		call	_ZL9fibonaccim
  43      E7800000 
  44              	.LVL2:
GAS LISTING /tmp/ccwY5lHr.s 			page 2


  45 0038 13090500 		mv	s2,a0
  46              		.loc 1 13 40
  47 003c 1385E4FF 		addi	a0,s1,-2
  48 0040 97000000 		call	_ZL9fibonaccim
  48      E7800000 
  49              	.LVL3:
  50              		.loc 1 13 46
  51 0048 3305A900 		add	a0,s2,a0
  52              	.L1:
  14:src/workers.cpp **** }
  53              		.loc 1 14 1
  54 004c 83308101 		ld	ra,24(sp)
  55              		.cfi_remember_state
  56              		.cfi_restore 1
  57 0050 03340101 		ld	s0,16(sp)
  58              		.cfi_restore 8
  59              		.cfi_def_cfa 2, 32
  60 0054 83348100 		ld	s1,8(sp)
  61              		.cfi_restore 9
  62              	.LVL4:
  63 0058 03390100 		ld	s2,0(sp)
  64              		.cfi_restore 18
  65 005c 13010102 		addi	sp,sp,32
  66              		.cfi_def_cfa_offset 0
  67 0060 67800000 		jr	ra
  68              	.LVL5:
  69              	.L6:
  70              		.cfi_restore_state
  12:src/workers.cpp ****     if (n % 4 == 0)_thread::yield();
  71              		.loc 1 12 20 is_stmt 1 discriminator 1
  12:src/workers.cpp ****     if (n % 4 == 0)_thread::yield();
  72              		.loc 1 12 34 is_stmt 0 discriminator 1
  73 0064 97000000 		call	_ZN7_thread5yieldEv
  73      E7800000 
  74              	.LVL6:
  75 006c 6FF01FFC 		j	.L3
  76              		.cfi_endproc
  77              	.LFE16:
  79              		.section	.rodata.str1.8,"aMS",@progbits,1
  80              		.align	3
  81              	.LC0:
  82 0000 413A2069 		.string	"A: i="
  82      3D00
  83 0006 0000     		.align	3
  84              	.LC1:
  85 0008 0A00     		.string	"\n"
  86 000a 00000000 		.align	3
  86      0000
  87              	.LC2:
  88 0010 413A2079 		.string	"A: yield\n"
  88      69656C64 
  88      0A00
  89 001a 00000000 		.align	3
  89      0000
  90              	.LC3:
  91 0020 413A2074 		.string	"A: t1="
  91      313D00
GAS LISTING /tmp/ccwY5lHr.s 			page 3


  92 0027 00       		.align	3
  93              	.LC4:
  94 0028 413A2066 		.string	"A: fibonaci="
  94      69626F6E 
  94      6163693D 
  94      00
  95              		.text
  96              		.align	2
  97              		.globl	_Z11workerBodyAv
  99              	_Z11workerBodyAv:
 100              	.LFB17:
  15:src/workers.cpp **** 
  16:src/workers.cpp **** void workerBodyA()
  17:src/workers.cpp **** {
 101              		.loc 1 17 1 is_stmt 1
 102              		.cfi_startproc
 103 0070 130101FE 		addi	sp,sp,-32
 104              		.cfi_def_cfa_offset 32
 105 0074 233C1100 		sd	ra,24(sp)
 106 0078 23388100 		sd	s0,16(sp)
 107 007c 23349100 		sd	s1,8(sp)
 108 0080 23302101 		sd	s2,0(sp)
 109              		.cfi_offset 1, -8
 110              		.cfi_offset 8, -16
 111              		.cfi_offset 9, -24
 112              		.cfi_offset 18, -32
 113 0084 13040102 		addi	s0,sp,32
 114              		.cfi_def_cfa 8, 0
  18:src/workers.cpp ****     uint8 i = 0;
 115              		.loc 1 18 5
 116              	.LVL7:
 117              		.loc 1 18 11 is_stmt 0
 118 0088 93040000 		li	s1,0
 119 008c 6F008003 		j	.L9
 120              	.LVL8:
 121              	.L13:
  19:src/workers.cpp ****     for (; i < 3; i++)
  20:src/workers.cpp ****     {
  21:src/workers.cpp ****         printString("A: i=");
 122              		.loc 1 21 9 is_stmt 1 discriminator 1
 123              		.loc 1 21 20 is_stmt 0 discriminator 1
 124 0090 17050000 		lla	a0,.LC0
 124      13050500 
 125 0098 97000000 		call	_Z11printStringPKc
 125      E7800000 
 126              	.LVL9:
  22:src/workers.cpp ****         printInteger(i);
 127              		.loc 1 22 9 is_stmt 1 discriminator 1
 128              		.loc 1 22 21 is_stmt 0 discriminator 1
 129 00a0 13850400 		mv	a0,s1
 130 00a4 97000000 		call	_Z12printIntegerm
 130      E7800000 
 131              	.LVL10:
  23:src/workers.cpp ****         printString("\n");
 132              		.loc 1 23 9 is_stmt 1 discriminator 1
 133              		.loc 1 23 20 is_stmt 0 discriminator 1
 134 00ac 17050000 		lla	a0,.LC1
GAS LISTING /tmp/ccwY5lHr.s 			page 4


 134      13050500 
 135 00b4 97000000 		call	_Z11printStringPKc
 135      E7800000 
 136              	.LVL11:
  19:src/workers.cpp ****     for (; i < 3; i++)
 137              		.loc 1 19 5 is_stmt 1 discriminator 1
 138 00bc 9B841400 		addiw	s1,s1,1
 139              	.LVL12:
 140 00c0 93F4F40F 		andi	s1,s1,0xff
 141              	.LVL13:
 142              	.L9:
  19:src/workers.cpp ****     for (; i < 3; i++)
 143              		.loc 1 19 5 discriminator 2
  19:src/workers.cpp ****     for (; i < 3; i++)
 144              		.loc 1 19 14 discriminator 2
 145 00c4 93072000 		li	a5,2
 146 00c8 E3F497FC 		bleu	s1,a5,.L13
  24:src/workers.cpp ****     }
  25:src/workers.cpp **** 
  26:src/workers.cpp ****     printString("A: yield\n");
 147              		.loc 1 26 5
 148              		.loc 1 26 16 is_stmt 0
 149 00cc 17050000 		lla	a0,.LC2
 149      13050500 
 150 00d4 97000000 		call	_Z11printStringPKc
 150      E7800000 
 151              	.LVL14:
  27:src/workers.cpp ****     __asm__ ("li t1, 7");_thread::yield();
 152              		.loc 1 27 5 is_stmt 1
 153              		.loc 1 27 25 is_stmt 0
 154              	 #APP
 155              	# 27 "src/workers.cpp" 1
  28              	
  27:src/workers.cpp ****     __asm__ ("li t1, 7");_thread::yield();
 156              		li t1, 7
 157              	# 0 "" 2
 158              		.loc 1 27 26 is_stmt 1
  27:src/workers.cpp ****     __asm__ ("li t1, 7");_thread::yield();
 159              		.loc 1 27 40 is_stmt 0
 160              	 #NO_APP
 161 00e0 97000000 		call	_ZN7_thread5yieldEv
 161      E7800000 
 162              	.LVL15:
  29:src/workers.cpp ****     uint64 t1 = 0;
 163              		.loc 1 29 5 is_stmt 1
  30:src/workers.cpp ****     __asm__ ("mv %[t1], t1" : [t1] "=r"(t1));
 164              		.loc 1 30 5
 165              		.loc 1 30 45 is_stmt 0
 166              	 #APP
 167              	# 30 "src/workers.cpp" 1
  31              	
 168              		mv s2, t1
 169              	# 0 "" 2
 170              	.LVL16:
  32:src/workers.cpp ****     printString("A: t1=");
 171              		.loc 1 32 5 is_stmt 1
 172              		.loc 1 32 16 is_stmt 0
GAS LISTING /tmp/ccwY5lHr.s 			page 5


 173              	 #NO_APP
 174 00ec 17050000 		lla	a0,.LC3
 174      13050500 
 175 00f4 97000000 		call	_Z11printStringPKc
 175      E7800000 
 176              	.LVL17:
  33:src/workers.cpp ****     printInteger(t1);
 177              		.loc 1 33 5 is_stmt 1
 178              		.loc 1 33 17 is_stmt 0
 179 00fc 13050900 		mv	a0,s2
 180 0100 97000000 		call	_Z12printIntegerm
 180      E7800000 
 181              	.LVL18:
  34:src/workers.cpp ****     printString("\n");
 182              		.loc 1 34 5 is_stmt 1
 183              		.loc 1 34 16 is_stmt 0
 184 0108 17050000 		lla	a0,.LC1
 184      13050500 
 185 0110 97000000 		call	_Z11printStringPKc
 185      E7800000 
 186              	.LVL19:
  35:src/workers.cpp **** 
  36:src/workers.cpp ****     uint64 result = fibonacci(20);
 187              		.loc 1 36 5 is_stmt 1
 188              		.loc 1 36 30 is_stmt 0
 189 0118 13054001 		li	a0,20
 190 011c 97000000 		call	_ZL9fibonaccim
 190      E7800000 
 191              	.LVL20:
 192 0124 13090500 		mv	s2,a0
 193              	.LVL21:
  37:src/workers.cpp ****     printString("A: fibonaci=");
 194              		.loc 1 37 5 is_stmt 1
 195              		.loc 1 37 16 is_stmt 0
 196 0128 17050000 		lla	a0,.LC4
 196      13050500 
 197              	.LVL22:
 198 0130 97000000 		call	_Z11printStringPKc
 198      E7800000 
 199              	.LVL23:
  38:src/workers.cpp ****     printInteger(result);
 200              		.loc 1 38 5 is_stmt 1
 201              		.loc 1 38 17 is_stmt 0
 202 0138 13050900 		mv	a0,s2
 203 013c 97000000 		call	_Z12printIntegerm
 203      E7800000 
 204              	.LVL24:
  39:src/workers.cpp ****     printString("\n");
 205              		.loc 1 39 5 is_stmt 1
 206              		.loc 1 39 16 is_stmt 0
 207 0144 17050000 		lla	a0,.LC1
 207      13050500 
 208 014c 97000000 		call	_Z11printStringPKc
 208      E7800000 
 209              	.LVL25:
 210 0154 6F008003 		j	.L11
 211              	.L14:
GAS LISTING /tmp/ccwY5lHr.s 			page 6


  40:src/workers.cpp **** 
  41:src/workers.cpp ****     for (; i < 6; i++)
  42:src/workers.cpp ****     {
  43:src/workers.cpp ****         printString("A: i=");
 212              		.loc 1 43 9 is_stmt 1 discriminator 1
 213              		.loc 1 43 20 is_stmt 0 discriminator 1
 214 0158 17050000 		lla	a0,.LC0
 214      13050500 
 215 0160 97000000 		call	_Z11printStringPKc
 215      E7800000 
 216              	.LVL26:
  44:src/workers.cpp ****         printInteger(i);
 217              		.loc 1 44 9 is_stmt 1 discriminator 1
 218              		.loc 1 44 21 is_stmt 0 discriminator 1
 219 0168 13850400 		mv	a0,s1
 220 016c 97000000 		call	_Z12printIntegerm
 220      E7800000 
 221              	.LVL27:
  45:src/workers.cpp ****         printString("\n");
 222              		.loc 1 45 9 is_stmt 1 discriminator 1
 223              		.loc 1 45 20 is_stmt 0 discriminator 1
 224 0174 17050000 		lla	a0,.LC1
 224      13050500 
 225 017c 97000000 		call	_Z11printStringPKc
 225      E7800000 
 226              	.LVL28:
  41:src/workers.cpp ****     {
 227              		.loc 1 41 5 is_stmt 1 discriminator 1
 228 0184 9B841400 		addiw	s1,s1,1
 229              	.LVL29:
 230 0188 93F4F40F 		andi	s1,s1,0xff
 231              	.LVL30:
 232              	.L11:
  41:src/workers.cpp ****     {
 233              		.loc 1 41 5 discriminator 2
  41:src/workers.cpp ****     {
 234              		.loc 1 41 14 discriminator 2
 235 018c 93075000 		li	a5,5
 236 0190 E3F497FC 		bleu	s1,a5,.L14
  46:src/workers.cpp ****     }
  47:src/workers.cpp ****     _thread::running->setFinished(true);_thread::yield();
 237              		.loc 1 47 5
 238              	.LVL31:
 239              	.LBB6:
 240              	.LBB7:
 241              		.file 2 "src/../h/_thread.hpp"
   1:src/../h/_thread.hpp **** //
   2:src/../h/_thread.hpp **** // Created by basara on 19.6.24..
   3:src/../h/_thread.hpp **** //
   4:src/../h/_thread.hpp **** 
   5:src/../h/_thread.hpp **** #ifndef PROJECT_BASE_HPP
   6:src/../h/_thread.hpp **** #define PROJECT_BASE_HPP
   7:src/../h/_thread.hpp **** 
   8:src/../h/_thread.hpp **** #include "../lib/hw.h"
   9:src/../h/_thread.hpp **** #include "scheduler.hpp"
  10:src/../h/_thread.hpp **** 
  11:src/../h/_thread.hpp **** typedef _thread* thread_t;
GAS LISTING /tmp/ccwY5lHr.s 			page 7


  12:src/../h/_thread.hpp **** class _thread{
  13:src/../h/_thread.hpp **** public:
  14:src/../h/_thread.hpp ****     static _thread *running;
  15:src/../h/_thread.hpp **** 
  16:src/../h/_thread.hpp ****     ~_thread() {delete[] stack;}
  17:src/../h/_thread.hpp **** 
  18:src/../h/_thread.hpp ****     bool isFinished() const { return finished; }
  19:src/../h/_thread.hpp **** 
  20:src/../h/_thread.hpp ****     void setFinished(bool fin) { _thread::finished = fin; }
 242              		.loc 2 20 34
 243              		.loc 2 20 52 is_stmt 0
 244 0194 97070000 		ld	a5,_ZN7_thread7runningE
 244      83B70700 
 245 019c 13071000 		li	a4,1
 246 01a0 2380E702 		sb	a4,32(a5)
 247              	.LVL32:
 248              	.LBE7:
 249              	.LBE6:
 250              		.loc 1 47 41 is_stmt 1
 251              		.loc 1 47 55 is_stmt 0
 252 01a4 97000000 		call	_ZN7_thread5yieldEv
 252      E7800000 
 253              	.LVL33:
  48:src/workers.cpp **** }
 254              		.loc 1 48 1
 255 01ac 83308101 		ld	ra,24(sp)
 256              		.cfi_restore 1
 257 01b0 03340101 		ld	s0,16(sp)
 258              		.cfi_restore 8
 259              		.cfi_def_cfa 2, 32
 260 01b4 83348100 		ld	s1,8(sp)
 261              		.cfi_restore 9
 262              	.LVL34:
 263 01b8 03390100 		ld	s2,0(sp)
 264              		.cfi_restore 18
 265              	.LVL35:
 266 01bc 13010102 		addi	sp,sp,32
 267              		.cfi_def_cfa_offset 0
 268 01c0 67800000 		jr	ra
 269              		.cfi_endproc
 270              	.LFE17:
 272              		.section	.rodata.str1.8
 273 0035 000000   		.align	3
 274              	.LC5:
 275 0038 423A2069 		.string	"B: i="
 275      3D00
 276 003e 0000     		.align	3
 277              	.LC6:
 278 0040 423A2079 		.string	"B: yield\n"
 278      69656C64 
 278      0A00
 279              		.text
 280              		.align	2
 281              		.globl	_Z11workerBodyBv
 283              	_Z11workerBodyBv:
 284              	.LFB18:
  49:src/workers.cpp **** 
GAS LISTING /tmp/ccwY5lHr.s 			page 8


  50:src/workers.cpp **** void workerBodyB()
  51:src/workers.cpp **** {
 285              		.loc 1 51 1 is_stmt 1
 286              		.cfi_startproc
 287 01c4 130101FE 		addi	sp,sp,-32
 288              		.cfi_def_cfa_offset 32
 289 01c8 233C1100 		sd	ra,24(sp)
 290 01cc 23388100 		sd	s0,16(sp)
 291 01d0 23349100 		sd	s1,8(sp)
 292 01d4 23302101 		sd	s2,0(sp)
 293              		.cfi_offset 1, -8
 294              		.cfi_offset 8, -16
 295              		.cfi_offset 9, -24
 296              		.cfi_offset 18, -32
 297 01d8 13040102 		addi	s0,sp,32
 298              		.cfi_def_cfa 8, 0
  52:src/workers.cpp ****     uint8 i = 10;
 299              		.loc 1 52 5
 300              	.LVL36:
 301              		.loc 1 52 11 is_stmt 0
 302 01dc 9304A000 		li	s1,10
 303 01e0 6F008003 		j	.L17
 304              	.LVL37:
 305              	.L21:
  53:src/workers.cpp ****     for (; i < 13; i++)
  54:src/workers.cpp ****     {
  55:src/workers.cpp ****         printString("B: i=");
 306              		.loc 1 55 9 is_stmt 1 discriminator 1
 307              		.loc 1 55 20 is_stmt 0 discriminator 1
 308 01e4 17050000 		lla	a0,.LC5
 308      13050500 
 309 01ec 97000000 		call	_Z11printStringPKc
 309      E7800000 
 310              	.LVL38:
  56:src/workers.cpp ****         printInteger(i);
 311              		.loc 1 56 9 is_stmt 1 discriminator 1
 312              		.loc 1 56 21 is_stmt 0 discriminator 1
 313 01f4 13850400 		mv	a0,s1
 314 01f8 97000000 		call	_Z12printIntegerm
 314      E7800000 
 315              	.LVL39:
  57:src/workers.cpp ****         printString("\n");
 316              		.loc 1 57 9 is_stmt 1 discriminator 1
 317              		.loc 1 57 20 is_stmt 0 discriminator 1
 318 0200 17050000 		lla	a0,.LC1
 318      13050500 
 319 0208 97000000 		call	_Z11printStringPKc
 319      E7800000 
 320              	.LVL40:
  53:src/workers.cpp ****     for (; i < 13; i++)
 321              		.loc 1 53 5 is_stmt 1 discriminator 1
 322 0210 9B841400 		addiw	s1,s1,1
 323              	.LVL41:
 324 0214 93F4F40F 		andi	s1,s1,0xff
 325              	.LVL42:
 326              	.L17:
  53:src/workers.cpp ****     for (; i < 13; i++)
GAS LISTING /tmp/ccwY5lHr.s 			page 9


 327              		.loc 1 53 5 discriminator 2
  53:src/workers.cpp ****     for (; i < 13; i++)
 328              		.loc 1 53 14 discriminator 2
 329 0218 9307C000 		li	a5,12
 330 021c E3F497FC 		bleu	s1,a5,.L21
  58:src/workers.cpp ****     }
  59:src/workers.cpp **** 
  60:src/workers.cpp ****     printString("B: yield\n");
 331              		.loc 1 60 5
 332              		.loc 1 60 16 is_stmt 0
 333 0220 17050000 		lla	a0,.LC6
 333      13050500 
 334 0228 97000000 		call	_Z11printStringPKc
 334      E7800000 
 335              	.LVL43:
  61:src/workers.cpp ****     __asm__ ("li t1, 5");_thread::yield();
 336              		.loc 1 61 5 is_stmt 1
 337              		.loc 1 61 25 is_stmt 0
 338              	 #APP
 339              	# 61 "src/workers.cpp" 1
  62              	
  61:src/workers.cpp ****     __asm__ ("li t1, 5");_thread::yield();
 340              		li t1, 5
 341              	# 0 "" 2
 342              		.loc 1 61 26 is_stmt 1
  61:src/workers.cpp ****     __asm__ ("li t1, 5");_thread::yield();
 343              		.loc 1 61 40 is_stmt 0
 344              	 #NO_APP
 345 0234 97000000 		call	_ZN7_thread5yieldEv
 345      E7800000 
 346              	.LVL44:
  63:src/workers.cpp ****     uint64 result = fibonacci(23);
 347              		.loc 1 63 5 is_stmt 1
 348              		.loc 1 63 30 is_stmt 0
 349 023c 13057001 		li	a0,23
 350 0240 97000000 		call	_ZL9fibonaccim
 350      E7800000 
 351              	.LVL45:
 352 0248 13090500 		mv	s2,a0
 353              	.LVL46:
  64:src/workers.cpp ****     printString("A: fibonaci=");
 354              		.loc 1 64 5 is_stmt 1
 355              		.loc 1 64 16 is_stmt 0
 356 024c 17050000 		lla	a0,.LC4
 356      13050500 
 357              	.LVL47:
 358 0254 97000000 		call	_Z11printStringPKc
 358      E7800000 
 359              	.LVL48:
  65:src/workers.cpp ****     printInteger(result);
 360              		.loc 1 65 5 is_stmt 1
 361              		.loc 1 65 17 is_stmt 0
 362 025c 13050900 		mv	a0,s2
 363 0260 97000000 		call	_Z12printIntegerm
 363      E7800000 
 364              	.LVL49:
  66:src/workers.cpp ****     printString("\n");
GAS LISTING /tmp/ccwY5lHr.s 			page 10


 365              		.loc 1 66 5 is_stmt 1
 366              		.loc 1 66 16 is_stmt 0
 367 0268 17050000 		lla	a0,.LC1
 367      13050500 
 368 0270 97000000 		call	_Z11printStringPKc
 368      E7800000 
 369              	.LVL50:
 370 0278 6F008003 		j	.L19
 371              	.L22:
  67:src/workers.cpp **** 
  68:src/workers.cpp ****     for (; i < 16; i++)
  69:src/workers.cpp ****     {
  70:src/workers.cpp ****         printString("B: i=");
 372              		.loc 1 70 9 is_stmt 1 discriminator 1
 373              		.loc 1 70 20 is_stmt 0 discriminator 1
 374 027c 17050000 		lla	a0,.LC5
 374      13050500 
 375 0284 97000000 		call	_Z11printStringPKc
 375      E7800000 
 376              	.LVL51:
  71:src/workers.cpp ****         printInteger(i);
 377              		.loc 1 71 9 is_stmt 1 discriminator 1
 378              		.loc 1 71 21 is_stmt 0 discriminator 1
 379 028c 13850400 		mv	a0,s1
 380 0290 97000000 		call	_Z12printIntegerm
 380      E7800000 
 381              	.LVL52:
  72:src/workers.cpp ****         printString("\n");
 382              		.loc 1 72 9 is_stmt 1 discriminator 1
 383              		.loc 1 72 20 is_stmt 0 discriminator 1
 384 0298 17050000 		lla	a0,.LC1
 384      13050500 
 385 02a0 97000000 		call	_Z11printStringPKc
 385      E7800000 
 386              	.LVL53:
  68:src/workers.cpp ****     {
 387              		.loc 1 68 5 is_stmt 1 discriminator 1
 388 02a8 9B841400 		addiw	s1,s1,1
 389              	.LVL54:
 390 02ac 93F4F40F 		andi	s1,s1,0xff
 391              	.LVL55:
 392              	.L19:
  68:src/workers.cpp ****     {
 393              		.loc 1 68 5 discriminator 2
  68:src/workers.cpp ****     {
 394              		.loc 1 68 14 discriminator 2
 395 02b0 9307F000 		li	a5,15
 396 02b4 E3F497FC 		bleu	s1,a5,.L22
  73:src/workers.cpp ****     }
  74:src/workers.cpp ****     _thread::running->setFinished(true);_thread::yield();
 397              		.loc 1 74 5
 398              	.LVL56:
 399              	.LBB8:
 400              	.LBB9:
 401              		.loc 2 20 34
 402              		.loc 2 20 52 is_stmt 0
 403 02b8 97070000 		ld	a5,_ZN7_thread7runningE
GAS LISTING /tmp/ccwY5lHr.s 			page 11


 403      83B70700 
 404 02c0 13071000 		li	a4,1
 405 02c4 2380E702 		sb	a4,32(a5)
 406              	.LVL57:
 407              	.LBE9:
 408              	.LBE8:
 409              		.loc 1 74 41 is_stmt 1
 410              		.loc 1 74 55 is_stmt 0
 411 02c8 97000000 		call	_ZN7_thread5yieldEv
 411      E7800000 
 412              	.LVL58:
  75:src/workers.cpp **** }...
 413              		.loc 1 75 1
 414 02d0 83308101 		ld	ra,24(sp)
 415              		.cfi_restore 1
 416 02d4 03340101 		ld	s0,16(sp)
 417              		.cfi_restore 8
 418              		.cfi_def_cfa 2, 32
 419 02d8 83348100 		ld	s1,8(sp)
 420              		.cfi_restore 9
 421              	.LVL59:
 422 02dc 03390100 		ld	s2,0(sp)
 423              		.cfi_restore 18
 424              	.LVL60:
 425 02e0 13010102 		addi	sp,sp,32
 426              		.cfi_def_cfa_offset 0
 427 02e4 67800000 		jr	ra
 428              		.cfi_endproc
 429              	.LFE18:
 431              	.Letext0:
 432              		.file 3 "src/../lib/hw.h"
 433              		.file 4 "src/../h/print.hpp"
GAS LISTING /tmp/ccwY5lHr.s 			page 12

