GAS LISTING /tmp/ccwY5lHr.s 			page 1


   1              		.file	"workers.cpp"
   2              		.option nopic
   3              		.option norelax
   4              		.attribute arch, "rv64i2p0_m2p0_a2p0"
   5              		.attribute unaligned_access, 0
   6              		.attribute stack_align, 16
   7              		.text
   8              	.Ltext0:
   9              		.align	2
  11              	_ZL9fibonaccim:
  12              	.LFB16:
  13              		.file 1 "src/workers.cpp"
   1:src/workers.cpp **** //
   2:src/workers.cpp **** // Created by marko on 20.4.22..
   3:src/workers.cpp **** //
   4:src/workers.cpp **** 
   5:src/workers.cpp **** #include "../lib/hw.h"
   6:src/workers.cpp **** #include "../h/print.hpp"
   7:src/workers.cpp **** #include "../h/_thread.hpp"
   8:src/workers.cpp **** 
   9:src/workers.cpp **** static uint64 fibonacci(uint64 n)
  10:src/workers.cpp **** {
  14              		.loc 1 10 1
  15              		.cfi_startproc
  16              	.LVL0:
  17 0000 130101FE 		addi	sp,sp,-32
  18              		.cfi_def_cfa_offset 32
  19 0004 233C1100 		sd	ra,24(sp)
  20 0008 23388100 		sd	s0,16(sp)
  21 000c 23349100 		sd	s1,8(sp)
  22 0010 23302101 		sd	s2,0(sp)
  23              		.cfi_offset 1, -8
  24              		.cfi_offset 8, -16
  25              		.cfi_offset 9, -24
  26              		.cfi_offset 18, -32
  27 0014 13040102 		addi	s0,sp,32
  28              		.cfi_def_cfa 8, 0
  29 0018 93040500 		mv	s1,a0
  11:src/workers.cpp ****     if (n == 0 || n == 1) { return n; }
  30              		.loc 1 11 5
  31 001c 93071000 		li	a5,1
  32 0020 63F6A702 		bleu	a0,a5,.L1
  12:src/workers.cpp ****     if (n % 4 == 0)_thread::yield();
  33              		.loc 1 12 5
  34              		.loc 1 12 11 is_stmt 0
  35 0024 93773500 		andi	a5,a0,3
  36              		.loc 1 12 5
  37 0028 638E0702 		beqz	a5,.L6
  38              	.LVL1:
  39              	.L3:
  13:src/workers.cpp ****     return fibonacci(n - 1) + fibonacci(n - 2);
  40              		.loc 1 13 5 is_stmt 1
  41              		.loc 1 13 21 is_stmt 0
  42 002c 1385F4FF 		addi	a0,s1,-1
  43 0030 97000000 		call	_ZL9fibonaccim
  43      E7800000 
  44              	.LVL2:
GAS LISTING /tmp/ccwY5lHr.s 			page 2


  45 0038 13090500 		mv	s2,a0
  46              		.loc 1 13 40
  47 003c 1385E4FF 		addi	a0,s1,-2
  48 0040 97000000 		call	_ZL9fibonaccim
  48      E7800000 
  49              	.LVL3:
  50              		.loc 1 13 46
  51 0048 3305A900 		add	a0,s2,a0
  52              	.L1:
  14:src/workers.cpp **** }
  53              		.loc 1 14 1
  54 004c 83308101 		ld	ra,24(sp)
  55              		.cfi_remember_state
  56              		.cfi_restore 1
  57 0050 03340101 		ld	s0,16(sp)
  58              		.cfi_restore 8
  59              		.cfi_def_cfa 2, 32
  60 0054 83348100 		ld	s1,8(sp)
  61              		.cfi_restore 9
  62              	.LVL4:
  63 0058 03390100 		ld	s2,0(sp)
  64              		.cfi_restore 18
  65 005c 13010102 		addi	sp,sp,32
  66              		.cfi_def_cfa_offset 0
  67 0060 67800000 		jr	ra
  68              	.LVL5:
  69              	.L6:
  70              		.cfi_restore_state
  12:src/workers.cpp ****     if (n % 4 == 0)_thread::yield();
  71              		.loc 1 12 20 is_stmt 1 discriminator 1
  12:src/workers.cpp ****     if (n % 4 == 0)_thread::yield();
  72              		.loc 1 12 34 is_stmt 0 discriminator 1
  73 0064 97000000 		call	_ZN7_thread5yieldEv
  73      E7800000 
  74              	.LVL6:
  75 006c 6FF01FFC 		j	.L3
  76              		.cfi_endproc
  77              	.LFE16:
  79              		.section	.rodata.str1.8,"aMS",@progbits,1
  80              		.align	3
  81              	.LC0:
  82 0000 413A2069 		.string	"A: i="
  82      3D00
  83 0006 0000     		.align	3
  84              	.LC1:
  85 0008 0A00     		.string	"\n"
  86 000a 00000000 		.align	3
  86      0000
  87              	.LC2:
  88 0010 413A2079 		.string	"A: yield\n"
  88      69656C64 
  88      0A00
  89 001a 00000000 		.align	3
  89      0000
  90              	.LC3:
  91 0020 413A2074 		.string	"A: t1="
  91      313D00
GAS LISTING /tmp/ccwY5lHr.s 			page 3


  92 0027 00       		.align	3
  93              	.LC4:
  94 0028 413A2066 		.string	"A: fibonaci="
  94      69626F6E 
  94      6163693D 
  94      00
  95              		.text
  96              		.align	2
  97              		.globl	_Z11workerBodyAv
  99              	_Z11workerBodyAv:
 100              	.LFB17:
  15:src/workers.cpp **** 
  16:src/workers.cpp **** void workerBodyA()
  17:src/workers.cpp **** {
 101              		.loc 1 17 1 is_stmt 1
 102              		.cfi_startproc
 103 0070 130101FE 		addi	sp,sp,-32
 104              		.cfi_def_cfa_offset 32
 105 0074 233C1100 		sd	ra,24(sp)
 106 0078 23388100 		sd	s0,16(sp)
 107 007c 23349100 		sd	s1,8(sp)
 108 0080 23302101 		sd	s2,0(sp)
 109              		.cfi_offset 1, -8
 110              		.cfi_offset 8, -16
 111              		.cfi_offset 9, -24
 112              		.cfi_offset 18, -32
 113 0084 13040102 		addi	s0,sp,32
 114              		.cfi_def_cfa 8, 0
  18:src/workers.cpp ****     uint8 i = 0;
 115              		.loc 1 18 5
 116              	.LVL7:
 117              		.loc 1 18 11 is_stmt 0
 118 0088 93040000 		li	s1,0
 119 008c 6F008003 		j	.L9
 120              	.LVL8:
 121              	.L13:
  19:src/workers.cpp ****     for (; i < 3; i++)
  20:src/workers.cpp ****     {
  21:src/workers.cpp ****         printString("A: i=");
 122              		.loc 1 21 9 is_stmt 1 discriminator 1
 123              		.loc 1 21 20 is_stmt 0 discriminator 1
 124 0090 17050000 		lla	a0,.LC0
 124      13050500 
 125 0098 97000000 		call	_Z11printStringPKc
 125      E7800000 
 126              	.LVL9:
  22:src/workers.cpp ****         printInteger(i);
 127              		.loc 1 22 9 is_stmt 1 discriminator 1
 128              		.loc 1 22 21 is_stmt 0 discriminator 1
 129 00a0 13850400 		mv	a0,s1
 130 00a4 97000000 		call	_Z12printIntegerm
 130      E7800000 
 131              	.LVL10:
  23:src/workers.cpp ****         printString("\n");
 132              		.loc 1 23 9 is_stmt 1 discriminator 1
 133              		.loc 1 23 20 is_stmt 0 discriminator 1
 134 00ac 17050000 		lla	a0,.LC1
GAS LISTING /tmp/ccwY5lHr.s 			page 4


 134      13050500 
 135 00b4 97000000 		call	_Z11printStringPKc
 135      E7800000 
 136              	.LVL11:
  19:src/workers.cpp ****     for (; i < 3; i++)
 137              		.loc 1 19 5 is_stmt 1 discriminator 1
 138 00bc 9B841400 		addiw	s1,s1,1
 139              	.LVL12:
 140 00c0 93F4F40F 		andi	s1,s1,0xff
 141              	.LVL13:
 142              	.L9:
  19:src/workers.cpp ****     for (; i < 3; i++)
 143              		.loc 1 19 5 discriminator 2
  19:src/workers.cpp ****     for (; i < 3; i++)
 144              		.loc 1 19 14 discriminator 2
 145 00c4 93072000 		li	a5,2
 146 00c8 E3F497FC 		bleu	s1,a5,.L13
  24:src/workers.cpp ****     }
  25:src/workers.cpp **** 
  26:src/workers.cpp ****     printString("A: yield\n");
 147              		.loc 1 26 5
 148              		.loc 1 26 16 is_stmt 0
 149 00cc 17050000 		lla	a0,.LC2
 149      13050500 
 150 00d4 97000000 		call	_Z11printStringPKc
 150      E7800000 
 151              	.LVL14:
  27:src/workers.cpp ****     __asm__ ("li t1, 7");_thread::yield();
 152              		.loc 1 27 5 is_stmt 1
 153              		.loc 1 27 25 is_stmt 0
 154              	 #APP
 155              	# 27 "src/workers.cpp" 1
  28              	
  27:src/workers.cpp ****     __asm__ ("li t1, 7");_thread::yield();
 156              		li t1, 7
 157              	# 0 "" 2
 158              		.loc 1 27 26 is_stmt 1
  27:src/workers.cpp ****     __asm__ ("li t1, 7");_thread::yield();
 159              		.loc 1 27 40 is_stmt 0
 160              	 #NO_APP
 161 00e0 97000000 		call	_ZN7_thread5yieldEv
 161      E7800000 
 162              	.LVL15:
  29:src/workers.cpp ****     uint64 t1 = 0;
 163              		.loc 1 29 5 is_stmt 1
  30:src/workers.cpp ****     __asm__ ("mv %[t1], t1" : [t1] "=r"(t1));
 164              		.loc 1 30 5
 165              		.loc 1 30 45 is_stmt 0
 166              	 #APP
 167              	# 30 "src/workers.cpp" 1
  31              	
 168              		mv s2, t1
 169              	# 0 "" 2
 170              	.LVL16:
  32:src/workers.cpp ****     printString("A: t1=");
 171              		.loc 1 32 5 is_stmt 1
 172              		.loc 1 32 16 is_stmt 0
GAS LISTING /tmp/ccwY5lHr.s 			page 5


 173              	 #NO_APP
 174 00ec 17050000 		lla	a0,.LC3
 174      13050500 
 175 00f4 97000000 		call	_Z11printStringPKc
 175      E7800000 
 176              	.LVL17:
  33:src/workers.cpp ****     printInteger(t1);
 177              		.loc 1 33 5 is_stmt 1
 178              		.loc 1 33 17 is_stmt 0
 179 00fc 13050900 		mv	a0,s2
 180 0100 97000000 		call	_Z12printIntegerm
 180      E7800000 
 181              	.LVL18:
  34:src/workers.cpp ****     printString("\n");
 182              		.loc 1 34 5 is_stmt 1
 183              		.loc 1 34 16 is_stmt 0
 184 0108 17050000 		lla	a0,.LC1
 184      13050500 
 185 0110 97000000 		call	_Z11printStringPKc
 185      E7800000 
 186              	.LVL19:
  35:src/workers.cpp **** 
  36:src/workers.cpp ****     uint64 result = fibonacci(20);
 187              		.loc 1 36 5 is_stmt 1
 188              		.loc 1 36 30 is_stmt 0
 189 0118 13054001 		li	a0,20
 190 011c 97000000 		call	_ZL9fibonaccim
 190      E7800000 
 191              	.LVL20:
 192 0124 13090500 		mv	s2,a0
 193              	.LVL21:
  37:src/workers.cpp ****     printString("A: fibonaci=");
 194              		.loc 1 37 5 is_stmt 1
 195              		.loc 1 37 16 is_stmt 0
 196 0128 17050000 		lla	a0,.LC4
 196      13050500 
 197              	.LVL22:
 198 0130 97000000 		call	_Z11printStringPKc
 198      E7800000 
 199              	.LVL23:
  38:src/workers.cpp ****     printInteger(result);
 200              		.loc 1 38 5 is_stmt 1
 201              		.loc 1 38 17 is_stmt 0
 202 0138 13050900 		mv	a0,s2
 203 013c 97000000 		call	_Z12printIntegerm
 203      E7800000 
 204              	.LVL24:
  39:src/workers.cpp ****     printString("\n");
 205              		.loc 1 39 5 is_stmt 1
 206              		.loc 1 39 16 is_stmt 0
 207 0144 17050000 		lla	a0,.LC1
 207      13050500 
 208 014c 97000000 		call	_Z11printStringPKc
 208      E7800000 
 209              	.LVL25:
 210 0154 6F008003 		j	.L11
 211              	.L14:
GAS LISTING /tmp/ccwY5lHr.s 			page 6


  40:src/workers.cpp **** 
  41:src/workers.cpp ****     for (; i < 6; i++)
  42:src/workers.cpp ****     {
  43:src/workers.cpp ****         printString("A: i=");
 212              		.loc 1 43 9 is_stmt 1 discriminator 1
 213              		.loc 1 43 20 is_stmt 0 discriminator 1
 214 0158 17050000 		lla	a0,.LC0
 214      13050500 
 215 0160 97000000 		call	_Z11printStringPKc
 215      E7800000 
 216              	.LVL26:
  44:src/workers.cpp ****         printInteger(i);
 217              		.loc 1 44 9 is_stmt 1 discriminator 1
 218              		.loc 1 44 21 is_stmt 0 discriminator 1
 219 0168 13850400 		mv	a0,s1
 220 016c 97000000 		call	_Z12printIntegerm
 220      E7800000 
 221              	.LVL27:
  45:src/workers.cpp ****         printString("\n");
 222              		.loc 1 45 9 is_stmt 1 discriminator 1
 223              		.loc 1 45 20 is_stmt 0 discriminator 1
 224 0174 17050000 		lla	a0,.LC1
 224      13050500 
 225 017c 97000000 		call	_Z11printStringPKc
 225      E7800000 
 226              	.LVL28:
  41:src/workers.cpp ****     {
 227              		.loc 1 41 5 is_stmt 1 discriminator 1
 228 0184 9B841400 		addiw	s1,s1,1
 229              	.LVL29:
 230 0188 93F4F40F 		andi	s1,s1,0xff
 231              	.LVL30:
 232              	.L11:
  41:src/workers.cpp ****     {
 233              		.loc 1 41 5 discriminator 2
  41:src/workers.cpp ****     {
 234              		.loc 1 41 14 discriminator 2
 235 018c 93075000 		li	a5,5
 236 0190 E3F497FC 		bleu	s1,a5,.L14
  46:src/workers.cpp ****     }
  47:src/workers.cpp ****     _thread::running->setFinished(true);_thread::yield();
 237              		.loc 1 47 5
 238              	.LVL31:
 239              	.LBB6:
 240              	.LBB7:
 241              		.file 2 "src/../h/_thread.hpp"
   1:src/../h/_thread.hpp **** //
   2:src/../h/_thread.hpp **** // Created by basara on 19.6.24..
   3:src/../h/_thread.hpp **** //
   4:src/../h/_thread.hpp **** 
   5:src/../h/_thread.hpp **** #ifndef PROJECT_BASE_HPP
   6:src/../h/_thread.hpp **** #define PROJECT_BASE_HPP
   7:src/../h/_thread.hpp **** 
   8:src/../h/_thread.hpp **** #include "../lib/hw.h"
   9:src/../h/_thread.hpp **** #include "scheduler.hpp"
  10:src/../h/_thread.hpp **** 
  11:src/../h/_thread.hpp **** typedef _thread* thread_t;
GAS LISTING /tmp/ccwY5lHr.s 			page 7


  12:src/../h/_thread.hpp **** class _thread{
  13:src/../h/_thread.hpp **** public:
  14:src/../h/_thread.hpp ****     static _thread *running;
  15:src/../h/_thread.hpp **** 
  16:src/../h/_thread.hpp ****     ~_thread() {delete[] stack;}
  17:src/../h/_thread.hpp **** 
  18:src/../h/_thread.hpp ****     bool isFinished() const { return finished; }
  19:src/../h/_thread.hpp **** 
  20:src/../h/_thread.hpp ****     void setFinished(bool fin) { _thread::finished = fin; }
 242              		.loc 2 20 34
 243              		.loc 2 20 52 is_stmt 0
 244 0194 97070000 		ld	a5,_ZN7_thread7runningE
 244      83B70700 
 245 019c 13071000 		li	a4,1
 246 01a0 2380E702 		sb	a4,32(a5)
 247              	.LVL32:
 248              	.LBE7:
 249              	.LBE6:
 250              		.loc 1 47 41 is_stmt 1
 251              		.loc 1 47 55 is_stmt 0
 252 01a4 97000000 		call	_ZN7_thread5yieldEv
 252      E7800000 
 253              	.LVL33:
  48:src/workers.cpp **** }
 254              		.loc 1 48 1
 255 01ac 83308101 		ld	ra,24(sp)
 256              		.cfi_restore 1
 257 01b0 03340101 		ld	s0,16(sp)
 258              		.cfi_restore 8
 259              		.cfi_def_cfa 2, 32
 260 01b4 83348100 		ld	s1,8(sp)
 261              		.cfi_restore 9
 262              	.LVL34:
 263 01b8 03390100 		ld	s2,0(sp)
 264              		.cfi_restore 18
 265              	.LVL35:
 266 01bc 13010102 		addi	sp,sp,32
 267              		.cfi_def_cfa_offset 0
 268 01c0 67800000 		jr	ra
 269              		.cfi_endproc
 270              	.LFE17:
 272              		.section	.rodata.str1.8
 273 0035 000000   		.align	3
 274              	.LC5:
 275 0038 423A2069 		.string	"B: i="
 275      3D00
 276 003e 0000     		.align	3
 277              	.LC6:
 278 0040 423A2079 		.string	"B: yield\n"
 278      69656C64 
 278      0A00
 279              		.text
 280              		.align	2
 281              		.globl	_Z11workerBodyBv
 283              	_Z11workerBodyBv:
 284              	.LFB18:
  49:src/workers.cpp **** 
GAS LISTING /tmp/ccwY5lHr.s 			page 8


  50:src/workers.cpp **** void workerBodyB()
  51:src/workers.cpp **** {
 285              		.loc 1 51 1 is_stmt 1
 286              		.cfi_startproc
 287 01c4 130101FE 		addi	sp,sp,-32
 288              		.cfi_def_cfa_offset 32
 289 01c8 233C1100 		sd	ra,24(sp)
 290 01cc 23388100 		sd	s0,16(sp)
 291 01d0 23349100 		sd	s1,8(sp)
 292 01d4 23302101 		sd	s2,0(sp)
 293              		.cfi_offset 1, -8
 294              		.cfi_offset 8, -16
 295              		.cfi_offset 9, -24
 296              		.cfi_offset 18, -32
 297 01d8 13040102 		addi	s0,sp,32
 298              		.cfi_def_cfa 8, 0
  52:src/workers.cpp ****     uint8 i = 10;
 299              		.loc 1 52 5
 300              	.LVL36:
 301              		.loc 1 52 11 is_stmt 0
 302 01dc 9304A000 		li	s1,10
 303 01e0 6F008003 		j	.L17
 304              	.LVL37:
 305              	.L21:
  53:src/workers.cpp ****     for (; i < 13; i++)
  54:src/workers.cpp ****     {
  55:src/workers.cpp ****         printString("B: i=");
 306              		.loc 1 55 9 is_stmt 1 discriminator 1
 307              		.loc 1 55 20 is_stmt 0 discriminator 1
 308 01e4 17050000 		lla	a0,.LC5
 308      13050500 
 309 01ec 97000000 		call	_Z11printStringPKc
 309      E7800000 
 310              	.LVL38:
  56:src/workers.cpp ****         printInteger(i);
 311              		.loc 1 56 9 is_stmt 1 discriminator 1
 312              		.loc 1 56 21 is_stmt 0 discriminator 1
 313 01f4 13850400 		mv	a0,s1
 314 01f8 97000000 		call	_Z12printIntegerm
 314      E7800000 
 315              	.LVL39:
  57:src/workers.cpp ****         printString("\n");
 316              		.loc 1 57 9 is_stmt 1 discriminator 1
 317              		.loc 1 57 20 is_stmt 0 discriminator 1
 318 0200 17050000 		lla	a0,.LC1
 318      13050500 
 319 0208 97000000 		call	_Z11printStringPKc
 319      E7800000 
 320              	.LVL40:
  53:src/workers.cpp ****     for (; i < 13; i++)
 321              		.loc 1 53 5 is_stmt 1 discriminator 1
 322 0210 9B841400 		addiw	s1,s1,1
 323              	.LVL41:
 324 0214 93F4F40F 		andi	s1,s1,0xff
 325              	.LVL42:
 326              	.L17:
  53:src/workers.cpp ****     for (; i < 13; i++)
GAS LISTING /tmp/ccwY5lHr.s 			page 9


 327              		.loc 1 53 5 discriminator 2
  53:src/workers.cpp ****     for (; i < 13; i++)
 328              		.loc 1 53 14 discriminator 2
 329 0218 9307C000 		li	a5,12
 330 021c E3F497FC 		bleu	s1,a5,.L21
  58:src/workers.cpp ****     }
  59:src/workers.cpp **** 
  60:src/workers.cpp ****     printString("B: yield\n");
 331              		.loc 1 60 5
 332              		.loc 1 60 16 is_stmt 0
 333 0220 17050000 		lla	a0,.LC6
 333      13050500 
 334 0228 97000000 		call	_Z11printStringPKc
 334      E7800000 
 335              	.LVL43:
  61:src/workers.cpp ****     __asm__ ("li t1, 5");_thread::yield();
 336              		.loc 1 61 5 is_stmt 1
 337              		.loc 1 61 25 is_stmt 0
 338              	 #APP
 339              	# 61 "src/workers.cpp" 1
  62              	
  61:src/workers.cpp ****     __asm__ ("li t1, 5");_thread::yield();
 340              		li t1, 5
 341              	# 0 "" 2
 342              		.loc 1 61 26 is_stmt 1
  61:src/workers.cpp ****     __asm__ ("li t1, 5");_thread::yield();
 343              		.loc 1 61 40 is_stmt 0
 344              	 #NO_APP
 345 0234 97000000 		call	_ZN7_thread5yieldEv
 345      E7800000 
 346              	.LVL44:
  63:src/workers.cpp ****     uint64 result = fibonacci(23);
 347              		.loc 1 63 5 is_stmt 1
 348              		.loc 1 63 30 is_stmt 0
 349 023c 13057001 		li	a0,23
 350 0240 97000000 		call	_ZL9fibonaccim
 350      E7800000 
 351              	.LVL45:
 352 0248 13090500 		mv	s2,a0
 353              	.LVL46:
  64:src/workers.cpp ****     printString("A: fibonaci=");
 354              		.loc 1 64 5 is_stmt 1
 355              		.loc 1 64 16 is_stmt 0
 356 024c 17050000 		lla	a0,.LC4
 356      13050500 
 357              	.LVL47:
 358 0254 97000000 		call	_Z11printStringPKc
 358      E7800000 
 359              	.LVL48:
  65:src/workers.cpp ****     printInteger(result);
 360              		.loc 1 65 5 is_stmt 1
 361              		.loc 1 65 17 is_stmt 0
 362 025c 13050900 		mv	a0,s2
 363 0260 97000000 		call	_Z12printIntegerm
 363      E7800000 
 364              	.LVL49:
  66:src/workers.cpp ****     printString("\n");
GAS LISTING /tmp/ccwY5lHr.s 			page 10


 365              		.loc 1 66 5 is_stmt 1
 366              		.loc 1 66 16 is_stmt 0
 367 0268 17050000 		lla	a0,.LC1
 367      13050500 
 368 0270 97000000 		call	_Z11printStringPKc
 368      E7800000 
 369              	.LVL50:
 370 0278 6F008003 		j	.L19
 371              	.L22:
  67:src/workers.cpp **** 
  68:src/workers.cpp ****     for (; i < 16; i++)
  69:src/workers.cpp ****     {
  70:src/workers.cpp ****         printString("B: i=");
 372              		.loc 1 70 9 is_stmt 1 discriminator 1
 373              		.loc 1 70 20 is_stmt 0 discriminator 1
 374 027c 17050000 		lla	a0,.LC5
 374      13050500 
 375 0284 97000000 		call	_Z11printStringPKc
 375      E7800000 
 376              	.LVL51:
  71:src/workers.cpp ****         printInteger(i);
 377              		.loc 1 71 9 is_stmt 1 discriminator 1
 378              		.loc 1 71 21 is_stmt 0 discriminator 1
 379 028c 13850400 		mv	a0,s1
 380 0290 97000000 		call	_Z12printIntegerm
 380      E7800000 
 381              	.LVL52:
  72:src/workers.cpp ****         printString("\n");
 382              		.loc 1 72 9 is_stmt 1 discriminator 1
 383              		.loc 1 72 20 is_stmt 0 discriminator 1
 384 0298 17050000 		lla	a0,.LC1
 384      13050500 
 385 02a0 97000000 		call	_Z11printStringPKc
 385      E7800000 
 386              	.LVL53:
  68:src/workers.cpp ****     {
 387              		.loc 1 68 5 is_stmt 1 discriminator 1
 388 02a8 9B841400 		addiw	s1,s1,1
 389              	.LVL54:
 390 02ac 93F4F40F 		andi	s1,s1,0xff
 391              	.LVL55:
 392              	.L19:
  68:src/workers.cpp ****     {
 393              		.loc 1 68 5 discriminator 2
  68:src/workers.cpp ****     {
 394              		.loc 1 68 14 discriminator 2
 395 02b0 9307F000 		li	a5,15
 396 02b4 E3F497FC 		bleu	s1,a5,.L22
  73:src/workers.cpp ****     }
  74:src/workers.cpp ****     _thread::running->setFinished(true);_thread::yield();
 397              		.loc 1 74 5
 398              	.LVL56:
 399              	.LBB8:
 400              	.LBB9:
 401              		.loc 2 20 34
 402              		.loc 2 20 52 is_stmt 0
 403 02b8 97070000 		ld	a5,_ZN7_thread7runningE
GAS LISTING /tmp/ccwY5lHr.s 			page 11


 403      83B70700 
 404 02c0 13071000 		li	a4,1
 405 02c4 2380E702 		sb	a4,32(a5)
 406              	.LVL57:
 407              	.LBE9:
 408              	.LBE8:
 409              		.loc 1 74 41 is_stmt 1
 410              		.loc 1 74 55 is_stmt 0
 411 02c8 97000000 		call	_ZN7_thread5yieldEv
 411      E7800000 
 412              	.LVL58:
  75:src/workers.cpp **** }...
 413              		.loc 1 75 1
 414 02d0 83308101 		ld	ra,24(sp)
 415              		.cfi_restore 1
 416 02d4 03340101 		ld	s0,16(sp)
 417              		.cfi_restore 8
 418              		.cfi_def_cfa 2, 32
 419 02d8 83348100 		ld	s1,8(sp)
 420              		.cfi_restore 9
 421              	.LVL59:
 422 02dc 03390100 		ld	s2,0(sp)
 423              		.cfi_restore 18
 424              	.LVL60:
 425 02e0 13010102 		addi	sp,sp,32
 426              		.cfi_def_cfa_offset 0
 427 02e4 67800000 		jr	ra
 428              		.cfi_endproc
 429              	.LFE18:
 431              	.Letext0:
 432              		.file 3 "src/../lib/hw.h"
 433              		.file 4 "src/../h/print.hpp"
GAS LISTING /tmp/ccwY5lHr.s 			page 12


DEFINED SYMBOLS
                            *ABS*:0000000000000000 workers.cpp
     /tmp/ccwY5lHr.s:11     .text:0000000000000000 _ZL9fibonaccim
     /tmp/ccwY5lHr.s:15     .text:0000000000000000 .L0 
     /tmp/ccwY5lHr.s:17     .text:0000000000000000 .L0 
     /tmp/ccwY5lHr.s:18     .text:0000000000000004 .L0 
     /tmp/ccwY5lHr.s:23     .text:0000000000000014 .L0 
     /tmp/ccwY5lHr.s:24     .text:0000000000000014 .L0 
     /tmp/ccwY5lHr.s:25     .text:0000000000000014 .L0 
     /tmp/ccwY5lHr.s:26     .text:0000000000000014 .L0 
     /tmp/ccwY5lHr.s:28     .text:0000000000000018 .L0 
     /tmp/ccwY5lHr.s:31     .text:000000000000001c .L0 
     /tmp/ccwY5lHr.s:34     .text:0000000000000024 .L0 
     /tmp/ccwY5lHr.s:35     .text:0000000000000024 .L0 
     /tmp/ccwY5lHr.s:37     .text:0000000000000028 .L0 
     /tmp/ccwY5lHr.s:41     .text:000000000000002c .L0 
     /tmp/ccwY5lHr.s:42     .text:000000000000002c .L0 
     /tmp/ccwY5lHr.s:47     .text:000000000000003c .L0 
     /tmp/ccwY5lHr.s:51     .text:0000000000000048 .L0 
     /tmp/ccwY5lHr.s:54     .text:000000000000004c .L0 
     /tmp/ccwY5lHr.s:55     .text:0000000000000050 .L0 
     /tmp/ccwY5lHr.s:56     .text:0000000000000050 .L0 
     /tmp/ccwY5lHr.s:58     .text:0000000000000054 .L0 
     /tmp/ccwY5lHr.s:59     .text:0000000000000054 .L0 
     /tmp/ccwY5lHr.s:61     .text:0000000000000058 .L0 
     /tmp/ccwY5lHr.s:64     .text:000000000000005c .L0 
     /tmp/ccwY5lHr.s:66     .text:0000000000000060 .L0 
     /tmp/ccwY5lHr.s:70     .text:0000000000000064 .L0 
     /tmp/ccwY5lHr.s:72     .text:0000000000000064 .L0 
     /tmp/ccwY5lHr.s:73     .text:0000000000000064 .L0 
     /tmp/ccwY5lHr.s:76     .text:0000000000000070 .L0 
     /tmp/ccwY5lHr.s:99     .text:0000000000000070 _Z11workerBodyAv
     /tmp/ccwY5lHr.s:102    .text:0000000000000070 .L0 
     /tmp/ccwY5lHr.s:103    .text:0000000000000070 .L0 
     /tmp/ccwY5lHr.s:104    .text:0000000000000074 .L0 
     /tmp/ccwY5lHr.s:109    .text:0000000000000084 .L0 
     /tmp/ccwY5lHr.s:110    .text:0000000000000084 .L0 
     /tmp/ccwY5lHr.s:111    .text:0000000000000084 .L0 
     /tmp/ccwY5lHr.s:112    .text:0000000000000084 .L0 
     /tmp/ccwY5lHr.s:114    .text:0000000000000088 .L0 
     /tmp/ccwY5lHr.s:117    .text:0000000000000088 .L0 
     /tmp/ccwY5lHr.s:118    .text:0000000000000088 .L0 
     /tmp/ccwY5lHr.s:123    .text:0000000000000090 .L0 
     /tmp/ccwY5lHr.s:124    .text:0000000000000090 .L0 
     /tmp/ccwY5lHr.s:128    .text:00000000000000a0 .L0 
     /tmp/ccwY5lHr.s:129    .text:00000000000000a0 .L0 
     /tmp/ccwY5lHr.s:133    .text:00000000000000ac .L0 
     /tmp/ccwY5lHr.s:134    .text:00000000000000ac .L0 
     /tmp/ccwY5lHr.s:138    .text:00000000000000bc .L0 
     /tmp/ccwY5lHr.s:144    .text:00000000000000c4 .L0 
     /tmp/ccwY5lHr.s:145    .text:00000000000000c4 .L0 
     /tmp/ccwY5lHr.s:148    .text:00000000000000cc .L0 
     /tmp/ccwY5lHr.s:149    .text:00000000000000cc .L0 
     /tmp/ccwY5lHr.s:153    .text:00000000000000dc .L0 
     src/workers.cpp:27     .text:00000000000000dc .L0 
     /tmp/ccwY5lHr.s:159    .text:00000000000000e0 .L0 
     /tmp/ccwY5lHr.s:161    .text:00000000000000e0 .L0 
GAS LISTING /tmp/ccwY5lHr.s 			page 13


     /tmp/ccwY5lHr.s:164    .text:00000000000000e8 .L0 
     /tmp/ccwY5lHr.s:165    .text:00000000000000e8 .L0 
     src/workers.cpp:30     .text:00000000000000e8 .L0 
     /tmp/ccwY5lHr.s:172    .text:00000000000000ec .L0 
     /tmp/ccwY5lHr.s:174    .text:00000000000000ec .L0 
     /tmp/ccwY5lHr.s:178    .text:00000000000000fc .L0 
     /tmp/ccwY5lHr.s:179    .text:00000000000000fc .L0 
     /tmp/ccwY5lHr.s:183    .text:0000000000000108 .L0 
     /tmp/ccwY5lHr.s:184    .text:0000000000000108 .L0 
     /tmp/ccwY5lHr.s:188    .text:0000000000000118 .L0 
     /tmp/ccwY5lHr.s:189    .text:0000000000000118 .L0 
     /tmp/ccwY5lHr.s:195    .text:0000000000000128 .L0 
     /tmp/ccwY5lHr.s:196    .text:0000000000000128 .L0 
     /tmp/ccwY5lHr.s:201    .text:0000000000000138 .L0 
     /tmp/ccwY5lHr.s:202    .text:0000000000000138 .L0 
     /tmp/ccwY5lHr.s:206    .text:0000000000000144 .L0 
     /tmp/ccwY5lHr.s:207    .text:0000000000000144 .L0 
     /tmp/ccwY5lHr.s:213    .text:0000000000000158 .L0 
     /tmp/ccwY5lHr.s:214    .text:0000000000000158 .L0 
     /tmp/ccwY5lHr.s:218    .text:0000000000000168 .L0 
     /tmp/ccwY5lHr.s:219    .text:0000000000000168 .L0 
     /tmp/ccwY5lHr.s:223    .text:0000000000000174 .L0 
     /tmp/ccwY5lHr.s:224    .text:0000000000000174 .L0 
     /tmp/ccwY5lHr.s:228    .text:0000000000000184 .L0 
     /tmp/ccwY5lHr.s:234    .text:000000000000018c .L0 
     /tmp/ccwY5lHr.s:235    .text:000000000000018c .L0 
     /tmp/ccwY5lHr.s:242    .text:0000000000000194 .L0 
     /tmp/ccwY5lHr.s:243    .text:0000000000000194 .L0 
     /tmp/ccwY5lHr.s:244    .text:0000000000000194 .L0 
     /tmp/ccwY5lHr.s:251    .text:00000000000001a4 .L0 
     /tmp/ccwY5lHr.s:252    .text:00000000000001a4 .L0 
     /tmp/ccwY5lHr.s:255    .text:00000000000001ac .L0 
     /tmp/ccwY5lHr.s:256    .text:00000000000001b0 .L0 
     /tmp/ccwY5lHr.s:258    .text:00000000000001b4 .L0 
     /tmp/ccwY5lHr.s:259    .text:00000000000001b4 .L0 
     /tmp/ccwY5lHr.s:261    .text:00000000000001b8 .L0 
     /tmp/ccwY5lHr.s:264    .text:00000000000001bc .L0 
     /tmp/ccwY5lHr.s:267    .text:00000000000001c0 .L0 
     /tmp/ccwY5lHr.s:269    .text:00000000000001c4 .L0 
     /tmp/ccwY5lHr.s:283    .text:00000000000001c4 _Z11workerBodyBv
     /tmp/ccwY5lHr.s:286    .text:00000000000001c4 .L0 
     /tmp/ccwY5lHr.s:287    .text:00000000000001c4 .L0 
     /tmp/ccwY5lHr.s:288    .text:00000000000001c8 .L0 
     /tmp/ccwY5lHr.s:293    .text:00000000000001d8 .L0 
     /tmp/ccwY5lHr.s:294    .text:00000000000001d8 .L0 
     /tmp/ccwY5lHr.s:295    .text:00000000000001d8 .L0 
     /tmp/ccwY5lHr.s:296    .text:00000000000001d8 .L0 
     /tmp/ccwY5lHr.s:298    .text:00000000000001dc .L0 
     /tmp/ccwY5lHr.s:301    .text:00000000000001dc .L0 
     /tmp/ccwY5lHr.s:302    .text:00000000000001dc .L0 
     /tmp/ccwY5lHr.s:307    .text:00000000000001e4 .L0 
     /tmp/ccwY5lHr.s:308    .text:00000000000001e4 .L0 
     /tmp/ccwY5lHr.s:312    .text:00000000000001f4 .L0 
     /tmp/ccwY5lHr.s:313    .text:00000000000001f4 .L0 
     /tmp/ccwY5lHr.s:317    .text:0000000000000200 .L0 
     /tmp/ccwY5lHr.s:318    .text:0000000000000200 .L0 
     /tmp/ccwY5lHr.s:322    .text:0000000000000210 .L0 
GAS LISTING /tmp/ccwY5lHr.s 			page 14


     /tmp/ccwY5lHr.s:328    .text:0000000000000218 .L0 
     /tmp/ccwY5lHr.s:329    .text:0000000000000218 .L0 
     /tmp/ccwY5lHr.s:332    .text:0000000000000220 .L0 
     /tmp/ccwY5lHr.s:333    .text:0000000000000220 .L0 
     /tmp/ccwY5lHr.s:337    .text:0000000000000230 .L0 
     src/workers.cpp:61     .text:0000000000000230 .L0 
     /tmp/ccwY5lHr.s:343    .text:0000000000000234 .L0 
     /tmp/ccwY5lHr.s:345    .text:0000000000000234 .L0 
     /tmp/ccwY5lHr.s:348    .text:000000000000023c .L0 
     /tmp/ccwY5lHr.s:349    .text:000000000000023c .L0 
     /tmp/ccwY5lHr.s:355    .text:000000000000024c .L0 
     /tmp/ccwY5lHr.s:356    .text:000000000000024c .L0 
     /tmp/ccwY5lHr.s:361    .text:000000000000025c .L0 
     /tmp/ccwY5lHr.s:362    .text:000000000000025c .L0 
     /tmp/ccwY5lHr.s:366    .text:0000000000000268 .L0 
     /tmp/ccwY5lHr.s:367    .text:0000000000000268 .L0 
     /tmp/ccwY5lHr.s:373    .text:000000000000027c .L0 
     /tmp/ccwY5lHr.s:374    .text:000000000000027c .L0 
     /tmp/ccwY5lHr.s:378    .text:000000000000028c .L0 
     /tmp/ccwY5lHr.s:379    .text:000000000000028c .L0 
     /tmp/ccwY5lHr.s:383    .text:0000000000000298 .L0 
     /tmp/ccwY5lHr.s:384    .text:0000000000000298 .L0 
     /tmp/ccwY5lHr.s:388    .text:00000000000002a8 .L0 
     /tmp/ccwY5lHr.s:394    .text:00000000000002b0 .L0 
     /tmp/ccwY5lHr.s:395    .text:00000000000002b0 .L0 
     /tmp/ccwY5lHr.s:401    .text:00000000000002b8 .L0 
     /tmp/ccwY5lHr.s:402    .text:00000000000002b8 .L0 
     /tmp/ccwY5lHr.s:403    .text:00000000000002b8 .L0 
     /tmp/ccwY5lHr.s:410    .text:00000000000002c8 .L0 
     /tmp/ccwY5lHr.s:411    .text:00000000000002c8 .L0 
     /tmp/ccwY5lHr.s:414    .text:00000000000002d0 .L0 
     /tmp/ccwY5lHr.s:415    .text:00000000000002d4 .L0 
     /tmp/ccwY5lHr.s:417    .text:00000000000002d8 .L0 
     /tmp/ccwY5lHr.s:418    .text:00000000000002d8 .L0 
     /tmp/ccwY5lHr.s:420    .text:00000000000002dc .L0 
     /tmp/ccwY5lHr.s:423    .text:00000000000002e0 .L0 
     /tmp/ccwY5lHr.s:426    .text:00000000000002e4 .L0 
     /tmp/ccwY5lHr.s:428    .text:00000000000002e8 .L0 
     /tmp/ccwY5lHr.s:434    .text:00000000000002e8 .L0 
     /tmp/ccwY5lHr.s:81     .rodata.str1.8:0000000000000000 .LC0
     /tmp/ccwY5lHr.s:124    .text:0000000000000090 .L0 
     /tmp/ccwY5lHr.s:84     .rodata.str1.8:0000000000000008 .LC1
     /tmp/ccwY5lHr.s:134    .text:00000000000000ac .L0 
     /tmp/ccwY5lHr.s:87     .rodata.str1.8:0000000000000010 .LC2
     /tmp/ccwY5lHr.s:149    .text:00000000000000cc .L0 
     /tmp/ccwY5lHr.s:90     .rodata.str1.8:0000000000000020 .LC3
     /tmp/ccwY5lHr.s:174    .text:00000000000000ec .L0 
     /tmp/ccwY5lHr.s:184    .text:0000000000000108 .L0 
     /tmp/ccwY5lHr.s:93     .rodata.str1.8:0000000000000028 .LC4
     /tmp/ccwY5lHr.s:196    .text:0000000000000128 .L0 
     /tmp/ccwY5lHr.s:207    .text:0000000000000144 .L0 
     /tmp/ccwY5lHr.s:214    .text:0000000000000158 .L0 
     /tmp/ccwY5lHr.s:224    .text:0000000000000174 .L0 
     /tmp/ccwY5lHr.s:244    .text:0000000000000194 .L0 
     /tmp/ccwY5lHr.s:274    .rodata.str1.8:0000000000000038 .LC5
     /tmp/ccwY5lHr.s:308    .text:00000000000001e4 .L0 
     /tmp/ccwY5lHr.s:318    .text:0000000000000200 .L0 
GAS LISTING /tmp/ccwY5lHr.s 			page 15


     /tmp/ccwY5lHr.s:277    .rodata.str1.8:0000000000000040 .LC6
     /tmp/ccwY5lHr.s:333    .text:0000000000000220 .L0 
     /tmp/ccwY5lHr.s:356    .text:000000000000024c .L0 
     /tmp/ccwY5lHr.s:367    .text:0000000000000268 .L0 
     /tmp/ccwY5lHr.s:374    .text:000000000000027c .L0 
     /tmp/ccwY5lHr.s:384    .text:0000000000000298 .L0 
     /tmp/ccwY5lHr.s:403    .text:00000000000002b8 .L0 
     /tmp/ccwY5lHr.s:52     .text:000000000000004c .L1
     /tmp/ccwY5lHr.s:69     .text:0000000000000064 .L6
     /tmp/ccwY5lHr.s:39     .text:000000000000002c .L3
     /tmp/ccwY5lHr.s:142    .text:00000000000000c4 .L9
     /tmp/ccwY5lHr.s:121    .text:0000000000000090 .L13
     /tmp/ccwY5lHr.s:232    .text:000000000000018c .L11
     /tmp/ccwY5lHr.s:211    .text:0000000000000158 .L14
     /tmp/ccwY5lHr.s:326    .text:0000000000000218 .L17
     /tmp/ccwY5lHr.s:305    .text:00000000000001e4 .L21
     /tmp/ccwY5lHr.s:392    .text:00000000000002b0 .L19
     /tmp/ccwY5lHr.s:371    .text:000000000000027c .L22
     /tmp/ccwY5lHr.s:1227   .debug_abbrev:0000000000000000 .Ldebug_abbrev0
     /tmp/ccwY5lHr.s:2041   .debug_str:0000000000000083 .LASF41
     /tmp/ccwY5lHr.s:2027   .debug_str:0000000000000000 .LASF42
     /tmp/ccwY5lHr.s:2081   .debug_str:000000000000027f .LASF43
     /tmp/ccwY5lHr.s:8      .text:0000000000000000 .Ltext0
     /tmp/ccwY5lHr.s:431    .text:00000000000002e8 .Letext0
     /tmp/ccwY5lHr.s:2025   .debug_line:0000000000000000 .Ldebug_line0
     /tmp/ccwY5lHr.s:2095   .debug_str:00000000000002ee .LASF0
     /tmp/ccwY5lHr.s:2075   .debug_str:0000000000000257 .LASF1
     /tmp/ccwY5lHr.s:2067   .debug_str:0000000000000217 .LASF2
     /tmp/ccwY5lHr.s:2123   .debug_str:000000000000039a .LASF3
     /tmp/ccwY5lHr.s:2045   .debug_str:0000000000000155 .LASF4
     /tmp/ccwY5lHr.s:2073   .debug_str:0000000000000245 .LASF5
     /tmp/ccwY5lHr.s:2035   .debug_str:0000000000000048 .LASF6
     /tmp/ccwY5lHr.s:2031   .debug_str:0000000000000024 .LASF7
     /tmp/ccwY5lHr.s:2057   .debug_str:00000000000001d3 .LASF8
     /tmp/ccwY5lHr.s:2105   .debug_str:0000000000000323 .LASF9
     /tmp/ccwY5lHr.s:2043   .debug_str:0000000000000147 .LASF10
     /tmp/ccwY5lHr.s:2143   .debug_str:000000000000042b .LASF11
     /tmp/ccwY5lHr.s:2063   .debug_str:00000000000001ff .LASF12
     /tmp/ccwY5lHr.s:2127   .debug_str:00000000000003a5 .LASF13
     /tmp/ccwY5lHr.s:2113   .debug_str:000000000000035a .LASF14
     /tmp/ccwY5lHr.s:2079   .debug_str:0000000000000273 .LASF15
     /tmp/ccwY5lHr.s:2051   .debug_str:0000000000000167 .LASF16
     /tmp/ccwY5lHr.s:2107   .debug_str:0000000000000333 .LASF17
     /tmp/ccwY5lHr.s:2121   .debug_str:0000000000000392 .LASF44
     /tmp/ccwY5lHr.s:2133   .debug_str:00000000000003e0 .LASF45
     /tmp/ccwY5lHr.s:2097   .debug_str:00000000000002fb .LASF46
     /tmp/ccwY5lHr.s:2065   .debug_str:000000000000020e .LASF18
     /tmp/ccwY5lHr.s:2085   .debug_str:00000000000002af .LASF20
     /tmp/ccwY5lHr.s:2061   .debug_str:00000000000001f4 .LASF30
     /tmp/ccwY5lHr.s:2037   .debug_str:000000000000004f .LASF32
     /tmp/ccwY5lHr.s:2099   .debug_str:0000000000000303 .LASF19
     /tmp/ccwY5lHr.s:2137   .debug_str:00000000000003fa .LASF21
     /tmp/ccwY5lHr.s:2059   .debug_str:00000000000001e6 .LASF22
     /tmp/ccwY5lHr.s:2055   .debug_str:00000000000001a9 .LASF23
     /tmp/ccwY5lHr.s:2047   .debug_str:000000000000015c .LASF47
     /tmp/ccwY5lHr.s:2093   .debug_str:00000000000002e8 .LASF48
     /tmp/ccwY5lHr.s:2029   .debug_str:0000000000000010 .LASF49
GAS LISTING /tmp/ccwY5lHr.s 			page 16


     /tmp/ccwY5lHr.s:2129   .debug_str:00000000000003b5 .LASF50
     /tmp/ccwY5lHr.s:2071   .debug_str:000000000000022a .LASF51
     /tmp/ccwY5lHr.s:2039   .debug_str:000000000000006a .LASF52
     /tmp/ccwY5lHr.s:2087   .debug_str:00000000000002bf .LASF24
     /tmp/ccwY5lHr.s:2049   .debug_str:0000000000000161 .LASF25
     /tmp/ccwY5lHr.s:2111   .debug_str:0000000000000352 .LASF26
     /tmp/ccwY5lHr.s:2077   .debug_str:000000000000026a .LASF27
     /tmp/ccwY5lHr.s:2083   .debug_str:00000000000002a1 .LASF53
     /tmp/ccwY5lHr.s:2053   .debug_str:000000000000017d .LASF54
     /tmp/ccwY5lHr.s:2115   .debug_str:000000000000036a .LASF55
     /tmp/ccwY5lHr.s:2131   .debug_str:00000000000003c1 .LASF56
     /tmp/ccwY5lHr.s:2109   .debug_str:0000000000000349 .LASF28
     /tmp/ccwY5lHr.s:2125   .debug_str:00000000000003a0 .LASF29
     /tmp/ccwY5lHr.s:2119   .debug_str:0000000000000386 .LASF31
     /tmp/ccwY5lHr.s:2033   .debug_str:0000000000000037 .LASF33
     /tmp/ccwY5lHr.s:284    .text:00000000000001c4 .LFB18
     /tmp/ccwY5lHr.s:429    .text:00000000000002e8 .LFE18
     /tmp/ccwY5lHr.s:1904   .debug_loc:0000000000000000 .LLST5
     /tmp/ccwY5lHr.s:2101   .debug_str:000000000000030f .LASF34
     /tmp/ccwY5lHr.s:1924   .debug_loc:000000000000005d .LLST6
     /tmp/ccwY5lHr.s:399    .text:00000000000002b8 .LBB8
     /tmp/ccwY5lHr.s:408    .text:00000000000002c8 .LBE8
     /tmp/ccwY5lHr.s:1935   .debug_loc:0000000000000093 .LLST7
     /tmp/ccwY5lHr.s:310    .text:00000000000001f4 .LVL38
     /tmp/ccwY5lHr.s:315    .text:0000000000000200 .LVL39
     /tmp/ccwY5lHr.s:320    .text:0000000000000210 .LVL40
     /tmp/ccwY5lHr.s:335    .text:0000000000000230 .LVL43
     /tmp/ccwY5lHr.s:346    .text:000000000000023c .LVL44
     /tmp/ccwY5lHr.s:351    .text:0000000000000248 .LVL45
     /tmp/ccwY5lHr.s:359    .text:000000000000025c .LVL48
     /tmp/ccwY5lHr.s:364    .text:0000000000000268 .LVL49
     /tmp/ccwY5lHr.s:369    .text:0000000000000278 .LVL50
     /tmp/ccwY5lHr.s:376    .text:000000000000028c .LVL51
     /tmp/ccwY5lHr.s:381    .text:0000000000000298 .LVL52
     /tmp/ccwY5lHr.s:386    .text:00000000000002a8 .LVL53
     /tmp/ccwY5lHr.s:412    .text:00000000000002d0 .LVL58
     /tmp/ccwY5lHr.s:2117   .debug_str:000000000000037a .LASF35
     /tmp/ccwY5lHr.s:2089   .debug_str:00000000000002c4 .LASF36
     /tmp/ccwY5lHr.s:100    .text:0000000000000070 .LFB17
     /tmp/ccwY5lHr.s:270    .text:00000000000001c4 .LFE17
     /tmp/ccwY5lHr.s:1943   .debug_loc:00000000000000b7 .LLST1
     /tmp/ccwY5lHr.s:1963   .debug_loc:0000000000000114 .LLST2
     /tmp/ccwY5lHr.s:1971   .debug_loc:0000000000000138 .LLST3
     /tmp/ccwY5lHr.s:239    .text:0000000000000194 .LBB6
     /tmp/ccwY5lHr.s:249    .text:00000000000001a4 .LBE6
     /tmp/ccwY5lHr.s:1982   .debug_loc:000000000000016e .LLST4
     /tmp/ccwY5lHr.s:126    .text:00000000000000a0 .LVL9
     /tmp/ccwY5lHr.s:131    .text:00000000000000ac .LVL10
     /tmp/ccwY5lHr.s:136    .text:00000000000000bc .LVL11
     /tmp/ccwY5lHr.s:151    .text:00000000000000dc .LVL14
     /tmp/ccwY5lHr.s:162    .text:00000000000000e8 .LVL15
     /tmp/ccwY5lHr.s:176    .text:00000000000000fc .LVL17
     /tmp/ccwY5lHr.s:181    .text:0000000000000108 .LVL18
     /tmp/ccwY5lHr.s:186    .text:0000000000000118 .LVL19
     /tmp/ccwY5lHr.s:191    .text:0000000000000124 .LVL20
     /tmp/ccwY5lHr.s:199    .text:0000000000000138 .LVL23
     /tmp/ccwY5lHr.s:204    .text:0000000000000144 .LVL24
GAS LISTING /tmp/ccwY5lHr.s 			page 17


     /tmp/ccwY5lHr.s:209    .text:0000000000000154 .LVL25
     /tmp/ccwY5lHr.s:216    .text:0000000000000168 .LVL26
     /tmp/ccwY5lHr.s:221    .text:0000000000000174 .LVL27
     /tmp/ccwY5lHr.s:226    .text:0000000000000184 .LVL28
     /tmp/ccwY5lHr.s:253    .text:00000000000001ac .LVL33
     /tmp/ccwY5lHr.s:2139   .debug_str:0000000000000415 .LASF57
     /tmp/ccwY5lHr.s:12     .text:0000000000000000 .LFB16
     /tmp/ccwY5lHr.s:77     .text:0000000000000070 .LFE16
     /tmp/ccwY5lHr.s:1990   .debug_loc:0000000000000192 .LLST0
     /tmp/ccwY5lHr.s:44     .text:0000000000000038 .LVL2
     /tmp/ccwY5lHr.s:49     .text:0000000000000048 .LVL3
     /tmp/ccwY5lHr.s:74     .text:000000000000006c .LVL6
     /tmp/ccwY5lHr.s:2069   .debug_str:0000000000000225 .LASF58
     /tmp/ccwY5lHr.s:2091   .debug_str:00000000000002d5 .LASF37
     /tmp/ccwY5lHr.s:2141   .debug_str:000000000000041f .LASF39
     /tmp/ccwY5lHr.s:2135   .debug_str:00000000000003e8 .LASF38
     /tmp/ccwY5lHr.s:2103   .debug_str:0000000000000316 .LASF40
     /tmp/ccwY5lHr.s:300    .text:00000000000001dc .LVL36
     /tmp/ccwY5lHr.s:304    .text:00000000000001e4 .LVL37
     /tmp/ccwY5lHr.s:323    .text:0000000000000214 .LVL41
     /tmp/ccwY5lHr.s:325    .text:0000000000000218 .LVL42
     /tmp/ccwY5lHr.s:389    .text:00000000000002ac .LVL54
     /tmp/ccwY5lHr.s:391    .text:00000000000002b0 .LVL55
     /tmp/ccwY5lHr.s:421    .text:00000000000002dc .LVL59
     /tmp/ccwY5lHr.s:353    .text:000000000000024c .LVL46
     /tmp/ccwY5lHr.s:357    .text:0000000000000254 .LVL47
     /tmp/ccwY5lHr.s:424    .text:00000000000002e0 .LVL60
     /tmp/ccwY5lHr.s:398    .text:00000000000002b8 .LVL56
     /tmp/ccwY5lHr.s:406    .text:00000000000002c8 .LVL57
     /tmp/ccwY5lHr.s:116    .text:0000000000000088 .LVL7
     /tmp/ccwY5lHr.s:120    .text:0000000000000090 .LVL8
     /tmp/ccwY5lHr.s:139    .text:00000000000000c0 .LVL12
     /tmp/ccwY5lHr.s:141    .text:00000000000000c4 .LVL13
     /tmp/ccwY5lHr.s:229    .text:0000000000000188 .LVL29
     /tmp/ccwY5lHr.s:231    .text:000000000000018c .LVL30
     /tmp/ccwY5lHr.s:262    .text:00000000000001b8 .LVL34
     /tmp/ccwY5lHr.s:170    .text:00000000000000ec .LVL16
     /tmp/ccwY5lHr.s:193    .text:0000000000000128 .LVL21
     /tmp/ccwY5lHr.s:197    .text:0000000000000130 .LVL22
     /tmp/ccwY5lHr.s:265    .text:00000000000001bc .LVL35
     /tmp/ccwY5lHr.s:238    .text:0000000000000194 .LVL31
     /tmp/ccwY5lHr.s:247    .text:00000000000001a4 .LVL32
     /tmp/ccwY5lHr.s:16     .text:0000000000000000 .LVL0
     /tmp/ccwY5lHr.s:38     .text:000000000000002c .LVL1
     /tmp/ccwY5lHr.s:62     .text:0000000000000058 .LVL4
     /tmp/ccwY5lHr.s:68     .text:0000000000000064 .LVL5
     /tmp/ccwY5lHr.s:435    .debug_info:0000000000000000 .Ldebug_info0

UNDEFINED SYMBOLS
_ZN7_thread5yieldEv
_Z11printStringPKc
_Z12printIntegerm
_ZN7_thread7runningE
