GAS LISTING /tmp/ccBi8fU0.s 			page 1


   1              		.file	"buffer_CPP_API.cpp"
   2              		.option nopic
   3              		.option norelax
   4              		.attribute arch, "rv64i2p0_m2p0_a2p0"
   5              		.attribute unaligned_access, 0
   6              		.attribute stack_align, 16
   7              		.text
   8              	.Ltext0:
   9              		.section	.text._ZN9SemaphoreD2Ev,"axG",@progbits,_ZN9SemaphoreD5Ev,comdat
  10              		.align	2
  11              		.weak	_ZN9SemaphoreD2Ev
  13              	_ZN9SemaphoreD2Ev:
  14              	.LFB26:
  15              		.file 1 "test/../h/syscall_cpp.hpp"
   1:test/../h/syscall_cpp.hpp **** //
   2:test/../h/syscall_cpp.hpp **** // Created by basara on 19.6.24..
   3:test/../h/syscall_cpp.hpp **** //
   4:test/../h/syscall_cpp.hpp **** 
   5:test/../h/syscall_cpp.hpp **** #ifndef OS_PROJEKAT_SYSCALL_CPP_HPP
   6:test/../h/syscall_cpp.hpp **** #define OS_PROJEKAT_SYSCALL_CPP_HPP
   7:test/../h/syscall_cpp.hpp **** 
   8:test/../h/syscall_cpp.hpp **** #include "syscall_c.hpp"
   9:test/../h/syscall_cpp.hpp **** 
  10:test/../h/syscall_cpp.hpp **** 
  11:test/../h/syscall_cpp.hpp **** //void* ::operator new(size_t);
  12:test/../h/syscall_cpp.hpp **** //void ::operator delete(void*);
  13:test/../h/syscall_cpp.hpp **** 
  14:test/../h/syscall_cpp.hpp **** class Thread {
  15:test/../h/syscall_cpp.hpp **** 
  16:test/../h/syscall_cpp.hpp **** public:
  17:test/../h/syscall_cpp.hpp ****     Thread(void (*body)(void*), void* arg):body(body), arg(arg){}
  18:test/../h/syscall_cpp.hpp ****     virtual ~Thread() { thread_exit();}
  19:test/../h/syscall_cpp.hpp **** 
  20:test/../h/syscall_cpp.hpp ****     int start(){
  21:test/../h/syscall_cpp.hpp ****         if (body == nullptr){
  22:test/../h/syscall_cpp.hpp ****             thread_create(&myhandle, &threadWrapper,this);
  23:test/../h/syscall_cpp.hpp ****         }
  24:test/../h/syscall_cpp.hpp ****         else {
  25:test/../h/syscall_cpp.hpp ****             thread_create(&myhandle, body,arg);
  26:test/../h/syscall_cpp.hpp ****         }
  27:test/../h/syscall_cpp.hpp ****         return 0;
  28:test/../h/syscall_cpp.hpp ****     }
  29:test/../h/syscall_cpp.hpp **** 
  30:test/../h/syscall_cpp.hpp ****     static void dispatch() {thread_dispatch();}
  31:test/../h/syscall_cpp.hpp ****     static int sleep(time_t);
  32:test/../h/syscall_cpp.hpp **** 
  33:test/../h/syscall_cpp.hpp **** protected:
  34:test/../h/syscall_cpp.hpp ****     Thread(){};
  35:test/../h/syscall_cpp.hpp ****     virtual void run(){}
  36:test/../h/syscall_cpp.hpp **** 
  37:test/../h/syscall_cpp.hpp **** private:
  38:test/../h/syscall_cpp.hpp ****     static void threadWrapper(void* p){
  39:test/../h/syscall_cpp.hpp ****         Thread* thr = (Thread*)p;
  40:test/../h/syscall_cpp.hpp ****         if (thr) thr->run();
  41:test/../h/syscall_cpp.hpp ****     }
  42:test/../h/syscall_cpp.hpp **** 
  43:test/../h/syscall_cpp.hpp ****     thread_t myhandle;  //rucka do thread objekta
GAS LISTING /tmp/ccBi8fU0.s 			page 2


  44:test/../h/syscall_cpp.hpp ****     void (*body)(void*) = nullptr;
  45:test/../h/syscall_cpp.hpp ****     void* arg;
  46:test/../h/syscall_cpp.hpp **** 
  47:test/../h/syscall_cpp.hpp **** };
  48:test/../h/syscall_cpp.hpp **** 
  49:test/../h/syscall_cpp.hpp **** 
  50:test/../h/syscall_cpp.hpp **** class Semaphore{
  51:test/../h/syscall_cpp.hpp **** public:
  52:test/../h/syscall_cpp.hpp ****     Semaphore(unsigned init=1){
  53:test/../h/syscall_cpp.hpp ****         sem_open(&myHandle, init);
  54:test/../h/syscall_cpp.hpp ****     };
  55:test/../h/syscall_cpp.hpp ****     virtual ~Semaphore(){
  16              		.loc 1 55 13
  17              		.cfi_startproc
  18              		.cfi_personality 0x9b,DW.ref.__gxx_personality_v0
  19              		.cfi_lsda 0x1b,.LLSDA26
  20              	.LVL0:
  21 0000 130101FF 		addi	sp,sp,-16
  22              		.cfi_def_cfa_offset 16
  23 0004 23341100 		sd	ra,8(sp)
  24 0008 23308100 		sd	s0,0(sp)
  25              		.cfi_offset 1, -8
  26              		.cfi_offset 8, -16
  27 000c 13040101 		addi	s0,sp,16
  28              		.cfi_def_cfa 8, 0
  29              	.LBB42:
  30              		.loc 1 55 25 is_stmt 0
  31 0010 97070000 		lla	a5,_ZTV9Semaphore+16
  31      93870700 
  32 0018 2330F500 		sd	a5,0(a0)
  56:test/../h/syscall_cpp.hpp ****         sem_close(myHandle);
  33              		.loc 1 56 9 is_stmt 1
  34              		.loc 1 56 18 is_stmt 0
  35 001c 03358500 		ld	a0,8(a0)
  36              	.LVL1:
  37 0020 97000000 		call	_Z9sem_closeP4_sem
  37      E7800000 
  38              	.LVL2:
  39              	.LBE42:
  57:test/../h/syscall_cpp.hpp ****     };
  40              		.loc 1 57 5
  41 0028 83308100 		ld	ra,8(sp)
  42              		.cfi_restore 1
  43 002c 03340100 		ld	s0,0(sp)
  44              		.cfi_restore 8
  45              		.cfi_def_cfa 2, 16
  46 0030 13010101 		addi	sp,sp,16
  47              		.cfi_def_cfa_offset 0
  48 0034 67800000 		jr	ra
  49              		.cfi_endproc
  50              	.LFE26:
  51              		.globl	__gxx_personality_v0
  52              		.section	.gcc_except_table._ZN9SemaphoreD2Ev,"awG",@progbits,_ZN9SemaphoreD5Ev,comdat
  53              	.LLSDA26:
  54 0000 FF       		.byte	0xff
  55 0001 FF       		.byte	0xff
  56 0002 03       		.byte	0x3
GAS LISTING /tmp/ccBi8fU0.s 			page 3


  57 0003 00       		.byte	0
  58              		.section	.text._ZN9SemaphoreD2Ev,"axG",@progbits,_ZN9SemaphoreD5Ev,comdat
  60              		.weak	_ZN9SemaphoreD1Ev
  61              		.set	_ZN9SemaphoreD1Ev,_ZN9SemaphoreD2Ev
  62              		.section	.text._ZN9SemaphoreD0Ev,"axG",@progbits,_ZN9SemaphoreD5Ev,comdat
  63              		.align	2
  64              		.weak	_ZN9SemaphoreD0Ev
  66              	_ZN9SemaphoreD0Ev:
  67              	.LFB28:
  55:test/../h/syscall_cpp.hpp ****         sem_close(myHandle);
  68              		.loc 1 55 13 is_stmt 1
  69              		.cfi_startproc
  70              		.cfi_personality 0x9b,DW.ref.__gxx_personality_v0
  71              		.cfi_lsda 0x1b,.LLSDA28
  72              	.LVL3:
  73 0000 130101FE 		addi	sp,sp,-32
  74              		.cfi_def_cfa_offset 32
  75 0004 233C1100 		sd	ra,24(sp)
  76 0008 23388100 		sd	s0,16(sp)
  77 000c 23349100 		sd	s1,8(sp)
  78              		.cfi_offset 1, -8
  79              		.cfi_offset 8, -16
  80              		.cfi_offset 9, -24
  81 0010 13040102 		addi	s0,sp,32
  82              		.cfi_def_cfa 8, 0
  83 0014 93040500 		mv	s1,a0
  84              	.LVL4:
  85              	.LBB43:
  86              	.LBB44:
  55:test/../h/syscall_cpp.hpp ****         sem_close(myHandle);
  87              		.loc 1 55 25 is_stmt 0
  88 0018 97070000 		lla	a5,_ZTV9Semaphore+16
  88      93870700 
  89 0020 2330F500 		sd	a5,0(a0)
  56:test/../h/syscall_cpp.hpp ****         sem_close(myHandle);
  90              		.loc 1 56 9 is_stmt 1
  56:test/../h/syscall_cpp.hpp ****         sem_close(myHandle);
  91              		.loc 1 56 18 is_stmt 0
  92 0024 03358500 		ld	a0,8(a0)
  93              	.LVL5:
  94 0028 97000000 		call	_Z9sem_closeP4_sem
  94      E7800000 
  95              	.LVL6:
  96              	.LBE44:
  97              	.LBE43:
  98              		.loc 1 57 5
  99 0030 13850400 		mv	a0,s1
 100 0034 97000000 		call	_ZdlPv
 100      E7800000 
 101              	.LVL7:
 102 003c 83308101 		ld	ra,24(sp)
 103              		.cfi_restore 1
 104 0040 03340101 		ld	s0,16(sp)
 105              		.cfi_restore 8
 106              		.cfi_def_cfa 2, 32
 107 0044 83348100 		ld	s1,8(sp)
 108              		.cfi_restore 9
GAS LISTING /tmp/ccBi8fU0.s 			page 4


 109              	.LVL8:
 110 0048 13010102 		addi	sp,sp,32
 111              		.cfi_def_cfa_offset 0
 112 004c 67800000 		jr	ra
 113              		.cfi_endproc
 114              	.LFE28:
 115              		.section	.gcc_except_table._ZN9SemaphoreD0Ev,"awG",@progbits,_ZN9SemaphoreD5Ev,comdat
 116              	.LLSDA28:
 117 0000 FF       		.byte	0xff
 118 0001 FF       		.byte	0xff
 119 0002 03       		.byte	0x3
 120 0003 00       		.byte	0
 121              		.section	.text._ZN9SemaphoreD0Ev,"axG",@progbits,_ZN9SemaphoreD5Ev,comdat
 123              		.text
 124              		.align	2
 125              		.globl	_ZN9BufferCPPC2Ei
 127              	_ZN9BufferCPPC2Ei:
 128              	.LFB34:
 129              		.file 2 "test/buffer_CPP_API.cpp"
   1:test/buffer_CPP_API.cpp **** #include "buffer_CPP_API.hpp"
   2:test/buffer_CPP_API.cpp **** 
   3:test/buffer_CPP_API.cpp **** BufferCPP::BufferCPP(int _cap) : cap(_cap + 1), head(0), tail(0) {
 130              		.loc 2 3 1 is_stmt 1
 131              		.cfi_startproc
 132              		.cfi_personality 0x9b,DW.ref.__gxx_personality_v0
 133              		.cfi_lsda 0x1b,.LLSDA34
 134              	.LVL9:
 135 0000 130101FD 		addi	sp,sp,-48
 136              		.cfi_def_cfa_offset 48
 137 0004 23341102 		sd	ra,40(sp)
 138 0008 23308102 		sd	s0,32(sp)
 139 000c 233C9100 		sd	s1,24(sp)
 140 0010 23382101 		sd	s2,16(sp)
 141 0014 23343101 		sd	s3,8(sp)
 142              		.cfi_offset 1, -8
 143              		.cfi_offset 8, -16
 144              		.cfi_offset 9, -24
 145              		.cfi_offset 18, -32
 146              		.cfi_offset 19, -40
 147 0018 13040103 		addi	s0,sp,48
 148              		.cfi_def_cfa 8, 0
 149 001c 93040500 		mv	s1,a0
 150 0020 93890500 		mv	s3,a1
 151              	.LBB45:
 152              		.loc 2 3 43 is_stmt 0
 153 0024 9B871500 		addiw	a5,a1,1
 154 0028 1B850700 		sext.w	a0,a5
 155              	.LVL10:
 156              		.loc 2 3 64
 157 002c 23A0F400 		sw	a5,0(s1)
 158 0030 23A80400 		sw	zero,16(s1)
 159 0034 23AA0400 		sw	zero,20(s1)
   4:test/buffer_CPP_API.cpp ****     buffer = (int *)MemoryAllocator::mem_alloc(sizeof(int) * cap);
 160              		.loc 2 4 5 is_stmt 1
 161              		.loc 2 4 47 is_stmt 0
 162 0038 13152500 		slli	a0,a0,2
 163              	.LEHB0:
GAS LISTING /tmp/ccBi8fU0.s 			page 5


 164 003c 97000000 		call	_ZN15MemoryAllocator9mem_allocEm
 164      E7800000 
 165              	.LVL11:
 166              		.loc 2 4 12
 167 0044 23B4A400 		sd	a0,8(s1)
   5:test/buffer_CPP_API.cpp ****     itemAvailable = new Semaphore(0);
 168              		.loc 2 5 5 is_stmt 1
 169              		.loc 2 5 36 is_stmt 0
 170 0048 13050001 		li	a0,16
 171 004c 97000000 		call	_Znwm
 171      E7800000 
 172              	.LVL12:
 173              	.LEHE0:
 174 0054 13090500 		mv	s2,a0
 175              	.LVL13:
 176              	.LBB46:
 177              	.LBB47:
 178              	.LBB48:
  52:test/../h/syscall_cpp.hpp ****         sem_open(&myHandle, init);
 179              		.loc 1 52 31
 180 0058 97070000 		lla	a5,_ZTV9Semaphore+16
 180      93870700 
 181 0060 2330F500 		sd	a5,0(a0)
  53:test/../h/syscall_cpp.hpp ****     };
 182              		.loc 1 53 9 is_stmt 1
  53:test/../h/syscall_cpp.hpp ****     };
 183              		.loc 1 53 17 is_stmt 0
 184 0064 93050000 		li	a1,0
 185 0068 13058500 		addi	a0,a0,8
 186              	.LVL14:
 187              	.LEHB1:
 188 006c 97000000 		call	_Z8sem_openPP4_semj
 188      E7800000 
 189              	.LVL15:
 190              	.LEHE1:
 191              	.LBE48:
 192              	.LBE47:
 193              	.LBE46:
 194              		.loc 2 5 19 discriminator 2
 195 0074 23B02403 		sd	s2,32(s1)
   6:test/buffer_CPP_API.cpp ****     spaceAvailable = new Semaphore(_cap);
 196              		.loc 2 6 5 is_stmt 1 discriminator 2
 197              		.loc 2 6 40 is_stmt 0 discriminator 2
 198 0078 13050001 		li	a0,16
 199              	.LEHB2:
 200 007c 97000000 		call	_Znwm
 200      E7800000 
 201              	.LVL16:
 202              	.LEHE2:
 203 0084 13090500 		mv	s2,a0
 204              	.LVL17:
 205              	.LBB49:
 206              	.LBB50:
 207              	.LBB51:
  52:test/../h/syscall_cpp.hpp ****         sem_open(&myHandle, init);
 208              		.loc 1 52 31 discriminator 2
 209 0088 97070000 		lla	a5,_ZTV9Semaphore+16
GAS LISTING /tmp/ccBi8fU0.s 			page 6


 209      93870700 
 210 0090 2330F500 		sd	a5,0(a0)
  53:test/../h/syscall_cpp.hpp ****     };
 211              		.loc 1 53 9 is_stmt 1 discriminator 2
  53:test/../h/syscall_cpp.hpp ****     };
 212              		.loc 1 53 17 is_stmt 0 discriminator 2
 213 0094 93850900 		mv	a1,s3
 214 0098 13058500 		addi	a0,a0,8
 215              	.LVL18:
 216              	.LEHB3:
 217 009c 97000000 		call	_Z8sem_openPP4_semj
 217      E7800000 
 218              	.LVL19:
 219              	.LEHE3:
 220              	.LBE51:
 221              	.LBE50:
 222              	.LBE49:
 223              		.loc 2 6 20 discriminator 2
 224 00a4 23BC2401 		sd	s2,24(s1)
   7:test/buffer_CPP_API.cpp ****     mutexHead = new Semaphore(1);
 225              		.loc 2 7 5 is_stmt 1 discriminator 2
 226              		.loc 2 7 32 is_stmt 0 discriminator 2
 227 00a8 13050001 		li	a0,16
 228              	.LEHB4:
 229 00ac 97000000 		call	_Znwm
 229      E7800000 
 230              	.LVL20:
 231              	.LEHE4:
 232 00b4 13090500 		mv	s2,a0
 233              	.LVL21:
 234              	.LBB52:
 235              	.LBB53:
 236              	.LBB54:
  52:test/../h/syscall_cpp.hpp ****         sem_open(&myHandle, init);
 237              		.loc 1 52 31 discriminator 2
 238 00b8 97070000 		lla	a5,_ZTV9Semaphore+16
 238      93870700 
 239 00c0 2330F500 		sd	a5,0(a0)
  53:test/../h/syscall_cpp.hpp ****     };
 240              		.loc 1 53 9 is_stmt 1 discriminator 2
  53:test/../h/syscall_cpp.hpp ****     };
 241              		.loc 1 53 17 is_stmt 0 discriminator 2
 242 00c4 93051000 		li	a1,1
 243 00c8 13058500 		addi	a0,a0,8
 244              	.LVL22:
 245              	.LEHB5:
 246 00cc 97000000 		call	_Z8sem_openPP4_semj
 246      E7800000 
 247              	.LVL23:
 248              	.LEHE5:
 249              	.LBE54:
 250              	.LBE53:
 251              	.LBE52:
 252              		.loc 2 7 15 discriminator 2
 253 00d4 23B42403 		sd	s2,40(s1)
   8:test/buffer_CPP_API.cpp ****     mutexTail = new Semaphore(1);
 254              		.loc 2 8 5 is_stmt 1 discriminator 2
GAS LISTING /tmp/ccBi8fU0.s 			page 7


 255              		.loc 2 8 32 is_stmt 0 discriminator 2
 256 00d8 13050001 		li	a0,16
 257              	.LEHB6:
 258 00dc 97000000 		call	_Znwm
 258      E7800000 
 259              	.LVL24:
 260              	.LEHE6:
 261 00e4 13090500 		mv	s2,a0
 262              	.LVL25:
 263              	.LBB55:
 264              	.LBB56:
 265              	.LBB57:
  52:test/../h/syscall_cpp.hpp ****         sem_open(&myHandle, init);
 266              		.loc 1 52 31 discriminator 2
 267 00e8 97070000 		lla	a5,_ZTV9Semaphore+16
 267      93870700 
 268 00f0 2330F500 		sd	a5,0(a0)
  53:test/../h/syscall_cpp.hpp ****     };
 269              		.loc 1 53 9 is_stmt 1 discriminator 2
  53:test/../h/syscall_cpp.hpp ****     };
 270              		.loc 1 53 17 is_stmt 0 discriminator 2
 271 00f4 93051000 		li	a1,1
 272 00f8 13058500 		addi	a0,a0,8
 273              	.LVL26:
 274              	.LEHB7:
 275 00fc 97000000 		call	_Z8sem_openPP4_semj
 275      E7800000 
 276              	.LVL27:
 277              	.LEHE7:
 278              	.LBE57:
 279              	.LBE56:
 280              	.LBE55:
 281              		.loc 2 8 15 discriminator 2
 282 0104 23B82403 		sd	s2,48(s1)
 283              	.LBE45:
   9:test/buffer_CPP_API.cpp **** }
 284              		.loc 2 9 1 discriminator 2
 285 0108 83308102 		ld	ra,40(sp)
 286              		.cfi_remember_state
 287              		.cfi_restore 1
 288 010c 03340102 		ld	s0,32(sp)
 289              		.cfi_restore 8
 290              		.cfi_def_cfa 2, 48
 291 0110 83348101 		ld	s1,24(sp)
 292              		.cfi_restore 9
 293              	.LVL28:
 294 0114 03390101 		ld	s2,16(sp)
 295              		.cfi_restore 18
 296 0118 83398100 		ld	s3,8(sp)
 297              		.cfi_restore 19
 298 011c 13010103 		addi	sp,sp,48
 299              		.cfi_def_cfa_offset 0
 300 0120 67800000 		jr	ra
 301              	.LVL29:
 302              	.L10:
 303              		.cfi_restore_state
 304 0124 93040500 		mv	s1,a0
GAS LISTING /tmp/ccBi8fU0.s 			page 8


 305              	.LVL30:
 306              	.LBB58:
   5:test/buffer_CPP_API.cpp ****     spaceAvailable = new Semaphore(_cap);
 307              		.loc 2 5 36
 308 0128 13050900 		mv	a0,s2
 309 012c 97000000 		call	_ZdlPv
 309      E7800000 
 310              	.LVL31:
 311 0134 13850400 		mv	a0,s1
 312              	.LEHB8:
 313 0138 97000000 		call	_Unwind_Resume
 313      E7800000 
 314              	.LVL32:
 315              	.L11:
 316 0140 93040500 		mv	s1,a0
 317              	.LVL33:
   6:test/buffer_CPP_API.cpp ****     mutexHead = new Semaphore(1);
 318              		.loc 2 6 40
 319 0144 13050900 		mv	a0,s2
 320 0148 97000000 		call	_ZdlPv
 320      E7800000 
 321              	.LVL34:
 322 0150 13850400 		mv	a0,s1
 323 0154 97000000 		call	_Unwind_Resume
 323      E7800000 
 324              	.LVL35:
 325              	.L12:
 326 015c 93040500 		mv	s1,a0
 327              	.LVL36:
   7:test/buffer_CPP_API.cpp ****     mutexTail = new Semaphore(1);
 328              		.loc 2 7 32
 329 0160 13050900 		mv	a0,s2
 330 0164 97000000 		call	_ZdlPv
 330      E7800000 
 331              	.LVL37:
 332 016c 13850400 		mv	a0,s1
 333 0170 97000000 		call	_Unwind_Resume
 333      E7800000 
 334              	.LVL38:
 335              	.L13:
 336 0178 93040500 		mv	s1,a0
 337              	.LVL39:
   8:test/buffer_CPP_API.cpp **** }
 338              		.loc 2 8 32
 339 017c 13050900 		mv	a0,s2
 340 0180 97000000 		call	_ZdlPv
 340      E7800000 
 341              	.LVL40:
 342 0188 13850400 		mv	a0,s1
 343 018c 97000000 		call	_Unwind_Resume
 343      E7800000 
 344              	.LVL41:
 345              	.LEHE8:
 346              	.LBE58:
 347              		.cfi_endproc
 348              	.LFE34:
 349              		.section	.gcc_except_table,"aw",@progbits
GAS LISTING /tmp/ccBi8fU0.s 			page 9


 350              	.LLSDA34:
 351 0000 FF       		.byte	0xff
 352 0001 FF       		.byte	0xff
 353 0002 03       		.byte	0x3
 354 0003 75       		.byte	0x75
 355 0004 00000000 		.4byte	.LEHB0-.LFB34
 356 0008 00000000 		.4byte	.LEHE0-.LEHB0
 357 000c 00000000 		.4byte	0
 358 0010 00       		.byte	0
 359 0011 00000000 		.4byte	.LEHB1-.LFB34
 360 0015 00000000 		.4byte	.LEHE1-.LEHB1
 361 0019 00000000 		.4byte	.L10-.LFB34
 362 001d 00       		.byte	0
 363 001e 00000000 		.4byte	.LEHB2-.LFB34
 364 0022 00000000 		.4byte	.LEHE2-.LEHB2
 365 0026 00000000 		.4byte	0
 366 002a 00       		.byte	0
 367 002b 00000000 		.4byte	.LEHB3-.LFB34
 368 002f 00000000 		.4byte	.LEHE3-.LEHB3
 369 0033 00000000 		.4byte	.L11-.LFB34
 370 0037 00       		.byte	0
 371 0038 00000000 		.4byte	.LEHB4-.LFB34
 372 003c 00000000 		.4byte	.LEHE4-.LEHB4
 373 0040 00000000 		.4byte	0
 374 0044 00       		.byte	0
 375 0045 00000000 		.4byte	.LEHB5-.LFB34
 376 0049 00000000 		.4byte	.LEHE5-.LEHB5
 377 004d 00000000 		.4byte	.L12-.LFB34
 378 0051 00       		.byte	0
 379 0052 00000000 		.4byte	.LEHB6-.LFB34
 380 0056 00000000 		.4byte	.LEHE6-.LEHB6
 381 005a 00000000 		.4byte	0
 382 005e 00       		.byte	0
 383 005f 00000000 		.4byte	.LEHB7-.LFB34
 384 0063 00000000 		.4byte	.LEHE7-.LEHB7
 385 0067 00000000 		.4byte	.L13-.LFB34
 386 006b 00       		.byte	0
 387 006c 00000000 		.4byte	.LEHB8-.LFB34
 388 0070 00000000 		.4byte	.LEHE8-.LEHB8
 389 0074 00000000 		.4byte	0
 390 0078 00       		.byte	0
 391              		.text
 393              		.globl	_ZN9BufferCPPC1Ei
 394              		.set	_ZN9BufferCPPC1Ei,_ZN9BufferCPPC2Ei
 395              		.align	2
 396              		.globl	_ZN9BufferCPP3putEi
 398              	_ZN9BufferCPP3putEi:
 399              	.LFB39:
  10:test/buffer_CPP_API.cpp **** 
  11:test/buffer_CPP_API.cpp **** BufferCPP::~BufferCPP() {
  12:test/buffer_CPP_API.cpp ****     //Console::putc('\n');
  13:test/buffer_CPP_API.cpp ****     putc('\n');
  14:test/buffer_CPP_API.cpp ****     printString("Buffer deleted!\n");
  15:test/buffer_CPP_API.cpp ****     while (getCnt()) {
  16:test/buffer_CPP_API.cpp ****         char ch = buffer[head];
  17:test/buffer_CPP_API.cpp ****         //Console::putc(ch);
  18:test/buffer_CPP_API.cpp ****         putc(ch);
GAS LISTING /tmp/ccBi8fU0.s 			page 10


  19:test/buffer_CPP_API.cpp ****         head = (head + 1) % cap;
  20:test/buffer_CPP_API.cpp ****     }
  21:test/buffer_CPP_API.cpp ****     //Console::putc('!');
  22:test/buffer_CPP_API.cpp ****     putc('!');
  23:test/buffer_CPP_API.cpp ****     //Console::putc('\n');
  24:test/buffer_CPP_API.cpp ****     putc('\n');
  25:test/buffer_CPP_API.cpp **** 
  26:test/buffer_CPP_API.cpp ****     MemoryAllocator::mem_free(buffer);
  27:test/buffer_CPP_API.cpp ****     delete itemAvailable;
  28:test/buffer_CPP_API.cpp ****     delete spaceAvailable;
  29:test/buffer_CPP_API.cpp ****     delete mutexTail;
  30:test/buffer_CPP_API.cpp ****     delete mutexHead;
  31:test/buffer_CPP_API.cpp **** 
  32:test/buffer_CPP_API.cpp **** }
  33:test/buffer_CPP_API.cpp **** 
  34:test/buffer_CPP_API.cpp **** void BufferCPP::put(int val) {
 400              		.loc 2 34 30 is_stmt 1
 401              		.cfi_startproc
 402              	.LVL42:
 403 0194 130101FE 		addi	sp,sp,-32
 404              		.cfi_def_cfa_offset 32
 405 0198 233C1100 		sd	ra,24(sp)
 406 019c 23388100 		sd	s0,16(sp)
 407 01a0 23349100 		sd	s1,8(sp)
 408 01a4 23302101 		sd	s2,0(sp)
 409              		.cfi_offset 1, -8
 410              		.cfi_offset 8, -16
 411              		.cfi_offset 9, -24
 412              		.cfi_offset 18, -32
 413 01a8 13040102 		addi	s0,sp,32
 414              		.cfi_def_cfa 8, 0
 415 01ac 93040500 		mv	s1,a0
 416 01b0 13890500 		mv	s2,a1
  35:test/buffer_CPP_API.cpp ****     spaceAvailable->wait();
 417              		.loc 2 35 5
 418 01b4 83378501 		ld	a5,24(a0)
 419              	.LVL43:
 420              	.LBB59:
 421              	.LBB60:
  58:test/../h/syscall_cpp.hpp **** 
  59:test/../h/syscall_cpp.hpp ****     int wait(){
  60:test/../h/syscall_cpp.hpp ****         return sem_wait(myHandle);
 422              		.loc 1 60 9
 423              		.loc 1 60 24 is_stmt 0
 424 01b8 03B58700 		ld	a0,8(a5)
 425              	.LVL44:
 426 01bc 97000000 		call	_Z8sem_waitP4_sem
 426      E7800000 
 427              	.LVL45:
 428              	.LBE60:
 429              	.LBE59:
  36:test/buffer_CPP_API.cpp **** 
  37:test/buffer_CPP_API.cpp ****     mutexTail->wait();
 430              		.loc 2 37 5 is_stmt 1
 431 01c4 83B70403 		ld	a5,48(s1)
 432              	.LVL46:
 433              	.LBB61:
GAS LISTING /tmp/ccBi8fU0.s 			page 11


 434              	.LBB62:
 435              		.loc 1 60 9
 436              		.loc 1 60 24 is_stmt 0
 437 01c8 03B58700 		ld	a0,8(a5)
 438 01cc 97000000 		call	_Z8sem_waitP4_sem
 438      E7800000 
 439              	.LVL47:
 440              	.LBE62:
 441              	.LBE61:
  38:test/buffer_CPP_API.cpp ****     buffer[tail] = val;
 442              		.loc 2 38 5 is_stmt 1
 443 01d4 83B78400 		ld	a5,8(s1)
 444              		.loc 2 38 12 is_stmt 0
 445 01d8 03A74401 		lw	a4,20(s1)
 446              		.loc 2 38 16
 447 01dc 13172700 		slli	a4,a4,2
 448 01e0 B387E700 		add	a5,a5,a4
 449              		.loc 2 38 18
 450 01e4 23A02701 		sw	s2,0(a5)
  39:test/buffer_CPP_API.cpp ****     tail = (tail + 1) % cap;
 451              		.loc 2 39 5 is_stmt 1
 452              		.loc 2 39 13 is_stmt 0
 453 01e8 83A74401 		lw	a5,20(s1)
 454              		.loc 2 39 18
 455 01ec 9B871700 		addiw	a5,a5,1
 456              		.loc 2 39 25
 457 01f0 03A70400 		lw	a4,0(s1)
 458              		.loc 2 39 23
 459 01f4 BBE7E702 		remw	a5,a5,a4
 460              		.loc 2 39 10
 461 01f8 23AAF400 		sw	a5,20(s1)
  40:test/buffer_CPP_API.cpp ****     mutexTail->signal();
 462              		.loc 2 40 5 is_stmt 1
 463 01fc 83B70403 		ld	a5,48(s1)
 464              	.LVL48:
 465              	.LBB63:
 466              	.LBB64:
  61:test/../h/syscall_cpp.hpp ****     }
  62:test/../h/syscall_cpp.hpp ****     int signal(){
  63:test/../h/syscall_cpp.hpp ****         return sem_signal(myHandle);
 467              		.loc 1 63 9
 468              		.loc 1 63 26 is_stmt 0
 469 0200 03B58700 		ld	a0,8(a5)
 470 0204 97000000 		call	_Z10sem_signalP4_sem
 470      E7800000 
 471              	.LVL49:
 472              	.LBE64:
 473              	.LBE63:
  41:test/buffer_CPP_API.cpp **** 
  42:test/buffer_CPP_API.cpp ****     itemAvailable->signal();
 474              		.loc 2 42 5 is_stmt 1
 475 020c 83B70402 		ld	a5,32(s1)
 476              	.LVL50:
 477              	.LBB65:
 478              	.LBB66:
 479              		.loc 1 63 9
 480              		.loc 1 63 26 is_stmt 0
GAS LISTING /tmp/ccBi8fU0.s 			page 12


 481 0210 03B58700 		ld	a0,8(a5)
 482 0214 97000000 		call	_Z10sem_signalP4_sem
 482      E7800000 
 483              	.LVL51:
 484              	.LBE66:
 485              	.LBE65:
  43:test/buffer_CPP_API.cpp **** 
  44:test/buffer_CPP_API.cpp **** }
 486              		.loc 2 44 1
 487 021c 83308101 		ld	ra,24(sp)
 488              		.cfi_restore 1
 489 0220 03340101 		ld	s0,16(sp)
 490              		.cfi_restore 8
 491              		.cfi_def_cfa 2, 32
 492 0224 83348100 		ld	s1,8(sp)
 493              		.cfi_restore 9
 494              	.LVL52:
 495 0228 03390100 		ld	s2,0(sp)
 496              		.cfi_restore 18
 497 022c 13010102 		addi	sp,sp,32
 498              		.cfi_def_cfa_offset 0
 499 0230 67800000 		jr	ra
 500              		.cfi_endproc
 501              	.LFE39:
 503              		.align	2
 504              		.globl	_ZN9BufferCPP3getEv
 506              	_ZN9BufferCPP3getEv:
 507              	.LFB40:
  45:test/buffer_CPP_API.cpp **** 
  46:test/buffer_CPP_API.cpp **** int BufferCPP::get() {
 508              		.loc 2 46 22 is_stmt 1
 509              		.cfi_startproc
 510              	.LVL53:
 511 0234 130101FE 		addi	sp,sp,-32
 512              		.cfi_def_cfa_offset 32
 513 0238 233C1100 		sd	ra,24(sp)
 514 023c 23388100 		sd	s0,16(sp)
 515 0240 23349100 		sd	s1,8(sp)
 516 0244 23302101 		sd	s2,0(sp)
 517              		.cfi_offset 1, -8
 518              		.cfi_offset 8, -16
 519              		.cfi_offset 9, -24
 520              		.cfi_offset 18, -32
 521 0248 13040102 		addi	s0,sp,32
 522              		.cfi_def_cfa 8, 0
 523 024c 93040500 		mv	s1,a0
  47:test/buffer_CPP_API.cpp ****     itemAvailable->wait();
 524              		.loc 2 47 5
 525 0250 83370502 		ld	a5,32(a0)
 526              	.LVL54:
 527              	.LBB67:
 528              	.LBB68:
  60:test/../h/syscall_cpp.hpp ****     }
 529              		.loc 1 60 9
  60:test/../h/syscall_cpp.hpp ****     }
 530              		.loc 1 60 24 is_stmt 0
 531 0254 03B58700 		ld	a0,8(a5)
GAS LISTING /tmp/ccBi8fU0.s 			page 13


 532              	.LVL55:
 533 0258 97000000 		call	_Z8sem_waitP4_sem
 533      E7800000 
 534              	.LVL56:
 535              	.LBE68:
 536              	.LBE67:
  48:test/buffer_CPP_API.cpp **** 
  49:test/buffer_CPP_API.cpp ****     mutexHead->wait();
 537              		.loc 2 49 5 is_stmt 1
 538 0260 83B78402 		ld	a5,40(s1)
 539              	.LVL57:
 540              	.LBB69:
 541              	.LBB70:
  60:test/../h/syscall_cpp.hpp ****     }
 542              		.loc 1 60 9
  60:test/../h/syscall_cpp.hpp ****     }
 543              		.loc 1 60 24 is_stmt 0
 544 0264 03B58700 		ld	a0,8(a5)
 545 0268 97000000 		call	_Z8sem_waitP4_sem
 545      E7800000 
 546              	.LVL58:
 547              	.LBE70:
 548              	.LBE69:
  50:test/buffer_CPP_API.cpp **** 
  51:test/buffer_CPP_API.cpp ****     int ret = buffer[head];
 549              		.loc 2 51 5 is_stmt 1
 550              		.loc 2 51 15 is_stmt 0
 551 0270 03B78400 		ld	a4,8(s1)
 552              		.loc 2 51 22
 553 0274 83A70401 		lw	a5,16(s1)
 554              		.loc 2 51 26
 555 0278 93962700 		slli	a3,a5,2
 556 027c 3307D700 		add	a4,a4,a3
 557              		.loc 2 51 9
 558 0280 03290700 		lw	s2,0(a4)
 559              	.LVL59:
  52:test/buffer_CPP_API.cpp ****     head = (head + 1) % cap;
 560              		.loc 2 52 5 is_stmt 1
 561              		.loc 2 52 18 is_stmt 0
 562 0284 9B871700 		addiw	a5,a5,1
 563              		.loc 2 52 25
 564 0288 03A70400 		lw	a4,0(s1)
 565              		.loc 2 52 23
 566 028c BBE7E702 		remw	a5,a5,a4
 567              		.loc 2 52 10
 568 0290 23A8F400 		sw	a5,16(s1)
  53:test/buffer_CPP_API.cpp ****     mutexHead->signal();
 569              		.loc 2 53 5 is_stmt 1
 570 0294 83B78402 		ld	a5,40(s1)
 571              	.LVL60:
 572              	.LBB71:
 573              	.LBB72:
 574              		.loc 1 63 9
 575              		.loc 1 63 26 is_stmt 0
 576 0298 03B58700 		ld	a0,8(a5)
 577 029c 97000000 		call	_Z10sem_signalP4_sem
 577      E7800000 
GAS LISTING /tmp/ccBi8fU0.s 			page 14


 578              	.LVL61:
 579              	.LBE72:
 580              	.LBE71:
  54:test/buffer_CPP_API.cpp **** 
  55:test/buffer_CPP_API.cpp ****     spaceAvailable->signal();
 581              		.loc 2 55 5 is_stmt 1
 582 02a4 83B78401 		ld	a5,24(s1)
 583              	.LVL62:
 584              	.LBB73:
 585              	.LBB74:
 586              		.loc 1 63 9
 587              		.loc 1 63 26 is_stmt 0
 588 02a8 03B58700 		ld	a0,8(a5)
 589 02ac 97000000 		call	_Z10sem_signalP4_sem
 589      E7800000 
 590              	.LVL63:
 591              	.LBE74:
 592              	.LBE73:
  56:test/buffer_CPP_API.cpp **** 
  57:test/buffer_CPP_API.cpp ****     return ret;
 593              		.loc 2 57 5 is_stmt 1
  58:test/buffer_CPP_API.cpp **** }
 594              		.loc 2 58 1 is_stmt 0
 595 02b4 13050900 		mv	a0,s2
 596 02b8 83308101 		ld	ra,24(sp)
 597              		.cfi_restore 1
 598 02bc 03340101 		ld	s0,16(sp)
 599              		.cfi_restore 8
 600              		.cfi_def_cfa 2, 32
 601 02c0 83348100 		ld	s1,8(sp)
 602              		.cfi_restore 9
 603              	.LVL64:
 604 02c4 03390100 		ld	s2,0(sp)
 605              		.cfi_restore 18
 606              	.LVL65:
 607 02c8 13010102 		addi	sp,sp,32
 608              		.cfi_def_cfa_offset 0
 609 02cc 67800000 		jr	ra
 610              		.cfi_endproc
 611              	.LFE40:
 613              		.align	2
 614              		.globl	_ZN9BufferCPP6getCntEv
 616              	_ZN9BufferCPP6getCntEv:
 617              	.LFB41:
  59:test/buffer_CPP_API.cpp **** 
  60:test/buffer_CPP_API.cpp **** int BufferCPP::getCnt() {
 618              		.loc 2 60 25 is_stmt 1
 619              		.cfi_startproc
 620              	.LVL66:
 621 02d0 130101FE 		addi	sp,sp,-32
 622              		.cfi_def_cfa_offset 32
 623 02d4 233C1100 		sd	ra,24(sp)
 624 02d8 23388100 		sd	s0,16(sp)
 625 02dc 23349100 		sd	s1,8(sp)
 626 02e0 23302101 		sd	s2,0(sp)
 627              		.cfi_offset 1, -8
 628              		.cfi_offset 8, -16
GAS LISTING /tmp/ccBi8fU0.s 			page 15


 629              		.cfi_offset 9, -24
 630              		.cfi_offset 18, -32
 631 02e4 13040102 		addi	s0,sp,32
 632              		.cfi_def_cfa 8, 0
 633 02e8 93040500 		mv	s1,a0
  61:test/buffer_CPP_API.cpp ****     int ret;
 634              		.loc 2 61 5
  62:test/buffer_CPP_API.cpp **** 
  63:test/buffer_CPP_API.cpp ****     mutexHead->wait();
 635              		.loc 2 63 5
 636 02ec 83378502 		ld	a5,40(a0)
 637              	.LVL67:
 638              	.LBB75:
 639              	.LBB76:
  60:test/../h/syscall_cpp.hpp ****     }
 640              		.loc 1 60 9
  60:test/../h/syscall_cpp.hpp ****     }
 641              		.loc 1 60 24 is_stmt 0
 642 02f0 03B58700 		ld	a0,8(a5)
 643              	.LVL68:
 644 02f4 97000000 		call	_Z8sem_waitP4_sem
 644      E7800000 
 645              	.LVL69:
 646              	.LBE76:
 647              	.LBE75:
  64:test/buffer_CPP_API.cpp ****     mutexTail->wait();
 648              		.loc 2 64 5 is_stmt 1
 649 02fc 83B70403 		ld	a5,48(s1)
 650              	.LVL70:
 651              	.LBB77:
 652              	.LBB78:
  60:test/../h/syscall_cpp.hpp ****     }
 653              		.loc 1 60 9
  60:test/../h/syscall_cpp.hpp ****     }
 654              		.loc 1 60 24 is_stmt 0
 655 0300 03B58700 		ld	a0,8(a5)
 656 0304 97000000 		call	_Z8sem_waitP4_sem
 656      E7800000 
 657              	.LVL71:
 658              	.LBE78:
 659              	.LBE77:
  65:test/buffer_CPP_API.cpp **** 
  66:test/buffer_CPP_API.cpp ****     if (tail >= head) {
 660              		.loc 2 66 5 is_stmt 1
 661              		.loc 2 66 9 is_stmt 0
 662 030c 83A74401 		lw	a5,20(s1)
 663              		.loc 2 66 17
 664 0310 03A90401 		lw	s2,16(s1)
 665              		.loc 2 66 5
 666 0314 63C22705 		blt	a5,s2,.L21
  67:test/buffer_CPP_API.cpp ****         ret = tail - head;
 667              		.loc 2 67 9 is_stmt 1
 668              		.loc 2 67 13 is_stmt 0
 669 0318 3B892741 		subw	s2,a5,s2
 670              	.LVL72:
 671              	.L22:
  68:test/buffer_CPP_API.cpp ****     } else {
GAS LISTING /tmp/ccBi8fU0.s 			page 16


  69:test/buffer_CPP_API.cpp ****         ret = cap - head + tail;
  70:test/buffer_CPP_API.cpp ****     }
  71:test/buffer_CPP_API.cpp **** 
  72:test/buffer_CPP_API.cpp ****     mutexTail->signal();
 672              		.loc 2 72 5 is_stmt 1
 673 031c 83B70403 		ld	a5,48(s1)
 674              	.LVL73:
 675              	.LBB79:
 676              	.LBB80:
 677              		.loc 1 63 9
 678              		.loc 1 63 26 is_stmt 0
 679 0320 03B58700 		ld	a0,8(a5)
 680 0324 97000000 		call	_Z10sem_signalP4_sem
 680      E7800000 
 681              	.LVL74:
 682              	.LBE80:
 683              	.LBE79:
  73:test/buffer_CPP_API.cpp ****     mutexHead->signal();
 684              		.loc 2 73 5 is_stmt 1
 685 032c 83B78402 		ld	a5,40(s1)
 686              	.LVL75:
 687              	.LBB81:
 688              	.LBB82:
 689              		.loc 1 63 9
 690              		.loc 1 63 26 is_stmt 0
 691 0330 03B58700 		ld	a0,8(a5)
 692 0334 97000000 		call	_Z10sem_signalP4_sem
 692      E7800000 
 693              	.LVL76:
 694              	.LBE82:
 695              	.LBE81:
  74:test/buffer_CPP_API.cpp **** 
  75:test/buffer_CPP_API.cpp ****     return ret;
 696              		.loc 2 75 5 is_stmt 1
  76:test/buffer_CPP_API.cpp **** }
 697              		.loc 2 76 1 is_stmt 0
 698 033c 13050900 		mv	a0,s2
 699 0340 83308101 		ld	ra,24(sp)
 700              		.cfi_remember_state
 701              		.cfi_restore 1
 702 0344 03340101 		ld	s0,16(sp)
 703              		.cfi_restore 8
 704              		.cfi_def_cfa 2, 32
 705 0348 83348100 		ld	s1,8(sp)
 706              		.cfi_restore 9
 707              	.LVL77:
 708 034c 03390100 		ld	s2,0(sp)
 709              		.cfi_restore 18
 710              	.LVL78:
 711 0350 13010102 		addi	sp,sp,32
 712              		.cfi_def_cfa_offset 0
 713 0354 67800000 		jr	ra
 714              	.LVL79:
 715              	.L21:
 716              		.cfi_restore_state
  69:test/buffer_CPP_API.cpp ****     }
 717              		.loc 2 69 9 is_stmt 1
GAS LISTING /tmp/ccBi8fU0.s 			page 17


  69:test/buffer_CPP_API.cpp ****     }
 718              		.loc 2 69 15 is_stmt 0
 719 0358 03A70400 		lw	a4,0(s1)
  69:test/buffer_CPP_API.cpp ****     }
 720              		.loc 2 69 19
 721 035c 3B092741 		subw	s2,a4,s2
  69:test/buffer_CPP_API.cpp ****     }
 722              		.loc 2 69 13
 723 0360 3B09F900 		addw	s2,s2,a5
 724 0364 6FF09FFB 		j	.L22
 725              		.cfi_endproc
 726              	.LFE41:
 728              		.section	.rodata.str1.8,"aMS",@progbits,1
 729              		.align	3
 730              	.LC0:
 731 0000 42756666 		.string	"Buffer deleted!\n"
 731      65722064 
 731      656C6574 
 731      6564210A 
 731      00
 732              		.text
 733              		.align	2
 734              		.globl	_ZN9BufferCPPD2Ev
 736              	_ZN9BufferCPPD2Ev:
 737              	.LFB37:
  11:test/buffer_CPP_API.cpp ****     //Console::putc('\n');
 738              		.loc 2 11 1 is_stmt 1
 739              		.cfi_startproc
 740              		.cfi_personality 0x9b,DW.ref.__gxx_personality_v0
 741              		.cfi_lsda 0x1b,.LLSDA37
 742              	.LVL80:
 743 0368 130101FE 		addi	sp,sp,-32
 744              		.cfi_def_cfa_offset 32
 745 036c 233C1100 		sd	ra,24(sp)
 746 0370 23388100 		sd	s0,16(sp)
 747 0374 23349100 		sd	s1,8(sp)
 748              		.cfi_offset 1, -8
 749              		.cfi_offset 8, -16
 750              		.cfi_offset 9, -24
 751 0378 13040102 		addi	s0,sp,32
 752              		.cfi_def_cfa 8, 0
 753 037c 93040500 		mv	s1,a0
 754              	.LBB83:
  13:test/buffer_CPP_API.cpp ****     printString("Buffer deleted!\n");
 755              		.loc 2 13 5
  13:test/buffer_CPP_API.cpp ****     printString("Buffer deleted!\n");
 756              		.loc 2 13 9 is_stmt 0
 757 0380 1305A000 		li	a0,10
 758              	.LVL81:
 759 0384 97000000 		call	_Z4putcc
 759      E7800000 
 760              	.LVL82:
  14:test/buffer_CPP_API.cpp ****     while (getCnt()) {
 761              		.loc 2 14 5 is_stmt 1
  14:test/buffer_CPP_API.cpp ****     while (getCnt()) {
 762              		.loc 2 14 16 is_stmt 0
 763 038c 17050000 		lla	a0,.LC0
GAS LISTING /tmp/ccBi8fU0.s 			page 18


 763      13050500 
 764 0394 97000000 		call	_Z11printStringPKc
 764      E7800000 
 765              	.LVL83:
 766              	.L26:
  15:test/buffer_CPP_API.cpp ****         char ch = buffer[head];
 767              		.loc 2 15 5 is_stmt 1
  15:test/buffer_CPP_API.cpp ****         char ch = buffer[head];
 768              		.loc 2 15 19
  15:test/buffer_CPP_API.cpp ****         char ch = buffer[head];
 769              		.loc 2 15 18 is_stmt 0
 770 039c 13850400 		mv	a0,s1
 771 03a0 97000000 		call	_ZN9BufferCPP6getCntEv
 771      E7800000 
 772              	.LVL84:
  15:test/buffer_CPP_API.cpp ****         char ch = buffer[head];
 773              		.loc 2 15 19
 774 03a8 630C0502 		beqz	a0,.L25
 775              	.LBB84:
  16:test/buffer_CPP_API.cpp ****         //Console::putc(ch);
 776              		.loc 2 16 9 is_stmt 1
  16:test/buffer_CPP_API.cpp ****         //Console::putc(ch);
 777              		.loc 2 16 19 is_stmt 0
 778 03ac 83B78400 		ld	a5,8(s1)
  16:test/buffer_CPP_API.cpp ****         //Console::putc(ch);
 779              		.loc 2 16 26
 780 03b0 03A70401 		lw	a4,16(s1)
  16:test/buffer_CPP_API.cpp ****         //Console::putc(ch);
 781              		.loc 2 16 30
 782 03b4 13172700 		slli	a4,a4,2
 783 03b8 B387E700 		add	a5,a5,a4
 784              	.LVL85:
  18:test/buffer_CPP_API.cpp ****         head = (head + 1) % cap;
 785              		.loc 2 18 9 is_stmt 1
  18:test/buffer_CPP_API.cpp ****         head = (head + 1) % cap;
 786              		.loc 2 18 13 is_stmt 0
 787 03bc 03C50700 		lbu	a0,0(a5)
 788 03c0 97000000 		call	_Z4putcc
 788      E7800000 
 789              	.LVL86:
  19:test/buffer_CPP_API.cpp ****     }
 790              		.loc 2 19 9 is_stmt 1
  19:test/buffer_CPP_API.cpp ****     }
 791              		.loc 2 19 17 is_stmt 0
 792 03c8 83A70401 		lw	a5,16(s1)
  19:test/buffer_CPP_API.cpp ****     }
 793              		.loc 2 19 22
 794 03cc 9B871700 		addiw	a5,a5,1
  19:test/buffer_CPP_API.cpp ****     }
 795              		.loc 2 19 29
 796 03d0 03A70400 		lw	a4,0(s1)
  19:test/buffer_CPP_API.cpp ****     }
 797              		.loc 2 19 27
 798 03d4 BBE7E702 		remw	a5,a5,a4
  19:test/buffer_CPP_API.cpp ****     }
 799              		.loc 2 19 14
 800 03d8 23A8F400 		sw	a5,16(s1)
GAS LISTING /tmp/ccBi8fU0.s 			page 19


 801              	.LBE84:
  15:test/buffer_CPP_API.cpp ****         char ch = buffer[head];
 802              		.loc 2 15 5
 803 03dc 6FF01FFC 		j	.L26
 804              	.L25:
  22:test/buffer_CPP_API.cpp ****     //Console::putc('\n');
 805              		.loc 2 22 5 is_stmt 1
  22:test/buffer_CPP_API.cpp ****     //Console::putc('\n');
 806              		.loc 2 22 9 is_stmt 0
 807 03e0 13051002 		li	a0,33
 808 03e4 97000000 		call	_Z4putcc
 808      E7800000 
 809              	.LVL87:
  24:test/buffer_CPP_API.cpp **** 
 810              		.loc 2 24 5 is_stmt 1
  24:test/buffer_CPP_API.cpp **** 
 811              		.loc 2 24 9 is_stmt 0
 812 03ec 1305A000 		li	a0,10
 813 03f0 97000000 		call	_Z4putcc
 813      E7800000 
 814              	.LVL88:
  26:test/buffer_CPP_API.cpp ****     delete itemAvailable;
 815              		.loc 2 26 5 is_stmt 1
  26:test/buffer_CPP_API.cpp ****     delete itemAvailable;
 816              		.loc 2 26 30 is_stmt 0
 817 03f8 03B58400 		ld	a0,8(s1)
 818 03fc 97000000 		call	_ZN15MemoryAllocator8mem_freeEPv
 818      E7800000 
 819              	.LVL89:
  27:test/buffer_CPP_API.cpp ****     delete spaceAvailable;
 820              		.loc 2 27 5 is_stmt 1
  27:test/buffer_CPP_API.cpp ****     delete spaceAvailable;
 821              		.loc 2 27 12 is_stmt 0
 822 0404 03B50402 		ld	a0,32(s1)
  27:test/buffer_CPP_API.cpp ****     delete spaceAvailable;
 823              		.loc 2 27 25
 824 0408 63080500 		beqz	a0,.L27
  27:test/buffer_CPP_API.cpp ****     delete spaceAvailable;
 825              		.loc 2 27 12 discriminator 1
 826 040c 83370500 		ld	a5,0(a0)
 827 0410 83B78700 		ld	a5,8(a5)
 828 0414 E7800700 		jalr	a5
 829              	.LVL90:
 830              	.L27:
  28:test/buffer_CPP_API.cpp ****     delete mutexTail;
 831              		.loc 2 28 5 is_stmt 1
  28:test/buffer_CPP_API.cpp ****     delete mutexTail;
 832              		.loc 2 28 12 is_stmt 0
 833 0418 03B58401 		ld	a0,24(s1)
  28:test/buffer_CPP_API.cpp ****     delete mutexTail;
 834              		.loc 2 28 26
 835 041c 63080500 		beqz	a0,.L28
  28:test/buffer_CPP_API.cpp ****     delete mutexTail;
 836              		.loc 2 28 12 discriminator 1
 837 0420 83370500 		ld	a5,0(a0)
 838 0424 83B78700 		ld	a5,8(a5)
 839 0428 E7800700 		jalr	a5
GAS LISTING /tmp/ccBi8fU0.s 			page 20


 840              	.LVL91:
 841              	.L28:
  29:test/buffer_CPP_API.cpp ****     delete mutexHead;
 842              		.loc 2 29 5 is_stmt 1
  29:test/buffer_CPP_API.cpp ****     delete mutexHead;
 843              		.loc 2 29 12 is_stmt 0
 844 042c 03B50403 		ld	a0,48(s1)
  29:test/buffer_CPP_API.cpp ****     delete mutexHead;
 845              		.loc 2 29 21
 846 0430 63080500 		beqz	a0,.L29
  29:test/buffer_CPP_API.cpp ****     delete mutexHead;
 847              		.loc 2 29 12 discriminator 1
 848 0434 83370500 		ld	a5,0(a0)
 849 0438 83B78700 		ld	a5,8(a5)
 850 043c E7800700 		jalr	a5
 851              	.LVL92:
 852              	.L29:
  30:test/buffer_CPP_API.cpp **** 
 853              		.loc 2 30 5 is_stmt 1
  30:test/buffer_CPP_API.cpp **** 
 854              		.loc 2 30 12 is_stmt 0
 855 0440 03B58402 		ld	a0,40(s1)
  30:test/buffer_CPP_API.cpp **** 
 856              		.loc 2 30 21
 857 0444 63080500 		beqz	a0,.L24
  30:test/buffer_CPP_API.cpp **** 
 858              		.loc 2 30 12 discriminator 1
 859 0448 83370500 		ld	a5,0(a0)
 860 044c 83B78700 		ld	a5,8(a5)
 861 0450 E7800700 		jalr	a5
 862              	.LVL93:
 863              	.L24:
 864              	.LBE83:
  32:test/buffer_CPP_API.cpp **** 
 865              		.loc 2 32 1
 866 0454 83308101 		ld	ra,24(sp)
 867              		.cfi_restore 1
 868 0458 03340101 		ld	s0,16(sp)
 869              		.cfi_restore 8
 870              		.cfi_def_cfa 2, 32
 871 045c 83348100 		ld	s1,8(sp)
 872              		.cfi_restore 9
 873              	.LVL94:
 874 0460 13010102 		addi	sp,sp,32
 875              		.cfi_def_cfa_offset 0
 876 0464 67800000 		jr	ra
 877              		.cfi_endproc
 878              	.LFE37:
 879              		.section	.gcc_except_table
 880              	.LLSDA37:
 881 0079 FF       		.byte	0xff
 882 007a FF       		.byte	0xff
 883 007b 03       		.byte	0x3
 884 007c 00       		.byte	0
 885              		.text
 887              		.globl	_ZN9BufferCPPD1Ev
 888              		.set	_ZN9BufferCPPD1Ev,_ZN9BufferCPPD2Ev
GAS LISTING /tmp/ccBi8fU0.s 			page 21


 889              		.weak	_ZTV9Semaphore
 890              		.section	.rodata._ZTV9Semaphore,"aG",@progbits,_ZTV9Semaphore,comdat
 891              		.align	3
 894              	_ZTV9Semaphore:
 895 0000 00000000 		.dword	0
 895      00000000 
 896 0008 00000000 		.dword	0
 896      00000000 
 897 0010 00000000 		.dword	_ZN9SemaphoreD1Ev
 897      00000000 
 898 0018 00000000 		.dword	_ZN9SemaphoreD0Ev
 898      00000000 
 899              		.text
 900              	.Letext0:
 901              		.file 3 "test/../h/../lib/hw.h"
 902              		.file 4 "test/../h/syscall_c.hpp"
 903              		.file 5 "test/../h/MemoryAllocator.h"
 904              		.file 6 "test/buffer_CPP_API.hpp"
 905              		.file 7 "test/printing.hpp"
 4049              		.align	3
 4052              	DW.ref.__gxx_personality_v0:
 4053 0000 00000000 		.dword	__gxx_personality_v0
 4053      00000000 
 4054              		.ident	"GCC: () 9.3.0"
GAS LISTING /tmp/ccBi8fU0.s 			page 22


DEFINED SYMBOLS
                            *ABS*:0000000000000000 buffer_CPP_API.cpp
     /tmp/ccBi8fU0.s:13     .text._ZN9SemaphoreD2Ev:0000000000000000 _ZN9SemaphoreD2Ev
     /tmp/ccBi8fU0.s:17     .text._ZN9SemaphoreD2Ev:0000000000000000 .L0 
     /tmp/ccBi8fU0.s:4052   .sdata.DW.ref.__gxx_personality_v0:0000000000000000 DW.ref.__gxx_personality_v0
     /tmp/ccBi8fU0.s:21     .text._ZN9SemaphoreD2Ev:0000000000000000 .L0 
     /tmp/ccBi8fU0.s:22     .text._ZN9SemaphoreD2Ev:0000000000000004 .L0 
     /tmp/ccBi8fU0.s:25     .text._ZN9SemaphoreD2Ev:000000000000000c .L0 
     /tmp/ccBi8fU0.s:26     .text._ZN9SemaphoreD2Ev:000000000000000c .L0 
     /tmp/ccBi8fU0.s:28     .text._ZN9SemaphoreD2Ev:0000000000000010 .L0 
     /tmp/ccBi8fU0.s:894    .rodata._ZTV9Semaphore:0000000000000000 _ZTV9Semaphore
     /tmp/ccBi8fU0.s:31     .text._ZN9SemaphoreD2Ev:0000000000000010 .L0 
     /tmp/ccBi8fU0.s:34     .text._ZN9SemaphoreD2Ev:000000000000001c .L0 
     /tmp/ccBi8fU0.s:35     .text._ZN9SemaphoreD2Ev:000000000000001c .L0 
     /tmp/ccBi8fU0.s:41     .text._ZN9SemaphoreD2Ev:0000000000000028 .L0 
     /tmp/ccBi8fU0.s:42     .text._ZN9SemaphoreD2Ev:000000000000002c .L0 
     /tmp/ccBi8fU0.s:44     .text._ZN9SemaphoreD2Ev:0000000000000030 .L0 
     /tmp/ccBi8fU0.s:45     .text._ZN9SemaphoreD2Ev:0000000000000030 .L0 
     /tmp/ccBi8fU0.s:47     .text._ZN9SemaphoreD2Ev:0000000000000034 .L0 
     /tmp/ccBi8fU0.s:49     .text._ZN9SemaphoreD2Ev:0000000000000038 .L0 
     /tmp/ccBi8fU0.s:13     .text._ZN9SemaphoreD2Ev:0000000000000000 _ZN9SemaphoreD1Ev
     /tmp/ccBi8fU0.s:66     .text._ZN9SemaphoreD0Ev:0000000000000000 _ZN9SemaphoreD0Ev
     /tmp/ccBi8fU0.s:69     .text._ZN9SemaphoreD0Ev:0000000000000000 .L0 
     /tmp/ccBi8fU0.s:73     .text._ZN9SemaphoreD0Ev:0000000000000000 .L0 
     /tmp/ccBi8fU0.s:74     .text._ZN9SemaphoreD0Ev:0000000000000004 .L0 
     /tmp/ccBi8fU0.s:78     .text._ZN9SemaphoreD0Ev:0000000000000010 .L0 
     /tmp/ccBi8fU0.s:79     .text._ZN9SemaphoreD0Ev:0000000000000010 .L0 
     /tmp/ccBi8fU0.s:80     .text._ZN9SemaphoreD0Ev:0000000000000010 .L0 
     /tmp/ccBi8fU0.s:82     .text._ZN9SemaphoreD0Ev:0000000000000014 .L0 
     /tmp/ccBi8fU0.s:88     .text._ZN9SemaphoreD0Ev:0000000000000018 .L0 
     /tmp/ccBi8fU0.s:91     .text._ZN9SemaphoreD0Ev:0000000000000024 .L0 
     /tmp/ccBi8fU0.s:92     .text._ZN9SemaphoreD0Ev:0000000000000024 .L0 
     /tmp/ccBi8fU0.s:99     .text._ZN9SemaphoreD0Ev:0000000000000030 .L0 
     /tmp/ccBi8fU0.s:103    .text._ZN9SemaphoreD0Ev:0000000000000040 .L0 
     /tmp/ccBi8fU0.s:105    .text._ZN9SemaphoreD0Ev:0000000000000044 .L0 
     /tmp/ccBi8fU0.s:106    .text._ZN9SemaphoreD0Ev:0000000000000044 .L0 
     /tmp/ccBi8fU0.s:108    .text._ZN9SemaphoreD0Ev:0000000000000048 .L0 
     /tmp/ccBi8fU0.s:111    .text._ZN9SemaphoreD0Ev:000000000000004c .L0 
     /tmp/ccBi8fU0.s:113    .text._ZN9SemaphoreD0Ev:0000000000000050 .L0 
     /tmp/ccBi8fU0.s:127    .text:0000000000000000 _ZN9BufferCPPC2Ei
     /tmp/ccBi8fU0.s:131    .text:0000000000000000 .L0 
     /tmp/ccBi8fU0.s:135    .text:0000000000000000 .L0 
     /tmp/ccBi8fU0.s:136    .text:0000000000000004 .L0 
     /tmp/ccBi8fU0.s:142    .text:0000000000000018 .L0 
     /tmp/ccBi8fU0.s:143    .text:0000000000000018 .L0 
     /tmp/ccBi8fU0.s:144    .text:0000000000000018 .L0 
     /tmp/ccBi8fU0.s:145    .text:0000000000000018 .L0 
     /tmp/ccBi8fU0.s:146    .text:0000000000000018 .L0 
     /tmp/ccBi8fU0.s:148    .text:000000000000001c .L0 
     /tmp/ccBi8fU0.s:153    .text:0000000000000024 .L0 
     /tmp/ccBi8fU0.s:157    .text:000000000000002c .L0 
     /tmp/ccBi8fU0.s:161    .text:0000000000000038 .L0 
     /tmp/ccBi8fU0.s:162    .text:0000000000000038 .L0 
     /tmp/ccBi8fU0.s:167    .text:0000000000000044 .L0 
     /tmp/ccBi8fU0.s:169    .text:0000000000000048 .L0 
     /tmp/ccBi8fU0.s:170    .text:0000000000000048 .L0 
     /tmp/ccBi8fU0.s:180    .text:0000000000000058 .L0 
GAS LISTING /tmp/ccBi8fU0.s 			page 23


     /tmp/ccBi8fU0.s:183    .text:0000000000000064 .L0 
     /tmp/ccBi8fU0.s:184    .text:0000000000000064 .L0 
     /tmp/ccBi8fU0.s:195    .text:0000000000000074 .L0 
     /tmp/ccBi8fU0.s:197    .text:0000000000000078 .L0 
     /tmp/ccBi8fU0.s:198    .text:0000000000000078 .L0 
     /tmp/ccBi8fU0.s:209    .text:0000000000000088 .L0 
     /tmp/ccBi8fU0.s:212    .text:0000000000000094 .L0 
     /tmp/ccBi8fU0.s:213    .text:0000000000000094 .L0 
     /tmp/ccBi8fU0.s:224    .text:00000000000000a4 .L0 
     /tmp/ccBi8fU0.s:226    .text:00000000000000a8 .L0 
     /tmp/ccBi8fU0.s:227    .text:00000000000000a8 .L0 
     /tmp/ccBi8fU0.s:238    .text:00000000000000b8 .L0 
     /tmp/ccBi8fU0.s:241    .text:00000000000000c4 .L0 
     /tmp/ccBi8fU0.s:242    .text:00000000000000c4 .L0 
     /tmp/ccBi8fU0.s:253    .text:00000000000000d4 .L0 
     /tmp/ccBi8fU0.s:255    .text:00000000000000d8 .L0 
     /tmp/ccBi8fU0.s:256    .text:00000000000000d8 .L0 
     /tmp/ccBi8fU0.s:267    .text:00000000000000e8 .L0 
     /tmp/ccBi8fU0.s:270    .text:00000000000000f4 .L0 
     /tmp/ccBi8fU0.s:271    .text:00000000000000f4 .L0 
     /tmp/ccBi8fU0.s:282    .text:0000000000000104 .L0 
     /tmp/ccBi8fU0.s:285    .text:0000000000000108 .L0 
     /tmp/ccBi8fU0.s:286    .text:000000000000010c .L0 
     /tmp/ccBi8fU0.s:287    .text:000000000000010c .L0 
     /tmp/ccBi8fU0.s:289    .text:0000000000000110 .L0 
     /tmp/ccBi8fU0.s:290    .text:0000000000000110 .L0 
     /tmp/ccBi8fU0.s:292    .text:0000000000000114 .L0 
     /tmp/ccBi8fU0.s:295    .text:0000000000000118 .L0 
     /tmp/ccBi8fU0.s:297    .text:000000000000011c .L0 
     /tmp/ccBi8fU0.s:299    .text:0000000000000120 .L0 
     /tmp/ccBi8fU0.s:303    .text:0000000000000124 .L0 
     /tmp/ccBi8fU0.s:308    .text:0000000000000128 .L0 
     /tmp/ccBi8fU0.s:319    .text:0000000000000144 .L0 
     /tmp/ccBi8fU0.s:329    .text:0000000000000160 .L0 
     /tmp/ccBi8fU0.s:339    .text:000000000000017c .L0 
     /tmp/ccBi8fU0.s:347    .text:0000000000000194 .L0 
     /tmp/ccBi8fU0.s:127    .text:0000000000000000 _ZN9BufferCPPC1Ei
     /tmp/ccBi8fU0.s:398    .text:0000000000000194 _ZN9BufferCPP3putEi
     /tmp/ccBi8fU0.s:401    .text:0000000000000194 .L0 
     /tmp/ccBi8fU0.s:403    .text:0000000000000194 .L0 
     /tmp/ccBi8fU0.s:404    .text:0000000000000198 .L0 
     /tmp/ccBi8fU0.s:409    .text:00000000000001a8 .L0 
     /tmp/ccBi8fU0.s:410    .text:00000000000001a8 .L0 
     /tmp/ccBi8fU0.s:411    .text:00000000000001a8 .L0 
     /tmp/ccBi8fU0.s:412    .text:00000000000001a8 .L0 
     /tmp/ccBi8fU0.s:414    .text:00000000000001ac .L0 
     /tmp/ccBi8fU0.s:418    .text:00000000000001b4 .L0 
     /tmp/ccBi8fU0.s:423    .text:00000000000001b8 .L0 
     /tmp/ccBi8fU0.s:424    .text:00000000000001b8 .L0 
     /tmp/ccBi8fU0.s:431    .text:00000000000001c4 .L0 
     /tmp/ccBi8fU0.s:436    .text:00000000000001c8 .L0 
     /tmp/ccBi8fU0.s:437    .text:00000000000001c8 .L0 
     /tmp/ccBi8fU0.s:443    .text:00000000000001d4 .L0 
     /tmp/ccBi8fU0.s:445    .text:00000000000001d8 .L0 
     /tmp/ccBi8fU0.s:447    .text:00000000000001dc .L0 
     /tmp/ccBi8fU0.s:450    .text:00000000000001e4 .L0 
     /tmp/ccBi8fU0.s:452    .text:00000000000001e8 .L0 
GAS LISTING /tmp/ccBi8fU0.s 			page 24


     /tmp/ccBi8fU0.s:453    .text:00000000000001e8 .L0 
     /tmp/ccBi8fU0.s:455    .text:00000000000001ec .L0 
     /tmp/ccBi8fU0.s:457    .text:00000000000001f0 .L0 
     /tmp/ccBi8fU0.s:459    .text:00000000000001f4 .L0 
     /tmp/ccBi8fU0.s:461    .text:00000000000001f8 .L0 
     /tmp/ccBi8fU0.s:463    .text:00000000000001fc .L0 
     /tmp/ccBi8fU0.s:468    .text:0000000000000200 .L0 
     /tmp/ccBi8fU0.s:469    .text:0000000000000200 .L0 
     /tmp/ccBi8fU0.s:475    .text:000000000000020c .L0 
     /tmp/ccBi8fU0.s:480    .text:0000000000000210 .L0 
     /tmp/ccBi8fU0.s:481    .text:0000000000000210 .L0 
     /tmp/ccBi8fU0.s:487    .text:000000000000021c .L0 
     /tmp/ccBi8fU0.s:488    .text:0000000000000220 .L0 
     /tmp/ccBi8fU0.s:490    .text:0000000000000224 .L0 
     /tmp/ccBi8fU0.s:491    .text:0000000000000224 .L0 
     /tmp/ccBi8fU0.s:493    .text:0000000000000228 .L0 
     /tmp/ccBi8fU0.s:496    .text:000000000000022c .L0 
     /tmp/ccBi8fU0.s:498    .text:0000000000000230 .L0 
     /tmp/ccBi8fU0.s:500    .text:0000000000000234 .L0 
     /tmp/ccBi8fU0.s:506    .text:0000000000000234 _ZN9BufferCPP3getEv
     /tmp/ccBi8fU0.s:509    .text:0000000000000234 .L0 
     /tmp/ccBi8fU0.s:511    .text:0000000000000234 .L0 
     /tmp/ccBi8fU0.s:512    .text:0000000000000238 .L0 
     /tmp/ccBi8fU0.s:517    .text:0000000000000248 .L0 
     /tmp/ccBi8fU0.s:518    .text:0000000000000248 .L0 
     /tmp/ccBi8fU0.s:519    .text:0000000000000248 .L0 
     /tmp/ccBi8fU0.s:520    .text:0000000000000248 .L0 
     /tmp/ccBi8fU0.s:522    .text:000000000000024c .L0 
     /tmp/ccBi8fU0.s:525    .text:0000000000000250 .L0 
     /tmp/ccBi8fU0.s:530    .text:0000000000000254 .L0 
     /tmp/ccBi8fU0.s:531    .text:0000000000000254 .L0 
     /tmp/ccBi8fU0.s:538    .text:0000000000000260 .L0 
     /tmp/ccBi8fU0.s:543    .text:0000000000000264 .L0 
     /tmp/ccBi8fU0.s:544    .text:0000000000000264 .L0 
     /tmp/ccBi8fU0.s:550    .text:0000000000000270 .L0 
     /tmp/ccBi8fU0.s:551    .text:0000000000000270 .L0 
     /tmp/ccBi8fU0.s:553    .text:0000000000000274 .L0 
     /tmp/ccBi8fU0.s:555    .text:0000000000000278 .L0 
     /tmp/ccBi8fU0.s:558    .text:0000000000000280 .L0 
     /tmp/ccBi8fU0.s:561    .text:0000000000000284 .L0 
     /tmp/ccBi8fU0.s:562    .text:0000000000000284 .L0 
     /tmp/ccBi8fU0.s:564    .text:0000000000000288 .L0 
     /tmp/ccBi8fU0.s:566    .text:000000000000028c .L0 
     /tmp/ccBi8fU0.s:568    .text:0000000000000290 .L0 
     /tmp/ccBi8fU0.s:570    .text:0000000000000294 .L0 
     /tmp/ccBi8fU0.s:575    .text:0000000000000298 .L0 
     /tmp/ccBi8fU0.s:576    .text:0000000000000298 .L0 
     /tmp/ccBi8fU0.s:582    .text:00000000000002a4 .L0 
     /tmp/ccBi8fU0.s:587    .text:00000000000002a8 .L0 
     /tmp/ccBi8fU0.s:588    .text:00000000000002a8 .L0 
     /tmp/ccBi8fU0.s:594    .text:00000000000002b4 .L0 
     /tmp/ccBi8fU0.s:595    .text:00000000000002b4 .L0 
     /tmp/ccBi8fU0.s:597    .text:00000000000002bc .L0 
     /tmp/ccBi8fU0.s:599    .text:00000000000002c0 .L0 
     /tmp/ccBi8fU0.s:600    .text:00000000000002c0 .L0 
     /tmp/ccBi8fU0.s:602    .text:00000000000002c4 .L0 
     /tmp/ccBi8fU0.s:605    .text:00000000000002c8 .L0 
GAS LISTING /tmp/ccBi8fU0.s 			page 25


     /tmp/ccBi8fU0.s:608    .text:00000000000002cc .L0 
     /tmp/ccBi8fU0.s:610    .text:00000000000002d0 .L0 
     /tmp/ccBi8fU0.s:616    .text:00000000000002d0 _ZN9BufferCPP6getCntEv
     /tmp/ccBi8fU0.s:619    .text:00000000000002d0 .L0 
     /tmp/ccBi8fU0.s:621    .text:00000000000002d0 .L0 
     /tmp/ccBi8fU0.s:622    .text:00000000000002d4 .L0 
     /tmp/ccBi8fU0.s:627    .text:00000000000002e4 .L0 
     /tmp/ccBi8fU0.s:628    .text:00000000000002e4 .L0 
     /tmp/ccBi8fU0.s:629    .text:00000000000002e4 .L0 
     /tmp/ccBi8fU0.s:630    .text:00000000000002e4 .L0 
     /tmp/ccBi8fU0.s:632    .text:00000000000002e8 .L0 
     /tmp/ccBi8fU0.s:635    .text:00000000000002ec .L0 
     /tmp/ccBi8fU0.s:636    .text:00000000000002ec .L0 
     /tmp/ccBi8fU0.s:641    .text:00000000000002f0 .L0 
     /tmp/ccBi8fU0.s:642    .text:00000000000002f0 .L0 
     /tmp/ccBi8fU0.s:649    .text:00000000000002fc .L0 
     /tmp/ccBi8fU0.s:654    .text:0000000000000300 .L0 
     /tmp/ccBi8fU0.s:655    .text:0000000000000300 .L0 
     /tmp/ccBi8fU0.s:661    .text:000000000000030c .L0 
     /tmp/ccBi8fU0.s:662    .text:000000000000030c .L0 
     /tmp/ccBi8fU0.s:664    .text:0000000000000310 .L0 
     /tmp/ccBi8fU0.s:666    .text:0000000000000314 .L0 
     /tmp/ccBi8fU0.s:668    .text:0000000000000318 .L0 
     /tmp/ccBi8fU0.s:669    .text:0000000000000318 .L0 
     /tmp/ccBi8fU0.s:673    .text:000000000000031c .L0 
     /tmp/ccBi8fU0.s:678    .text:0000000000000320 .L0 
     /tmp/ccBi8fU0.s:679    .text:0000000000000320 .L0 
     /tmp/ccBi8fU0.s:685    .text:000000000000032c .L0 
     /tmp/ccBi8fU0.s:690    .text:0000000000000330 .L0 
     /tmp/ccBi8fU0.s:691    .text:0000000000000330 .L0 
     /tmp/ccBi8fU0.s:697    .text:000000000000033c .L0 
     /tmp/ccBi8fU0.s:698    .text:000000000000033c .L0 
     /tmp/ccBi8fU0.s:700    .text:0000000000000344 .L0 
     /tmp/ccBi8fU0.s:701    .text:0000000000000344 .L0 
     /tmp/ccBi8fU0.s:703    .text:0000000000000348 .L0 
     /tmp/ccBi8fU0.s:704    .text:0000000000000348 .L0 
     /tmp/ccBi8fU0.s:706    .text:000000000000034c .L0 
     /tmp/ccBi8fU0.s:709    .text:0000000000000350 .L0 
     /tmp/ccBi8fU0.s:712    .text:0000000000000354 .L0 
     /tmp/ccBi8fU0.s:716    .text:0000000000000358 .L0 
     /tmp/ccBi8fU0.s:718    .text:0000000000000358 .L0 
     /tmp/ccBi8fU0.s:719    .text:0000000000000358 .L0 
     /tmp/ccBi8fU0.s:721    .text:000000000000035c .L0 
     /tmp/ccBi8fU0.s:723    .text:0000000000000360 .L0 
     /tmp/ccBi8fU0.s:725    .text:0000000000000368 .L0 
     /tmp/ccBi8fU0.s:736    .text:0000000000000368 _ZN9BufferCPPD2Ev
     /tmp/ccBi8fU0.s:739    .text:0000000000000368 .L0 
     /tmp/ccBi8fU0.s:743    .text:0000000000000368 .L0 
     /tmp/ccBi8fU0.s:744    .text:000000000000036c .L0 
     /tmp/ccBi8fU0.s:748    .text:0000000000000378 .L0 
     /tmp/ccBi8fU0.s:749    .text:0000000000000378 .L0 
     /tmp/ccBi8fU0.s:750    .text:0000000000000378 .L0 
     /tmp/ccBi8fU0.s:752    .text:000000000000037c .L0 
     /tmp/ccBi8fU0.s:756    .text:0000000000000380 .L0 
     /tmp/ccBi8fU0.s:757    .text:0000000000000380 .L0 
     /tmp/ccBi8fU0.s:762    .text:000000000000038c .L0 
     /tmp/ccBi8fU0.s:763    .text:000000000000038c .L0 
GAS LISTING /tmp/ccBi8fU0.s 			page 26


     /tmp/ccBi8fU0.s:768    .text:000000000000039c .L0 
     /tmp/ccBi8fU0.s:769    .text:000000000000039c .L0 
     /tmp/ccBi8fU0.s:770    .text:000000000000039c .L0 
     /tmp/ccBi8fU0.s:774    .text:00000000000003a8 .L0 
     /tmp/ccBi8fU0.s:777    .text:00000000000003ac .L0 
     /tmp/ccBi8fU0.s:778    .text:00000000000003ac .L0 
     /tmp/ccBi8fU0.s:780    .text:00000000000003b0 .L0 
     /tmp/ccBi8fU0.s:782    .text:00000000000003b4 .L0 
     /tmp/ccBi8fU0.s:786    .text:00000000000003bc .L0 
     /tmp/ccBi8fU0.s:787    .text:00000000000003bc .L0 
     /tmp/ccBi8fU0.s:791    .text:00000000000003c8 .L0 
     /tmp/ccBi8fU0.s:792    .text:00000000000003c8 .L0 
     /tmp/ccBi8fU0.s:794    .text:00000000000003cc .L0 
     /tmp/ccBi8fU0.s:796    .text:00000000000003d0 .L0 
     /tmp/ccBi8fU0.s:798    .text:00000000000003d4 .L0 
     /tmp/ccBi8fU0.s:800    .text:00000000000003d8 .L0 
     /tmp/ccBi8fU0.s:803    .text:00000000000003dc .L0 
     /tmp/ccBi8fU0.s:806    .text:00000000000003e0 .L0 
     /tmp/ccBi8fU0.s:807    .text:00000000000003e0 .L0 
     /tmp/ccBi8fU0.s:811    .text:00000000000003ec .L0 
     /tmp/ccBi8fU0.s:812    .text:00000000000003ec .L0 
     /tmp/ccBi8fU0.s:816    .text:00000000000003f8 .L0 
     /tmp/ccBi8fU0.s:817    .text:00000000000003f8 .L0 
     /tmp/ccBi8fU0.s:821    .text:0000000000000404 .L0 
     /tmp/ccBi8fU0.s:822    .text:0000000000000404 .L0 
     /tmp/ccBi8fU0.s:824    .text:0000000000000408 .L0 
     /tmp/ccBi8fU0.s:826    .text:000000000000040c .L0 
     /tmp/ccBi8fU0.s:832    .text:0000000000000418 .L0 
     /tmp/ccBi8fU0.s:833    .text:0000000000000418 .L0 
     /tmp/ccBi8fU0.s:835    .text:000000000000041c .L0 
     /tmp/ccBi8fU0.s:837    .text:0000000000000420 .L0 
     /tmp/ccBi8fU0.s:843    .text:000000000000042c .L0 
     /tmp/ccBi8fU0.s:844    .text:000000000000042c .L0 
     /tmp/ccBi8fU0.s:846    .text:0000000000000430 .L0 
     /tmp/ccBi8fU0.s:848    .text:0000000000000434 .L0 
     /tmp/ccBi8fU0.s:854    .text:0000000000000440 .L0 
     /tmp/ccBi8fU0.s:855    .text:0000000000000440 .L0 
     /tmp/ccBi8fU0.s:857    .text:0000000000000444 .L0 
     /tmp/ccBi8fU0.s:859    .text:0000000000000448 .L0 
     /tmp/ccBi8fU0.s:866    .text:0000000000000454 .L0 
     /tmp/ccBi8fU0.s:867    .text:0000000000000458 .L0 
     /tmp/ccBi8fU0.s:869    .text:000000000000045c .L0 
     /tmp/ccBi8fU0.s:870    .text:000000000000045c .L0 
     /tmp/ccBi8fU0.s:872    .text:0000000000000460 .L0 
     /tmp/ccBi8fU0.s:875    .text:0000000000000464 .L0 
     /tmp/ccBi8fU0.s:877    .text:0000000000000468 .L0 
     /tmp/ccBi8fU0.s:736    .text:0000000000000368 _ZN9BufferCPPD1Ev
     /tmp/ccBi8fU0.s:62     .text._ZN9SemaphoreD2Ev:0000000000000038 .L0 
     /tmp/ccBi8fU0.s:123    .text._ZN9SemaphoreD0Ev:0000000000000050 .L0 
     /tmp/ccBi8fU0.s:906    .text:0000000000000468 .L0 
     /tmp/ccBi8fU0.s:180    .text:0000000000000058 .L0 
     /tmp/ccBi8fU0.s:209    .text:0000000000000088 .L0 
     /tmp/ccBi8fU0.s:238    .text:00000000000000b8 .L0 
     /tmp/ccBi8fU0.s:267    .text:00000000000000e8 .L0 
     /tmp/ccBi8fU0.s:730    .rodata.str1.8:0000000000000000 .LC0
     /tmp/ccBi8fU0.s:763    .text:000000000000038c .L0 
     /tmp/ccBi8fU0.s:715    .text:0000000000000358 .L21
GAS LISTING /tmp/ccBi8fU0.s 			page 27


     /tmp/ccBi8fU0.s:671    .text:000000000000031c .L22
     /tmp/ccBi8fU0.s:804    .text:00000000000003e0 .L25
     /tmp/ccBi8fU0.s:766    .text:000000000000039c .L26
     /tmp/ccBi8fU0.s:830    .text:0000000000000418 .L27
     /tmp/ccBi8fU0.s:841    .text:000000000000042c .L28
     /tmp/ccBi8fU0.s:852    .text:0000000000000440 .L29
     /tmp/ccBi8fU0.s:863    .text:0000000000000454 .L24
     /tmp/ccBi8fU0.s:31     .text._ZN9SemaphoreD2Ev:0000000000000010 .L0 
     /tmp/ccBi8fU0.s:88     .text._ZN9SemaphoreD0Ev:0000000000000018 .L0 
     /tmp/ccBi8fU0.s:163    .text:000000000000003c .LEHB0
     /tmp/ccBi8fU0.s:128    .text:0000000000000000 .LFB34
     /tmp/ccBi8fU0.s:173    .text:0000000000000054 .LEHE0
     /tmp/ccBi8fU0.s:187    .text:000000000000006c .LEHB1
     /tmp/ccBi8fU0.s:190    .text:0000000000000074 .LEHE1
     /tmp/ccBi8fU0.s:302    .text:0000000000000124 .L10
     /tmp/ccBi8fU0.s:199    .text:000000000000007c .LEHB2
     /tmp/ccBi8fU0.s:202    .text:0000000000000084 .LEHE2
     /tmp/ccBi8fU0.s:216    .text:000000000000009c .LEHB3
     /tmp/ccBi8fU0.s:219    .text:00000000000000a4 .LEHE3
     /tmp/ccBi8fU0.s:315    .text:0000000000000140 .L11
     /tmp/ccBi8fU0.s:228    .text:00000000000000ac .LEHB4
     /tmp/ccBi8fU0.s:231    .text:00000000000000b4 .LEHE4
     /tmp/ccBi8fU0.s:245    .text:00000000000000cc .LEHB5
     /tmp/ccBi8fU0.s:248    .text:00000000000000d4 .LEHE5
     /tmp/ccBi8fU0.s:325    .text:000000000000015c .L12
     /tmp/ccBi8fU0.s:257    .text:00000000000000dc .LEHB6
     /tmp/ccBi8fU0.s:260    .text:00000000000000e4 .LEHE6
     /tmp/ccBi8fU0.s:274    .text:00000000000000fc .LEHB7
     /tmp/ccBi8fU0.s:277    .text:0000000000000104 .LEHE7
     /tmp/ccBi8fU0.s:335    .text:0000000000000178 .L13
     /tmp/ccBi8fU0.s:312    .text:0000000000000138 .LEHB8
     /tmp/ccBi8fU0.s:345    .text:0000000000000194 .LEHE8
     /tmp/ccBi8fU0.s:2379   .debug_abbrev:0000000000000000 .Ldebug_abbrev0
     /tmp/ccBi8fU0.s:3836   .debug_str:0000000000000053 .LASF99
     /tmp/ccBi8fU0.s:4030   .debug_str:0000000000000668 .LASF100
     /tmp/ccBi8fU0.s:3894   .debug_str:0000000000000289 .LASF101
     /tmp/ccBi8fU0.s:3812   .debug_ranges:0000000000000000 .Ldebug_ranges0
     /tmp/ccBi8fU0.s:3822   .debug_line:0000000000000000 .Ldebug_line0
     /tmp/ccBi8fU0.s:3950   .debug_str:0000000000000420 .LASF0
     /tmp/ccBi8fU0.s:3962   .debug_str:0000000000000467 .LASF1
     /tmp/ccBi8fU0.s:3938   .debug_str:00000000000003ce .LASF2
     /tmp/ccBi8fU0.s:3910   .debug_str:000000000000030a .LASF4
     /tmp/ccBi8fU0.s:3994   .debug_str:000000000000055d .LASF3
     /tmp/ccBi8fU0.s:3838   .debug_str:0000000000000117 .LASF5
     /tmp/ccBi8fU0.s:3870   .debug_str:000000000000020d .LASF6
     /tmp/ccBi8fU0.s:3964   .debug_str:000000000000047a .LASF7
     /tmp/ccBi8fU0.s:3948   .debug_str:000000000000040d .LASF8
     /tmp/ccBi8fU0.s:4020   .debug_str:0000000000000619 .LASF9
     /tmp/ccBi8fU0.s:3892   .debug_str:000000000000027b .LASF10
     /tmp/ccBi8fU0.s:3974   .debug_str:00000000000004cc .LASF11
     /tmp/ccBi8fU0.s:4012   .debug_str:00000000000005e2 .LASF12
     /tmp/ccBi8fU0.s:3844   .debug_str:0000000000000148 .LASF13
     /tmp/ccBi8fU0.s:3828   .debug_str:0000000000000013 .LASF14
     /tmp/ccBi8fU0.s:3856   .debug_str:00000000000001b8 .LASF15
     /tmp/ccBi8fU0.s:3992   .debug_str:0000000000000547 .LASF16
     /tmp/ccBi8fU0.s:3864   .debug_str:00000000000001e7 .LASF17
     /tmp/ccBi8fU0.s:3906   .debug_str:00000000000002fd .LASF20
GAS LISTING /tmp/ccBi8fU0.s 			page 28


     /tmp/ccBi8fU0.s:3824   .debug_str:0000000000000000 .LASF18
     /tmp/ccBi8fU0.s:3878   .debug_str:0000000000000232 .LASF19
     /tmp/ccBi8fU0.s:3908   .debug_str:0000000000000305 .LASF21
     /tmp/ccBi8fU0.s:3872   .debug_str:0000000000000214 .LASF102
     /tmp/ccBi8fU0.s:4040   .debug_str:00000000000006b9 .LASF22
     /tmp/ccBi8fU0.s:4032   .debug_str:0000000000000680 .LASF23
     /tmp/ccBi8fU0.s:4008   .debug_str:00000000000005cb .LASF24
     /tmp/ccBi8fU0.s:3934   .debug_str:00000000000003b1 .LASF29
     /tmp/ccBi8fU0.s:3998   .debug_str:0000000000000578 .LASF25
     /tmp/ccBi8fU0.s:4004   .debug_str:000000000000059f .LASF27
     /tmp/ccBi8fU0.s:3980   .debug_str:00000000000004fc .LASF26
     /tmp/ccBi8fU0.s:3912   .debug_str:0000000000000311 .LASF28
     /tmp/ccBi8fU0.s:3890   .debug_str:0000000000000272 .LASF62
     /tmp/ccBi8fU0.s:3970   .debug_str:0000000000000499 .LASF64
     /tmp/ccBi8fU0.s:4006   .debug_str:00000000000005c0 .LASF103
     /tmp/ccBi8fU0.s:3988   .debug_str:0000000000000536 .LASF30
     /tmp/ccBi8fU0.s:3990   .debug_str:0000000000000540 .LASF31
     /tmp/ccBi8fU0.s:3868   .debug_str:0000000000000208 .LASF32
     /tmp/ccBi8fU0.s:3940   .debug_str:00000000000003dc .LASF33
     /tmp/ccBi8fU0.s:3876   .debug_str:0000000000000223 .LASF34
     /tmp/ccBi8fU0.s:3900   .debug_str:00000000000002cc .LASF35
     /tmp/ccBi8fU0.s:3932   .debug_str:00000000000003a7 .LASF36
     /tmp/ccBi8fU0.s:3954   .debug_str:0000000000000436 .LASF37
     /tmp/ccBi8fU0.s:3956   .debug_str:0000000000000440 .LASF38
     /tmp/ccBi8fU0.s:3928   .debug_str:0000000000000396 .LASF39
     /tmp/ccBi8fU0.s:4024   .debug_str:0000000000000639 .LASF40
     /tmp/ccBi8fU0.s:3902   .debug_str:00000000000002da .LASF104
     /tmp/ccBi8fU0.s:3840   .debug_str:000000000000011e .LASF105
     /tmp/ccBi8fU0.s:3832   .debug_str:0000000000000035 .LASF41
     /tmp/ccBi8fU0.s:3834   .debug_str:000000000000003c .LASF42
     /tmp/ccBi8fU0.s:3826   .debug_str:0000000000000009 .LASF43
     /tmp/ccBi8fU0.s:3924   .debug_str:0000000000000373 .LASF106
     /tmp/ccBi8fU0.s:3942   .debug_str:00000000000003e1 .LASF53
     /tmp/ccBi8fU0.s:4014   .debug_str:00000000000005f1 .LASF44
     /tmp/ccBi8fU0.s:3914   .debug_str:0000000000000332 .LASF56
     /tmp/ccBi8fU0.s:3852   .debug_str:000000000000018e .LASF58
     /tmp/ccBi8fU0.s:3882   .debug_str:0000000000000241 .LASF45
     /tmp/ccBi8fU0.s:3984   .debug_str:000000000000050a .LASF47
     /tmp/ccBi8fU0.s:3968   .debug_str:0000000000000492 .LASF46
     /tmp/ccBi8fU0.s:3986   .debug_str:000000000000051f .LASF48
     /tmp/ccBi8fU0.s:4026   .debug_str:000000000000064b .LASF49
     /tmp/ccBi8fU0.s:3854   .debug_str:00000000000001a0 .LASF50
     /tmp/ccBi8fU0.s:4038   .debug_str:00000000000006b0 .LASF51
     /tmp/ccBi8fU0.s:4022   .debug_str:0000000000000629 .LASF107
     /tmp/ccBi8fU0.s:4016   .debug_str:0000000000000603 .LASF52
     /tmp/ccBi8fU0.s:3936   .debug_str:00000000000003c1 .LASF54
     /tmp/ccBi8fU0.s:3978   .debug_str:00000000000004e5 .LASF55
     /tmp/ccBi8fU0.s:3920   .debug_str:000000000000034e .LASF57
     /tmp/ccBi8fU0.s:3958   .debug_str:0000000000000452 .LASF59
     /tmp/ccBi8fU0.s:3960   .debug_str:0000000000000461 .LASF60
     /tmp/ccBi8fU0.s:3946   .debug_str:00000000000003fa .LASF61
     /tmp/ccBi8fU0.s:3952   .debug_str:000000000000042d .LASF63
     /tmp/ccBi8fU0.s:3842   .debug_str:0000000000000132 .LASF65
     /tmp/ccBi8fU0.s:4042   .debug_str:00000000000006be .LASF66
     /tmp/ccBi8fU0.s:3896   .debug_str:00000000000002b4 .LASF67
     /tmp/ccBi8fU0.s:4018   .debug_str:000000000000060a .LASF68
     /tmp/ccBi8fU0.s:3884   .debug_str:0000000000000246 .LASF108
GAS LISTING /tmp/ccBi8fU0.s 			page 29


     /tmp/ccBi8fU0.s:3926   .debug_str:0000000000000388 .LASF69
     /tmp/ccBi8fU0.s:3922   .debug_str:0000000000000356 .LASF109
     /tmp/ccBi8fU0.s:3996   .debug_str:000000000000056f .LASF70
     /tmp/ccBi8fU0.s:3916   .debug_str:000000000000033d .LASF71
     /tmp/ccBi8fU0.s:617    .text:00000000000002d0 .LFB41
     /tmp/ccBi8fU0.s:726    .text:0000000000000368 .LFE41
     /tmp/ccBi8fU0.s:3982   .debug_str:0000000000000505 .LASF72
     /tmp/ccBi8fU0.s:3366   .debug_loc:0000000000000000 .LLST25
     /tmp/ccBi8fU0.s:3388   .debug_loc:000000000000005f .LLST26
     /tmp/ccBi8fU0.s:638    .text:00000000000002f0 .LBB75
     /tmp/ccBi8fU0.s:647    .text:00000000000002fc .LBE75
     /tmp/ccBi8fU0.s:3395   .debug_loc:0000000000000082 .LLST27
     /tmp/ccBi8fU0.s:645    .text:00000000000002fc .LVL69
     /tmp/ccBi8fU0.s:651    .text:0000000000000300 .LBB77
     /tmp/ccBi8fU0.s:659    .text:000000000000030c .LBE77
     /tmp/ccBi8fU0.s:3402   .debug_loc:00000000000000a5 .LLST28
     /tmp/ccBi8fU0.s:657    .text:000000000000030c .LVL71
     /tmp/ccBi8fU0.s:675    .text:0000000000000320 .LBB79
     /tmp/ccBi8fU0.s:683    .text:000000000000032c .LBE79
     /tmp/ccBi8fU0.s:3409   .debug_loc:00000000000000c8 .LLST29
     /tmp/ccBi8fU0.s:681    .text:000000000000032c .LVL74
     /tmp/ccBi8fU0.s:687    .text:0000000000000330 .LBB81
     /tmp/ccBi8fU0.s:695    .text:000000000000033c .LBE81
     /tmp/ccBi8fU0.s:3416   .debug_loc:00000000000000eb .LLST30
     /tmp/ccBi8fU0.s:693    .text:000000000000033c .LVL76
     /tmp/ccBi8fU0.s:507    .text:0000000000000234 .LFB40
     /tmp/ccBi8fU0.s:611    .text:00000000000002d0 .LFE40
     /tmp/ccBi8fU0.s:3423   .debug_loc:000000000000010e .LLST19
     /tmp/ccBi8fU0.s:3441   .debug_loc:000000000000015a .LLST20
     /tmp/ccBi8fU0.s:527    .text:0000000000000254 .LBB67
     /tmp/ccBi8fU0.s:536    .text:0000000000000260 .LBE67
     /tmp/ccBi8fU0.s:3452   .debug_loc:0000000000000190 .LLST21
     /tmp/ccBi8fU0.s:534    .text:0000000000000260 .LVL56
     /tmp/ccBi8fU0.s:540    .text:0000000000000264 .LBB69
     /tmp/ccBi8fU0.s:548    .text:0000000000000270 .LBE69
     /tmp/ccBi8fU0.s:3459   .debug_loc:00000000000001b3 .LLST22
     /tmp/ccBi8fU0.s:546    .text:0000000000000270 .LVL58
     /tmp/ccBi8fU0.s:572    .text:0000000000000298 .LBB71
     /tmp/ccBi8fU0.s:580    .text:00000000000002a4 .LBE71
     /tmp/ccBi8fU0.s:3466   .debug_loc:00000000000001d6 .LLST23
     /tmp/ccBi8fU0.s:578    .text:00000000000002a4 .LVL61
     /tmp/ccBi8fU0.s:584    .text:00000000000002a8 .LBB73
     /tmp/ccBi8fU0.s:592    .text:00000000000002b4 .LBE73
     /tmp/ccBi8fU0.s:3473   .debug_loc:00000000000001f9 .LLST24
     /tmp/ccBi8fU0.s:590    .text:00000000000002b4 .LVL63
     /tmp/ccBi8fU0.s:399    .text:0000000000000194 .LFB39
     /tmp/ccBi8fU0.s:501    .text:0000000000000234 .LFE39
     /tmp/ccBi8fU0.s:3480   .debug_loc:000000000000021c .LLST13
     /tmp/ccBi8fU0.s:3498   .debug_loc:0000000000000268 .LLST14
     /tmp/ccBi8fU0.s:420    .text:00000000000001b8 .LBB59
     /tmp/ccBi8fU0.s:429    .text:00000000000001c4 .LBE59
     /tmp/ccBi8fU0.s:3512   .debug_loc:00000000000002a1 .LLST15
     /tmp/ccBi8fU0.s:427    .text:00000000000001c4 .LVL45
     /tmp/ccBi8fU0.s:433    .text:00000000000001c8 .LBB61
     /tmp/ccBi8fU0.s:441    .text:00000000000001d4 .LBE61
     /tmp/ccBi8fU0.s:3519   .debug_loc:00000000000002c4 .LLST16
     /tmp/ccBi8fU0.s:439    .text:00000000000001d4 .LVL47
GAS LISTING /tmp/ccBi8fU0.s 			page 30


     /tmp/ccBi8fU0.s:465    .text:0000000000000200 .LBB63
     /tmp/ccBi8fU0.s:473    .text:000000000000020c .LBE63
     /tmp/ccBi8fU0.s:3526   .debug_loc:00000000000002e7 .LLST17
     /tmp/ccBi8fU0.s:471    .text:000000000000020c .LVL49
     /tmp/ccBi8fU0.s:477    .text:0000000000000210 .LBB65
     /tmp/ccBi8fU0.s:485    .text:000000000000021c .LBE65
     /tmp/ccBi8fU0.s:3533   .debug_loc:000000000000030a .LLST18
     /tmp/ccBi8fU0.s:483    .text:000000000000021c .LVL51
     /tmp/ccBi8fU0.s:3976   .debug_str:00000000000004db .LASF73
     /tmp/ccBi8fU0.s:3966   .debug_str:000000000000048d .LASF74
     /tmp/ccBi8fU0.s:3846   .debug_str:0000000000000158 .LASF75
     /tmp/ccBi8fU0.s:737    .text:0000000000000368 .LFB37
     /tmp/ccBi8fU0.s:878    .text:0000000000000468 .LFE37
     /tmp/ccBi8fU0.s:3540   .debug_loc:000000000000032d .LLST31
     /tmp/ccBi8fU0.s:789    .text:00000000000003c8 .LVL86
     /tmp/ccBi8fU0.s:775    .text:00000000000003ac .LBB84
     /tmp/ccBi8fU0.s:801    .text:00000000000003dc .LBE84
     /tmp/ccBi8fU0.s:3558   .debug_loc:0000000000000379 .LLST32
     /tmp/ccBi8fU0.s:760    .text:000000000000038c .LVL82
     /tmp/ccBi8fU0.s:765    .text:000000000000039c .LVL83
     /tmp/ccBi8fU0.s:772    .text:00000000000003a8 .LVL84
     /tmp/ccBi8fU0.s:809    .text:00000000000003ec .LVL87
     /tmp/ccBi8fU0.s:814    .text:00000000000003f8 .LVL88
     /tmp/ccBi8fU0.s:819    .text:0000000000000404 .LVL89
     /tmp/ccBi8fU0.s:3858   .debug_str:00000000000001c4 .LASF79
     /tmp/ccBi8fU0.s:4010   .debug_str:00000000000005d0 .LASF76
     /tmp/ccBi8fU0.s:348    .text:0000000000000194 .LFE34
     /tmp/ccBi8fU0.s:3566   .debug_loc:000000000000039d .LLST3
     /tmp/ccBi8fU0.s:3628   .debug_loc:000000000000048d .LLST4
     /tmp/ccBi8fU0.s:176    .text:0000000000000058 .LBB46
     /tmp/ccBi8fU0.s:193    .text:0000000000000074 .LBE46
     /tmp/ccBi8fU0.s:3642   .debug_loc:00000000000004c6 .LLST5
     /tmp/ccBi8fU0.s:3655   .debug_loc:00000000000004fe .LLST6
     /tmp/ccBi8fU0.s:189    .text:0000000000000074 .LVL15
     /tmp/ccBi8fU0.s:205    .text:0000000000000088 .LBB49
     /tmp/ccBi8fU0.s:222    .text:00000000000000a4 .LBE49
     /tmp/ccBi8fU0.s:3670   .debug_loc:0000000000000547 .LLST7
     /tmp/ccBi8fU0.s:3681   .debug_loc:000000000000057d .LLST8
     /tmp/ccBi8fU0.s:218    .text:00000000000000a4 .LVL19
     /tmp/ccBi8fU0.s:234    .text:00000000000000b8 .LBB52
     /tmp/ccBi8fU0.s:251    .text:00000000000000d4 .LBE52
     /tmp/ccBi8fU0.s:3696   .debug_loc:00000000000005c6 .LLST9
     /tmp/ccBi8fU0.s:3709   .debug_loc:00000000000005fe .LLST10
     /tmp/ccBi8fU0.s:247    .text:00000000000000d4 .LVL23
     /tmp/ccBi8fU0.s:263    .text:00000000000000e8 .LBB55
     /tmp/ccBi8fU0.s:280    .text:0000000000000104 .LBE55
     /tmp/ccBi8fU0.s:3724   .debug_loc:0000000000000647 .LLST11
     /tmp/ccBi8fU0.s:3737   .debug_loc:000000000000067f .LLST12
     /tmp/ccBi8fU0.s:276    .text:0000000000000104 .LVL27
     /tmp/ccBi8fU0.s:165    .text:0000000000000044 .LVL11
     /tmp/ccBi8fU0.s:172    .text:0000000000000054 .LVL12
     /tmp/ccBi8fU0.s:201    .text:0000000000000084 .LVL16
     /tmp/ccBi8fU0.s:230    .text:00000000000000b4 .LVL20
     /tmp/ccBi8fU0.s:259    .text:00000000000000e4 .LVL24
     /tmp/ccBi8fU0.s:310    .text:0000000000000134 .LVL31
     /tmp/ccBi8fU0.s:314    .text:0000000000000140 .LVL32
     /tmp/ccBi8fU0.s:321    .text:0000000000000150 .LVL34
GAS LISTING /tmp/ccBi8fU0.s 			page 31


     /tmp/ccBi8fU0.s:324    .text:000000000000015c .LVL35
     /tmp/ccBi8fU0.s:331    .text:000000000000016c .LVL37
     /tmp/ccBi8fU0.s:334    .text:0000000000000178 .LVL38
     /tmp/ccBi8fU0.s:341    .text:0000000000000188 .LVL40
     /tmp/ccBi8fU0.s:344    .text:0000000000000194 .LVL41
     /tmp/ccBi8fU0.s:3888   .debug_str:0000000000000260 .LASF77
     /tmp/ccBi8fU0.s:67     .text._ZN9SemaphoreD0Ev:0000000000000000 .LFB28
     /tmp/ccBi8fU0.s:114    .text._ZN9SemaphoreD0Ev:0000000000000050 .LFE28
     /tmp/ccBi8fU0.s:3752   .debug_loc:00000000000006c8 .LLST1
     /tmp/ccBi8fU0.s:85     .text._ZN9SemaphoreD0Ev:0000000000000018 .LBB43
     /tmp/ccBi8fU0.s:97     .text._ZN9SemaphoreD0Ev:0000000000000030 .LBE43
     /tmp/ccBi8fU0.s:3770   .debug_loc:0000000000000714 .LLST2
     /tmp/ccBi8fU0.s:95     .text._ZN9SemaphoreD0Ev:0000000000000030 .LVL6
     /tmp/ccBi8fU0.s:101    .text._ZN9SemaphoreD0Ev:000000000000003c .LVL7
     /tmp/ccBi8fU0.s:3848   .debug_str:000000000000016a .LASF78
     /tmp/ccBi8fU0.s:14     .text._ZN9SemaphoreD2Ev:0000000000000000 .LFB26
     /tmp/ccBi8fU0.s:50     .text._ZN9SemaphoreD2Ev:0000000000000038 .LFE26
     /tmp/ccBi8fU0.s:3781   .debug_loc:000000000000074a .LLST0
     /tmp/ccBi8fU0.s:38     .text._ZN9SemaphoreD2Ev:0000000000000028 .LVL2
     /tmp/ccBi8fU0.s:3898   .debug_str:00000000000002c7 .LASF80
     /tmp/ccBi8fU0.s:3830   .debug_str:0000000000000023 .LASF110
     /tmp/ccBi8fU0.s:3850   .debug_str:000000000000017c .LASF81
     /tmp/ccBi8fU0.s:3944   .debug_str:00000000000003f1 .LASF83
     /tmp/ccBi8fU0.s:4028   .debug_str:0000000000000653 .LASF82
     /tmp/ccBi8fU0.s:3866   .debug_str:00000000000001fd .LASF84
     /tmp/ccBi8fU0.s:3886   .debug_str:0000000000000257 .LASF85
     /tmp/ccBi8fU0.s:3874   .debug_str:000000000000021e .LASF86
     /tmp/ccBi8fU0.s:4036   .debug_str:000000000000069d .LASF87
     /tmp/ccBi8fU0.s:3918   .debug_str:0000000000000342 .LASF88
     /tmp/ccBi8fU0.s:3862   .debug_str:00000000000001d3 .LASF89
     /tmp/ccBi8fU0.s:3880   .debug_str:0000000000000238 .LASF90
     /tmp/ccBi8fU0.s:3930   .debug_str:00000000000003a1 .LASF91
     /tmp/ccBi8fU0.s:4002   .debug_str:0000000000000592 .LASF93
     /tmp/ccBi8fU0.s:4044   .debug_str:00000000000006c4 .LASF92
     /tmp/ccBi8fU0.s:4000   .debug_str:0000000000000582 .LASF94
     /tmp/ccBi8fU0.s:3904   .debug_str:00000000000002ee .LASF95
     /tmp/ccBi8fU0.s:4034   .debug_str:0000000000000685 .LASF96
     /tmp/ccBi8fU0.s:3972   .debug_str:00000000000004b9 .LASF97
     /tmp/ccBi8fU0.s:3860   .debug_str:00000000000001c9 .LASF98
     /tmp/ccBi8fU0.s:620    .text:00000000000002d0 .LVL66
     /tmp/ccBi8fU0.s:643    .text:00000000000002f4 .LVL68
     /tmp/ccBi8fU0.s:707    .text:000000000000034c .LVL77
     /tmp/ccBi8fU0.s:714    .text:0000000000000358 .LVL79
     /tmp/ccBi8fU0.s:670    .text:000000000000031c .LVL72
     /tmp/ccBi8fU0.s:710    .text:0000000000000350 .LVL78
     /tmp/ccBi8fU0.s:637    .text:00000000000002f0 .LVL67
     /tmp/ccBi8fU0.s:650    .text:0000000000000300 .LVL70
     /tmp/ccBi8fU0.s:674    .text:0000000000000320 .LVL73
     /tmp/ccBi8fU0.s:686    .text:0000000000000330 .LVL75
     /tmp/ccBi8fU0.s:510    .text:0000000000000234 .LVL53
     /tmp/ccBi8fU0.s:532    .text:0000000000000258 .LVL55
     /tmp/ccBi8fU0.s:603    .text:00000000000002c4 .LVL64
     /tmp/ccBi8fU0.s:559    .text:0000000000000284 .LVL59
     /tmp/ccBi8fU0.s:606    .text:00000000000002c8 .LVL65
     /tmp/ccBi8fU0.s:526    .text:0000000000000254 .LVL54
     /tmp/ccBi8fU0.s:539    .text:0000000000000264 .LVL57
     /tmp/ccBi8fU0.s:571    .text:0000000000000298 .LVL60
GAS LISTING /tmp/ccBi8fU0.s 			page 32


     /tmp/ccBi8fU0.s:583    .text:00000000000002a8 .LVL62
     /tmp/ccBi8fU0.s:402    .text:0000000000000194 .LVL42
     /tmp/ccBi8fU0.s:425    .text:00000000000001bc .LVL44
     /tmp/ccBi8fU0.s:494    .text:0000000000000228 .LVL52
     /tmp/ccBi8fU0.s:419    .text:00000000000001b8 .LVL43
     /tmp/ccBi8fU0.s:432    .text:00000000000001c8 .LVL46
     /tmp/ccBi8fU0.s:464    .text:0000000000000200 .LVL48
     /tmp/ccBi8fU0.s:476    .text:0000000000000210 .LVL50
     /tmp/ccBi8fU0.s:742    .text:0000000000000368 .LVL80
     /tmp/ccBi8fU0.s:758    .text:0000000000000384 .LVL81
     /tmp/ccBi8fU0.s:873    .text:0000000000000460 .LVL94
     /tmp/ccBi8fU0.s:784    .text:00000000000003bc .LVL85
     /tmp/ccBi8fU0.s:134    .text:0000000000000000 .LVL9
     /tmp/ccBi8fU0.s:155    .text:000000000000002c .LVL10
     /tmp/ccBi8fU0.s:293    .text:0000000000000114 .LVL28
     /tmp/ccBi8fU0.s:301    .text:0000000000000124 .LVL29
     /tmp/ccBi8fU0.s:305    .text:0000000000000128 .LVL30
     /tmp/ccBi8fU0.s:317    .text:0000000000000144 .LVL33
     /tmp/ccBi8fU0.s:327    .text:0000000000000160 .LVL36
     /tmp/ccBi8fU0.s:337    .text:000000000000017c .LVL39
     /tmp/ccBi8fU0.s:175    .text:0000000000000058 .LVL13
     /tmp/ccBi8fU0.s:186    .text:000000000000006c .LVL14
     /tmp/ccBi8fU0.s:204    .text:0000000000000088 .LVL17
     /tmp/ccBi8fU0.s:215    .text:000000000000009c .LVL18
     /tmp/ccBi8fU0.s:233    .text:00000000000000b8 .LVL21
     /tmp/ccBi8fU0.s:244    .text:00000000000000cc .LVL22
     /tmp/ccBi8fU0.s:262    .text:00000000000000e8 .LVL25
     /tmp/ccBi8fU0.s:273    .text:00000000000000fc .LVL26
     /tmp/ccBi8fU0.s:72     .text._ZN9SemaphoreD0Ev:0000000000000000 .LVL3
     /tmp/ccBi8fU0.s:93     .text._ZN9SemaphoreD0Ev:0000000000000028 .LVL5
     /tmp/ccBi8fU0.s:109    .text._ZN9SemaphoreD0Ev:0000000000000048 .LVL8
     /tmp/ccBi8fU0.s:84     .text._ZN9SemaphoreD0Ev:0000000000000018 .LVL4
     /tmp/ccBi8fU0.s:20     .text._ZN9SemaphoreD2Ev:0000000000000000 .LVL0
     /tmp/ccBi8fU0.s:36     .text._ZN9SemaphoreD2Ev:0000000000000020 .LVL1
     /tmp/ccBi8fU0.s:907    .debug_info:0000000000000000 .Ldebug_info0
     /tmp/ccBi8fU0.s:8      .text:0000000000000000 .Ltext0
     /tmp/ccBi8fU0.s:900    .text:0000000000000468 .Letext0
     /tmp/ccBi8fU0.s:53     .gcc_except_table._ZN9SemaphoreD2Ev:0000000000000000 .LLSDA26
     /tmp/ccBi8fU0.s:116    .gcc_except_table._ZN9SemaphoreD0Ev:0000000000000000 .LLSDA28
     /tmp/ccBi8fU0.s:350    .gcc_except_table:0000000000000000 .LLSDA34
     /tmp/ccBi8fU0.s:880    .gcc_except_table:0000000000000079 .LLSDA37
                           .group:0000000000000000 _ZN9SemaphoreD5Ev

UNDEFINED SYMBOLS
_Z9sem_closeP4_sem
__gxx_personality_v0
_ZdlPv
_ZN15MemoryAllocator9mem_allocEm
_Znwm
_Z8sem_openPP4_semj
_Unwind_Resume
_Z8sem_waitP4_sem
_Z10sem_signalP4_sem
_Z4putcc
_Z11printStringPKc
_ZN15MemoryAllocator8mem_freeEPv
