GAS LISTING /tmp/ccoLQ6A6.s 			page 1


   1              		.file	"ConsumerProducer_CPP_Sync_API_test.cpp"
   2              		.option nopic
   3              		.option norelax
   4              		.attribute arch, "rv64i2p0_m2p0_a2p0"
   5              		.attribute unaligned_access, 0
   6              		.attribute stack_align, 16
   7              		.text
   8              	.Ltext0:
   9              		.section	.text._ZN6Thread3runEv,"axG",@progbits,_ZN6Thread3runEv,comdat
  10              		.align	2
  11              		.weak	_ZN6Thread3runEv
  13              	_ZN6Thread3runEv:
  14              	.LFB20:
  15              		.file 1 "test/../h/syscall_cpp.hpp"
   1:test/../h/syscall_cpp.hpp **** //
   2:test/../h/syscall_cpp.hpp **** // Created by basara on 19.6.24..
   3:test/../h/syscall_cpp.hpp **** //
   4:test/../h/syscall_cpp.hpp **** 
   5:test/../h/syscall_cpp.hpp **** #ifndef OS_PROJEKAT_SYSCALL_CPP_HPP
   6:test/../h/syscall_cpp.hpp **** #define OS_PROJEKAT_SYSCALL_CPP_HPP
   7:test/../h/syscall_cpp.hpp **** 
   8:test/../h/syscall_cpp.hpp **** #include "syscall_c.hpp"
   9:test/../h/syscall_cpp.hpp **** 
  10:test/../h/syscall_cpp.hpp **** 
  11:test/../h/syscall_cpp.hpp **** //void* ::operator new(size_t);
  12:test/../h/syscall_cpp.hpp **** //void ::operator delete(void*);
  13:test/../h/syscall_cpp.hpp **** 
  14:test/../h/syscall_cpp.hpp **** class Thread {
  15:test/../h/syscall_cpp.hpp **** 
  16:test/../h/syscall_cpp.hpp **** public:
  17:test/../h/syscall_cpp.hpp ****     Thread(void (*body)(void*), void* arg):body(body), arg(arg){}
  18:test/../h/syscall_cpp.hpp ****     virtual ~Thread() { thread_exit();}
  19:test/../h/syscall_cpp.hpp **** 
  20:test/../h/syscall_cpp.hpp ****     int start(){
  21:test/../h/syscall_cpp.hpp ****         if (body == nullptr){
  22:test/../h/syscall_cpp.hpp ****             thread_create(&myhandle, &threadWrapper,this);
  23:test/../h/syscall_cpp.hpp ****         }
  24:test/../h/syscall_cpp.hpp ****         else {
  25:test/../h/syscall_cpp.hpp ****             thread_create(&myhandle, body,arg);
  26:test/../h/syscall_cpp.hpp ****         }
  27:test/../h/syscall_cpp.hpp ****         return 0;
  28:test/../h/syscall_cpp.hpp ****     }
  29:test/../h/syscall_cpp.hpp **** 
  30:test/../h/syscall_cpp.hpp ****     static void dispatch() {thread_dispatch();}
  31:test/../h/syscall_cpp.hpp ****     static int sleep(time_t);
  32:test/../h/syscall_cpp.hpp **** 
  33:test/../h/syscall_cpp.hpp **** protected:
  34:test/../h/syscall_cpp.hpp ****     Thread(){};
  35:test/../h/syscall_cpp.hpp ****     virtual void run(){}
  16              		.loc 1 35 18
  17              		.cfi_startproc
  18              	.LVL0:
  19 0000 130101FF 		addi	sp,sp,-16
  20              		.cfi_def_cfa_offset 16
  21 0004 23348100 		sd	s0,8(sp)
  22              		.cfi_offset 8, -8
  23 0008 13040101 		addi	s0,sp,16
GAS LISTING /tmp/ccoLQ6A6.s 			page 2


  24              		.cfi_def_cfa 8, 0
  25              		.loc 1 35 24 is_stmt 0
  26 000c 03348100 		ld	s0,8(sp)
  27              		.cfi_restore 8
  28              		.cfi_def_cfa 2, 16
  29 0010 13010101 		addi	sp,sp,16
  30              		.cfi_def_cfa_offset 0
  31 0014 67800000 		jr	ra
  32              		.cfi_endproc
  33              	.LFE20:
  35              		.section	.text._ZN6Thread13threadWrapperEPv,"axG",@progbits,_ZN6Thread13threadWrapperEPv,comdat
  36              		.align	2
  37              		.weak	_ZN6Thread13threadWrapperEPv
  39              	_ZN6Thread13threadWrapperEPv:
  40              	.LFB21:
  36:test/../h/syscall_cpp.hpp **** 
  37:test/../h/syscall_cpp.hpp **** private:
  38:test/../h/syscall_cpp.hpp ****     static void threadWrapper(void* p){
  41              		.loc 1 38 17 is_stmt 1
  42              		.cfi_startproc
  43              	.LVL1:
  39:test/../h/syscall_cpp.hpp ****         Thread* thr = (Thread*)p;
  44              		.loc 1 39 9
  40:test/../h/syscall_cpp.hpp ****         if (thr) thr->run();
  45              		.loc 1 40 9
  46 0000 63080502 		beqz	a0,.L6
  38:test/../h/syscall_cpp.hpp ****         Thread* thr = (Thread*)p;
  47              		.loc 1 38 17 is_stmt 0 discriminator 1
  48 0004 130101FF 		addi	sp,sp,-16
  49              		.cfi_def_cfa_offset 16
  50 0008 23341100 		sd	ra,8(sp)
  51 000c 23308100 		sd	s0,0(sp)
  52              		.cfi_offset 1, -8
  53              		.cfi_offset 8, -16
  54 0010 13040101 		addi	s0,sp,16
  55              		.cfi_def_cfa 8, 0
  56              		.loc 1 40 18 is_stmt 1 discriminator 1
  57              		.loc 1 40 27 is_stmt 0 discriminator 1
  58 0014 83370500 		ld	a5,0(a0)
  59 0018 83B70701 		ld	a5,16(a5)
  60              		.loc 1 40 26 discriminator 1
  61 001c E7800700 		jalr	a5
  62              	.LVL2:
  41:test/../h/syscall_cpp.hpp ****     }
  63              		.loc 1 41 5 discriminator 1
  64 0020 83308100 		ld	ra,8(sp)
  65              		.cfi_restore 1
  66 0024 03340100 		ld	s0,0(sp)
  67              		.cfi_restore 8
  68              		.cfi_def_cfa 2, 16
  69 0028 13010101 		addi	sp,sp,16
  70              		.cfi_def_cfa_offset 0
  71 002c 67800000 		jr	ra
  72              	.LVL3:
  73              	.L6:
  74 0030 67800000 		ret
  75              		.cfi_endproc
GAS LISTING /tmp/ccoLQ6A6.s 			page 3


  76              	.LFE21:
  78              		.section	.text._ZN9SemaphoreD2Ev,"axG",@progbits,_ZN9SemaphoreD5Ev,comdat
  79              		.align	2
  80              		.weak	_ZN9SemaphoreD2Ev
  82              	_ZN9SemaphoreD2Ev:
  83              	.LFB26:
  42:test/../h/syscall_cpp.hpp **** 
  43:test/../h/syscall_cpp.hpp ****     thread_t myhandle;  //rucka do thread objekta
  44:test/../h/syscall_cpp.hpp ****     void (*body)(void*) = nullptr;
  45:test/../h/syscall_cpp.hpp ****     void* arg;
  46:test/../h/syscall_cpp.hpp **** 
  47:test/../h/syscall_cpp.hpp **** };
  48:test/../h/syscall_cpp.hpp **** 
  49:test/../h/syscall_cpp.hpp **** 
  50:test/../h/syscall_cpp.hpp **** class Semaphore{
  51:test/../h/syscall_cpp.hpp **** public:
  52:test/../h/syscall_cpp.hpp ****     Semaphore(unsigned init=1){
  53:test/../h/syscall_cpp.hpp ****         sem_open(&myHandle, init);
  54:test/../h/syscall_cpp.hpp ****     };
  55:test/../h/syscall_cpp.hpp ****     virtual ~Semaphore(){
  84              		.loc 1 55 13 is_stmt 1
  85              		.cfi_startproc
  86              		.cfi_personality 0x9b,DW.ref.__gxx_personality_v0
  87              		.cfi_lsda 0x1b,.LLSDA26
  88              	.LVL4:
  89 0000 130101FF 		addi	sp,sp,-16
  90              		.cfi_def_cfa_offset 16
  91 0004 23341100 		sd	ra,8(sp)
  92 0008 23308100 		sd	s0,0(sp)
  93              		.cfi_offset 1, -8
  94              		.cfi_offset 8, -16
  95 000c 13040101 		addi	s0,sp,16
  96              		.cfi_def_cfa 8, 0
  97              	.LBB89:
  98              		.loc 1 55 25 is_stmt 0
  99 0010 97070000 		lla	a5,_ZTV9Semaphore+16
  99      93870700 
 100 0018 2330F500 		sd	a5,0(a0)
  56:test/../h/syscall_cpp.hpp ****         sem_close(myHandle);
 101              		.loc 1 56 9 is_stmt 1
 102              		.loc 1 56 18 is_stmt 0
 103 001c 03358500 		ld	a0,8(a0)
 104              	.LVL5:
 105 0020 97000000 		call	_Z9sem_closeP4_sem
 105      E7800000 
 106              	.LVL6:
 107              	.LBE89:
  57:test/../h/syscall_cpp.hpp ****     };
 108              		.loc 1 57 5
 109 0028 83308100 		ld	ra,8(sp)
 110              		.cfi_restore 1
 111 002c 03340100 		ld	s0,0(sp)
 112              		.cfi_restore 8
 113              		.cfi_def_cfa 2, 16
 114 0030 13010101 		addi	sp,sp,16
 115              		.cfi_def_cfa_offset 0
 116 0034 67800000 		jr	ra
GAS LISTING /tmp/ccoLQ6A6.s 			page 4


 117              		.cfi_endproc
 118              	.LFE26:
 119              		.globl	__gxx_personality_v0
 120              		.section	.gcc_except_table._ZN9SemaphoreD2Ev,"awG",@progbits,_ZN9SemaphoreD5Ev,comdat
 121              	.LLSDA26:
 122 0000 FF       		.byte	0xff
 123 0001 FF       		.byte	0xff
 124 0002 03       		.byte	0x3
 125 0003 00       		.byte	0
 126              		.section	.text._ZN9SemaphoreD2Ev,"axG",@progbits,_ZN9SemaphoreD5Ev,comdat
 128              		.weak	_ZN9SemaphoreD1Ev
 129              		.set	_ZN9SemaphoreD1Ev,_ZN9SemaphoreD2Ev
 130              		.section	.text._ZN9SemaphoreD0Ev,"axG",@progbits,_ZN9SemaphoreD5Ev,comdat
 131              		.align	2
 132              		.weak	_ZN9SemaphoreD0Ev
 134              	_ZN9SemaphoreD0Ev:
 135              	.LFB28:
  55:test/../h/syscall_cpp.hpp ****         sem_close(myHandle);
 136              		.loc 1 55 13 is_stmt 1
 137              		.cfi_startproc
 138              		.cfi_personality 0x9b,DW.ref.__gxx_personality_v0
 139              		.cfi_lsda 0x1b,.LLSDA28
 140              	.LVL7:
 141 0000 130101FE 		addi	sp,sp,-32
 142              		.cfi_def_cfa_offset 32
 143 0004 233C1100 		sd	ra,24(sp)
 144 0008 23388100 		sd	s0,16(sp)
 145 000c 23349100 		sd	s1,8(sp)
 146              		.cfi_offset 1, -8
 147              		.cfi_offset 8, -16
 148              		.cfi_offset 9, -24
 149 0010 13040102 		addi	s0,sp,32
 150              		.cfi_def_cfa 8, 0
 151 0014 93040500 		mv	s1,a0
 152              	.LVL8:
 153              	.LBB90:
 154              	.LBB91:
  55:test/../h/syscall_cpp.hpp ****         sem_close(myHandle);
 155              		.loc 1 55 25 is_stmt 0
 156 0018 97070000 		lla	a5,_ZTV9Semaphore+16
 156      93870700 
 157 0020 2330F500 		sd	a5,0(a0)
  56:test/../h/syscall_cpp.hpp ****         sem_close(myHandle);
 158              		.loc 1 56 9 is_stmt 1
  56:test/../h/syscall_cpp.hpp ****         sem_close(myHandle);
 159              		.loc 1 56 18 is_stmt 0
 160 0024 03358500 		ld	a0,8(a0)
 161              	.LVL9:
 162 0028 97000000 		call	_Z9sem_closeP4_sem
 162      E7800000 
 163              	.LVL10:
 164              	.LBE91:
 165              	.LBE90:
 166              		.loc 1 57 5
 167 0030 13850400 		mv	a0,s1
 168 0034 97000000 		call	_ZdlPv
 168      E7800000 
GAS LISTING /tmp/ccoLQ6A6.s 			page 5


 169              	.LVL11:
 170 003c 83308101 		ld	ra,24(sp)
 171              		.cfi_restore 1
 172 0040 03340101 		ld	s0,16(sp)
 173              		.cfi_restore 8
 174              		.cfi_def_cfa 2, 32
 175 0044 83348100 		ld	s1,8(sp)
 176              		.cfi_restore 9
 177              	.LVL12:
 178 0048 13010102 		addi	sp,sp,32
 179              		.cfi_def_cfa_offset 0
 180 004c 67800000 		jr	ra
 181              		.cfi_endproc
 182              	.LFE28:
 183              		.section	.gcc_except_table._ZN9SemaphoreD0Ev,"awG",@progbits,_ZN9SemaphoreD5Ev,comdat
 184              	.LLSDA28:
 185 0000 FF       		.byte	0xff
 186 0001 FF       		.byte	0xff
 187 0002 03       		.byte	0x3
 188 0003 00       		.byte	0
 189              		.section	.text._ZN9SemaphoreD0Ev,"axG",@progbits,_ZN9SemaphoreD5Ev,comdat
 191              		.section	.text._ZN6ThreadD2Ev,"axG",@progbits,_ZN6ThreadD5Ev,comdat
 192              		.align	2
 193              		.weak	_ZN6ThreadD2Ev
 195              	_ZN6ThreadD2Ev:
 196              	.LFB12:
  18:test/../h/syscall_cpp.hpp **** 
 197              		.loc 1 18 13 is_stmt 1
 198              		.cfi_startproc
 199              		.cfi_personality 0x9b,DW.ref.__gxx_personality_v0
 200              		.cfi_lsda 0x1b,.LLSDA12
 201              	.LVL13:
 202 0000 130101FF 		addi	sp,sp,-16
 203              		.cfi_def_cfa_offset 16
 204 0004 23341100 		sd	ra,8(sp)
 205 0008 23308100 		sd	s0,0(sp)
 206              		.cfi_offset 1, -8
 207              		.cfi_offset 8, -16
 208 000c 13040101 		addi	s0,sp,16
 209              		.cfi_def_cfa 8, 0
 210              	.LBB92:
  18:test/../h/syscall_cpp.hpp **** 
 211              		.loc 1 18 23 is_stmt 0
 212 0010 97070000 		lla	a5,_ZTV6Thread+16
 212      93870700 
 213 0018 2330F500 		sd	a5,0(a0)
  18:test/../h/syscall_cpp.hpp **** 
 214              		.loc 1 18 25 is_stmt 1
  18:test/../h/syscall_cpp.hpp **** 
 215              		.loc 1 18 36 is_stmt 0
 216 001c 97000000 		call	_Z11thread_exitv
 216      E7800000 
 217              	.LVL14:
 218              	.LBE92:
  18:test/../h/syscall_cpp.hpp **** 
 219              		.loc 1 18 39
 220 0024 83308100 		ld	ra,8(sp)
GAS LISTING /tmp/ccoLQ6A6.s 			page 6


 221              		.cfi_restore 1
 222 0028 03340100 		ld	s0,0(sp)
 223              		.cfi_restore 8
 224              		.cfi_def_cfa 2, 16
 225 002c 13010101 		addi	sp,sp,16
 226              		.cfi_def_cfa_offset 0
 227 0030 67800000 		jr	ra
 228              		.cfi_endproc
 229              	.LFE12:
 230              		.section	.gcc_except_table._ZN6ThreadD2Ev,"awG",@progbits,_ZN6ThreadD5Ev,comdat
 231              	.LLSDA12:
 232 0000 FF       		.byte	0xff
 233 0001 FF       		.byte	0xff
 234 0002 03       		.byte	0x3
 235 0003 00       		.byte	0
 236              		.section	.text._ZN6ThreadD2Ev,"axG",@progbits,_ZN6ThreadD5Ev,comdat
 238              		.weak	_ZN6ThreadD1Ev
 239              		.set	_ZN6ThreadD1Ev,_ZN6ThreadD2Ev
 240              		.section	.text._ZN6ThreadD0Ev,"axG",@progbits,_ZN6ThreadD5Ev,comdat
 241              		.align	2
 242              		.weak	_ZN6ThreadD0Ev
 244              	_ZN6ThreadD0Ev:
 245              	.LFB14:
  18:test/../h/syscall_cpp.hpp **** 
 246              		.loc 1 18 13 is_stmt 1
 247              		.cfi_startproc
 248              		.cfi_personality 0x9b,DW.ref.__gxx_personality_v0
 249              		.cfi_lsda 0x1b,.LLSDA14
 250              	.LVL15:
 251 0000 130101FE 		addi	sp,sp,-32
 252              		.cfi_def_cfa_offset 32
 253 0004 233C1100 		sd	ra,24(sp)
 254 0008 23388100 		sd	s0,16(sp)
 255 000c 23349100 		sd	s1,8(sp)
 256              		.cfi_offset 1, -8
 257              		.cfi_offset 8, -16
 258              		.cfi_offset 9, -24
 259 0010 13040102 		addi	s0,sp,32
 260              		.cfi_def_cfa 8, 0
 261 0014 93040500 		mv	s1,a0
 262              	.LVL16:
 263              	.LBB93:
 264              	.LBB94:
  18:test/../h/syscall_cpp.hpp **** 
 265              		.loc 1 18 23 is_stmt 0
 266 0018 97070000 		lla	a5,_ZTV6Thread+16
 266      93870700 
 267 0020 2330F500 		sd	a5,0(a0)
  18:test/../h/syscall_cpp.hpp **** 
 268              		.loc 1 18 25 is_stmt 1
  18:test/../h/syscall_cpp.hpp **** 
 269              		.loc 1 18 36 is_stmt 0
 270 0024 97000000 		call	_Z11thread_exitv
 270      E7800000 
 271              	.LVL17:
 272              	.LBE94:
 273              	.LBE93:
GAS LISTING /tmp/ccoLQ6A6.s 			page 7


  18:test/../h/syscall_cpp.hpp **** 
 274              		.loc 1 18 39
 275 002c 13850400 		mv	a0,s1
 276 0030 97000000 		call	_ZdlPv
 276      E7800000 
 277              	.LVL18:
 278 0038 83308101 		ld	ra,24(sp)
 279              		.cfi_restore 1
 280 003c 03340101 		ld	s0,16(sp)
 281              		.cfi_restore 8
 282              		.cfi_def_cfa 2, 32
 283 0040 83348100 		ld	s1,8(sp)
 284              		.cfi_restore 9
 285              	.LVL19:
 286 0044 13010102 		addi	sp,sp,32
 287              		.cfi_def_cfa_offset 0
 288 0048 67800000 		jr	ra
 289              		.cfi_endproc
 290              	.LFE14:
 291              		.section	.gcc_except_table._ZN6ThreadD0Ev,"awG",@progbits,_ZN6ThreadD5Ev,comdat
 292              	.LLSDA14:
 293 0000 FF       		.byte	0xff
 294 0001 FF       		.byte	0xff
 295 0002 03       		.byte	0x3
 296 0003 00       		.byte	0
 297              		.section	.text._ZN6ThreadD0Ev,"axG",@progbits,_ZN6ThreadD5Ev,comdat
 299              		.section	.text._ZN12ConsumerSyncD2Ev,"axG",@progbits,_ZN12ConsumerSyncD5Ev,comdat
 300              		.align	2
 301              		.weak	_ZN12ConsumerSyncD2Ev
 303              	_ZN12ConsumerSyncD2Ev:
 304              	.LFB50:
 305              		.file 2 "test/ConsumerProducer_CPP_Sync_API_test.cpp"
   1:test/ConsumerProducer_CPP_Sync_API_test.cpp **** #include "../h/syscall_cpp.hpp"
   2:test/ConsumerProducer_CPP_Sync_API_test.cpp **** 
   3:test/ConsumerProducer_CPP_Sync_API_test.cpp **** #include "buffer_CPP_API.hpp"
   4:test/ConsumerProducer_CPP_Sync_API_test.cpp **** 
   5:test/ConsumerProducer_CPP_Sync_API_test.cpp **** static Semaphore* waitForAll;
   6:test/ConsumerProducer_CPP_Sync_API_test.cpp **** 
   7:test/ConsumerProducer_CPP_Sync_API_test.cpp **** struct thread_data {
   8:test/ConsumerProducer_CPP_Sync_API_test.cpp ****     int id;
   9:test/ConsumerProducer_CPP_Sync_API_test.cpp ****     BufferCPP *buffer;
  10:test/ConsumerProducer_CPP_Sync_API_test.cpp ****     Semaphore* wait;
  11:test/ConsumerProducer_CPP_Sync_API_test.cpp **** };
  12:test/ConsumerProducer_CPP_Sync_API_test.cpp **** 
  13:test/ConsumerProducer_CPP_Sync_API_test.cpp **** static volatile int threadEnd = 0;
  14:test/ConsumerProducer_CPP_Sync_API_test.cpp **** 
  15:test/ConsumerProducer_CPP_Sync_API_test.cpp **** class ProducerKeyboard:public Thread {
  16:test/ConsumerProducer_CPP_Sync_API_test.cpp ****     thread_data* td;
  17:test/ConsumerProducer_CPP_Sync_API_test.cpp ****     void producerKeyboard(void *arg);
  18:test/ConsumerProducer_CPP_Sync_API_test.cpp **** public:
  19:test/ConsumerProducer_CPP_Sync_API_test.cpp ****     ProducerKeyboard(thread_data* _td):Thread(), td(_td) {}
  20:test/ConsumerProducer_CPP_Sync_API_test.cpp **** 
  21:test/ConsumerProducer_CPP_Sync_API_test.cpp ****     void run() override {
  22:test/ConsumerProducer_CPP_Sync_API_test.cpp ****         producerKeyboard(td);
  23:test/ConsumerProducer_CPP_Sync_API_test.cpp ****     }
  24:test/ConsumerProducer_CPP_Sync_API_test.cpp **** };
  25:test/ConsumerProducer_CPP_Sync_API_test.cpp **** 
GAS LISTING /tmp/ccoLQ6A6.s 			page 8


  26:test/ConsumerProducer_CPP_Sync_API_test.cpp **** void ProducerKeyboard::producerKeyboard(void *arg) {
  27:test/ConsumerProducer_CPP_Sync_API_test.cpp ****     struct thread_data *data = (struct thread_data *) arg;
  28:test/ConsumerProducer_CPP_Sync_API_test.cpp **** 
  29:test/ConsumerProducer_CPP_Sync_API_test.cpp ****     int key;
  30:test/ConsumerProducer_CPP_Sync_API_test.cpp ****     int i = 0;
  31:test/ConsumerProducer_CPP_Sync_API_test.cpp ****     while ((key = getc()) != 0x1b) {
  32:test/ConsumerProducer_CPP_Sync_API_test.cpp ****         data->buffer->put(key);
  33:test/ConsumerProducer_CPP_Sync_API_test.cpp ****         i++;
  34:test/ConsumerProducer_CPP_Sync_API_test.cpp **** 
  35:test/ConsumerProducer_CPP_Sync_API_test.cpp ****         if (i % (10 * data->id) == 0) {
  36:test/ConsumerProducer_CPP_Sync_API_test.cpp ****             Thread::dispatch();
  37:test/ConsumerProducer_CPP_Sync_API_test.cpp ****         }
  38:test/ConsumerProducer_CPP_Sync_API_test.cpp ****     }
  39:test/ConsumerProducer_CPP_Sync_API_test.cpp **** 
  40:test/ConsumerProducer_CPP_Sync_API_test.cpp ****     threadEnd = 1;
  41:test/ConsumerProducer_CPP_Sync_API_test.cpp ****     td->buffer->put('!');
  42:test/ConsumerProducer_CPP_Sync_API_test.cpp **** 
  43:test/ConsumerProducer_CPP_Sync_API_test.cpp ****     data->wait->signal();
  44:test/ConsumerProducer_CPP_Sync_API_test.cpp **** }
  45:test/ConsumerProducer_CPP_Sync_API_test.cpp **** 
  46:test/ConsumerProducer_CPP_Sync_API_test.cpp **** class ProducerSync:public Thread {
  47:test/ConsumerProducer_CPP_Sync_API_test.cpp ****     thread_data* td;
  48:test/ConsumerProducer_CPP_Sync_API_test.cpp ****     void producer(void *arg);
  49:test/ConsumerProducer_CPP_Sync_API_test.cpp **** public:
  50:test/ConsumerProducer_CPP_Sync_API_test.cpp ****     ProducerSync(thread_data* _td):Thread(), td(_td) {}
  51:test/ConsumerProducer_CPP_Sync_API_test.cpp **** 
  52:test/ConsumerProducer_CPP_Sync_API_test.cpp ****     void run() override {
  53:test/ConsumerProducer_CPP_Sync_API_test.cpp ****         producer(td);
  54:test/ConsumerProducer_CPP_Sync_API_test.cpp ****     }
  55:test/ConsumerProducer_CPP_Sync_API_test.cpp **** };
  56:test/ConsumerProducer_CPP_Sync_API_test.cpp **** 
  57:test/ConsumerProducer_CPP_Sync_API_test.cpp **** void ProducerSync::producer(void *arg) {
  58:test/ConsumerProducer_CPP_Sync_API_test.cpp ****     struct thread_data *data = (struct thread_data *) arg;
  59:test/ConsumerProducer_CPP_Sync_API_test.cpp **** 
  60:test/ConsumerProducer_CPP_Sync_API_test.cpp ****     int i = 0;
  61:test/ConsumerProducer_CPP_Sync_API_test.cpp ****     while (!threadEnd) {
  62:test/ConsumerProducer_CPP_Sync_API_test.cpp ****         data->buffer->put(data->id + '0');
  63:test/ConsumerProducer_CPP_Sync_API_test.cpp ****         i++;
  64:test/ConsumerProducer_CPP_Sync_API_test.cpp **** 
  65:test/ConsumerProducer_CPP_Sync_API_test.cpp ****         if (i % (10 * data->id) == 0) {
  66:test/ConsumerProducer_CPP_Sync_API_test.cpp ****             Thread::dispatch();
  67:test/ConsumerProducer_CPP_Sync_API_test.cpp ****         }
  68:test/ConsumerProducer_CPP_Sync_API_test.cpp ****     }
  69:test/ConsumerProducer_CPP_Sync_API_test.cpp **** 
  70:test/ConsumerProducer_CPP_Sync_API_test.cpp ****     data->wait->signal();
  71:test/ConsumerProducer_CPP_Sync_API_test.cpp **** }
  72:test/ConsumerProducer_CPP_Sync_API_test.cpp **** 
  73:test/ConsumerProducer_CPP_Sync_API_test.cpp **** class ConsumerSync:public Thread {
 306              		.loc 2 73 7 is_stmt 1
 307              		.cfi_startproc
 308              		.cfi_personality 0x9b,DW.ref.__gxx_personality_v0
 309              		.cfi_lsda 0x1b,.LLSDA50
 310              	.LVL20:
 311 0000 130101FF 		addi	sp,sp,-16
 312              		.cfi_def_cfa_offset 16
 313 0004 23341100 		sd	ra,8(sp)
 314 0008 23308100 		sd	s0,0(sp)
GAS LISTING /tmp/ccoLQ6A6.s 			page 9


 315              		.cfi_offset 1, -8
 316              		.cfi_offset 8, -16
 317 000c 13040101 		addi	s0,sp,16
 318              		.cfi_def_cfa 8, 0
 319              	.LVL21:
 320              	.LBB95:
 321              	.LBB96:
  18:test/../h/syscall_cpp.hpp **** 
 322              		.loc 1 18 23 is_stmt 0
 323 0010 97070000 		lla	a5,_ZTV6Thread+16
 323      93870700 
 324 0018 2330F500 		sd	a5,0(a0)
  18:test/../h/syscall_cpp.hpp **** 
 325              		.loc 1 18 25 is_stmt 1
  18:test/../h/syscall_cpp.hpp **** 
 326              		.loc 1 18 36 is_stmt 0
 327 001c 97000000 		call	_Z11thread_exitv
 327      E7800000 
 328              	.LVL22:
 329              	.LBE96:
 330              	.LBE95:
 331              		.loc 2 73 7
 332 0024 83308100 		ld	ra,8(sp)
 333              		.cfi_restore 1
 334 0028 03340100 		ld	s0,0(sp)
 335              		.cfi_restore 8
 336              		.cfi_def_cfa 2, 16
 337 002c 13010101 		addi	sp,sp,16
 338              		.cfi_def_cfa_offset 0
 339 0030 67800000 		jr	ra
 340              		.cfi_endproc
 341              	.LFE50:
 342              		.section	.gcc_except_table._ZN12ConsumerSyncD2Ev,"awG",@progbits,_ZN12ConsumerSyncD5Ev,comdat
 343              	.LLSDA50:
 344 0000 FF       		.byte	0xff
 345 0001 FF       		.byte	0xff
 346 0002 03       		.byte	0x3
 347 0003 00       		.byte	0
 348              		.section	.text._ZN12ConsumerSyncD2Ev,"axG",@progbits,_ZN12ConsumerSyncD5Ev,comdat
 350              		.weak	_ZN12ConsumerSyncD1Ev
 351              		.set	_ZN12ConsumerSyncD1Ev,_ZN12ConsumerSyncD2Ev
 352              		.section	.text._ZN12ConsumerSyncD0Ev,"axG",@progbits,_ZN12ConsumerSyncD5Ev,comdat
 353              		.align	2
 354              		.weak	_ZN12ConsumerSyncD0Ev
 356              	_ZN12ConsumerSyncD0Ev:
 357              	.LFB52:
 358              		.loc 2 73 7 is_stmt 1
 359              		.cfi_startproc
 360              		.cfi_personality 0x9b,DW.ref.__gxx_personality_v0
 361              		.cfi_lsda 0x1b,.LLSDA52
 362              	.LVL23:
 363 0000 130101FE 		addi	sp,sp,-32
 364              		.cfi_def_cfa_offset 32
 365 0004 233C1100 		sd	ra,24(sp)
 366 0008 23388100 		sd	s0,16(sp)
 367 000c 23349100 		sd	s1,8(sp)
 368              		.cfi_offset 1, -8
GAS LISTING /tmp/ccoLQ6A6.s 			page 10


 369              		.cfi_offset 8, -16
 370              		.cfi_offset 9, -24
 371 0010 13040102 		addi	s0,sp,32
 372              		.cfi_def_cfa 8, 0
 373 0014 93040500 		mv	s1,a0
 374              	.LVL24:
 375              	.LBB97:
 376              	.LBB98:
 377              	.LBB99:
  18:test/../h/syscall_cpp.hpp **** 
 378              		.loc 1 18 23 is_stmt 0
 379 0018 97070000 		lla	a5,_ZTV6Thread+16
 379      93870700 
 380 0020 2330F500 		sd	a5,0(a0)
  18:test/../h/syscall_cpp.hpp **** 
 381              		.loc 1 18 25 is_stmt 1
  18:test/../h/syscall_cpp.hpp **** 
 382              		.loc 1 18 36 is_stmt 0
 383 0024 97000000 		call	_Z11thread_exitv
 383      E7800000 
 384              	.LVL25:
 385              	.LBE99:
 386              	.LBE98:
 387              	.LBE97:
 388              		.loc 2 73 7
 389 002c 13850400 		mv	a0,s1
 390 0030 97000000 		call	_ZdlPv
 390      E7800000 
 391              	.LVL26:
 392 0038 83308101 		ld	ra,24(sp)
 393              		.cfi_restore 1
 394 003c 03340101 		ld	s0,16(sp)
 395              		.cfi_restore 8
 396              		.cfi_def_cfa 2, 32
 397 0040 83348100 		ld	s1,8(sp)
 398              		.cfi_restore 9
 399              	.LVL27:
 400 0044 13010102 		addi	sp,sp,32
 401              		.cfi_def_cfa_offset 0
 402 0048 67800000 		jr	ra
 403              		.cfi_endproc
 404              	.LFE52:
 405              		.section	.gcc_except_table._ZN12ConsumerSyncD0Ev,"awG",@progbits,_ZN12ConsumerSyncD5Ev,comdat
 406              	.LLSDA52:
 407 0000 FF       		.byte	0xff
 408 0001 FF       		.byte	0xff
 409 0002 03       		.byte	0x3
 410 0003 00       		.byte	0
 411              		.section	.text._ZN12ConsumerSyncD0Ev,"axG",@progbits,_ZN12ConsumerSyncD5Ev,comdat
 413              		.section	.text._ZN12ProducerSyncD2Ev,"axG",@progbits,_ZN12ProducerSyncD5Ev,comdat
 414              		.align	2
 415              		.weak	_ZN12ProducerSyncD2Ev
 417              	_ZN12ProducerSyncD2Ev:
 418              	.LFB54:
  46:test/ConsumerProducer_CPP_Sync_API_test.cpp ****     thread_data* td;
 419              		.loc 2 46 7 is_stmt 1
 420              		.cfi_startproc
GAS LISTING /tmp/ccoLQ6A6.s 			page 11


 421              		.cfi_personality 0x9b,DW.ref.__gxx_personality_v0
 422              		.cfi_lsda 0x1b,.LLSDA54
 423              	.LVL28:
 424 0000 130101FF 		addi	sp,sp,-16
 425              		.cfi_def_cfa_offset 16
 426 0004 23341100 		sd	ra,8(sp)
 427 0008 23308100 		sd	s0,0(sp)
 428              		.cfi_offset 1, -8
 429              		.cfi_offset 8, -16
 430 000c 13040101 		addi	s0,sp,16
 431              		.cfi_def_cfa 8, 0
 432              	.LVL29:
 433              	.LBB100:
 434              	.LBB101:
  18:test/../h/syscall_cpp.hpp **** 
 435              		.loc 1 18 23 is_stmt 0
 436 0010 97070000 		lla	a5,_ZTV6Thread+16
 436      93870700 
 437 0018 2330F500 		sd	a5,0(a0)
  18:test/../h/syscall_cpp.hpp **** 
 438              		.loc 1 18 25 is_stmt 1
  18:test/../h/syscall_cpp.hpp **** 
 439              		.loc 1 18 36 is_stmt 0
 440 001c 97000000 		call	_Z11thread_exitv
 440      E7800000 
 441              	.LVL30:
 442              	.LBE101:
 443              	.LBE100:
  46:test/ConsumerProducer_CPP_Sync_API_test.cpp ****     thread_data* td;
 444              		.loc 2 46 7
 445 0024 83308100 		ld	ra,8(sp)
 446              		.cfi_restore 1
 447 0028 03340100 		ld	s0,0(sp)
 448              		.cfi_restore 8
 449              		.cfi_def_cfa 2, 16
 450 002c 13010101 		addi	sp,sp,16
 451              		.cfi_def_cfa_offset 0
 452 0030 67800000 		jr	ra
 453              		.cfi_endproc
 454              	.LFE54:
 455              		.section	.gcc_except_table._ZN12ProducerSyncD2Ev,"awG",@progbits,_ZN12ProducerSyncD5Ev,comdat
 456              	.LLSDA54:
 457 0000 FF       		.byte	0xff
 458 0001 FF       		.byte	0xff
 459 0002 03       		.byte	0x3
 460 0003 00       		.byte	0
 461              		.section	.text._ZN12ProducerSyncD2Ev,"axG",@progbits,_ZN12ProducerSyncD5Ev,comdat
 463              		.weak	_ZN12ProducerSyncD1Ev
 464              		.set	_ZN12ProducerSyncD1Ev,_ZN12ProducerSyncD2Ev
 465              		.section	.text._ZN12ProducerSyncD0Ev,"axG",@progbits,_ZN12ProducerSyncD5Ev,comdat
 466              		.align	2
 467              		.weak	_ZN12ProducerSyncD0Ev
 469              	_ZN12ProducerSyncD0Ev:
 470              	.LFB56:
  46:test/ConsumerProducer_CPP_Sync_API_test.cpp ****     thread_data* td;
 471              		.loc 2 46 7 is_stmt 1
 472              		.cfi_startproc
GAS LISTING /tmp/ccoLQ6A6.s 			page 12


 473              		.cfi_personality 0x9b,DW.ref.__gxx_personality_v0
 474              		.cfi_lsda 0x1b,.LLSDA56
 475              	.LVL31:
 476 0000 130101FE 		addi	sp,sp,-32
 477              		.cfi_def_cfa_offset 32
 478 0004 233C1100 		sd	ra,24(sp)
 479 0008 23388100 		sd	s0,16(sp)
 480 000c 23349100 		sd	s1,8(sp)
 481              		.cfi_offset 1, -8
 482              		.cfi_offset 8, -16
 483              		.cfi_offset 9, -24
 484 0010 13040102 		addi	s0,sp,32
 485              		.cfi_def_cfa 8, 0
 486 0014 93040500 		mv	s1,a0
 487              	.LVL32:
 488              	.LBB102:
 489              	.LBB103:
 490              	.LBB104:
  18:test/../h/syscall_cpp.hpp **** 
 491              		.loc 1 18 23 is_stmt 0
 492 0018 97070000 		lla	a5,_ZTV6Thread+16
 492      93870700 
 493 0020 2330F500 		sd	a5,0(a0)
  18:test/../h/syscall_cpp.hpp **** 
 494              		.loc 1 18 25 is_stmt 1
  18:test/../h/syscall_cpp.hpp **** 
 495              		.loc 1 18 36 is_stmt 0
 496 0024 97000000 		call	_Z11thread_exitv
 496      E7800000 
 497              	.LVL33:
 498              	.LBE104:
 499              	.LBE103:
 500              	.LBE102:
  46:test/ConsumerProducer_CPP_Sync_API_test.cpp ****     thread_data* td;
 501              		.loc 2 46 7
 502 002c 13850400 		mv	a0,s1
 503 0030 97000000 		call	_ZdlPv
 503      E7800000 
 504              	.LVL34:
 505 0038 83308101 		ld	ra,24(sp)
 506              		.cfi_restore 1
 507 003c 03340101 		ld	s0,16(sp)
 508              		.cfi_restore 8
 509              		.cfi_def_cfa 2, 32
 510 0040 83348100 		ld	s1,8(sp)
 511              		.cfi_restore 9
 512              	.LVL35:
 513 0044 13010102 		addi	sp,sp,32
 514              		.cfi_def_cfa_offset 0
 515 0048 67800000 		jr	ra
 516              		.cfi_endproc
 517              	.LFE56:
 518              		.section	.gcc_except_table._ZN12ProducerSyncD0Ev,"awG",@progbits,_ZN12ProducerSyncD5Ev,comdat
 519              	.LLSDA56:
 520 0000 FF       		.byte	0xff
 521 0001 FF       		.byte	0xff
 522 0002 03       		.byte	0x3
GAS LISTING /tmp/ccoLQ6A6.s 			page 13


 523 0003 00       		.byte	0
 524              		.section	.text._ZN12ProducerSyncD0Ev,"axG",@progbits,_ZN12ProducerSyncD5Ev,comdat
 526              		.section	.text._ZN16ProducerKeyboardD2Ev,"axG",@progbits,_ZN16ProducerKeyboardD5Ev,comdat
 527              		.align	2
 528              		.weak	_ZN16ProducerKeyboardD2Ev
 530              	_ZN16ProducerKeyboardD2Ev:
 531              	.LFB58:
  15:test/ConsumerProducer_CPP_Sync_API_test.cpp ****     thread_data* td;
 532              		.loc 2 15 7 is_stmt 1
 533              		.cfi_startproc
 534              		.cfi_personality 0x9b,DW.ref.__gxx_personality_v0
 535              		.cfi_lsda 0x1b,.LLSDA58
 536              	.LVL36:
 537 0000 130101FF 		addi	sp,sp,-16
 538              		.cfi_def_cfa_offset 16
 539 0004 23341100 		sd	ra,8(sp)
 540 0008 23308100 		sd	s0,0(sp)
 541              		.cfi_offset 1, -8
 542              		.cfi_offset 8, -16
 543 000c 13040101 		addi	s0,sp,16
 544              		.cfi_def_cfa 8, 0
 545              	.LVL37:
 546              	.LBB105:
 547              	.LBB106:
  18:test/../h/syscall_cpp.hpp **** 
 548              		.loc 1 18 23 is_stmt 0
 549 0010 97070000 		lla	a5,_ZTV6Thread+16
 549      93870700 
 550 0018 2330F500 		sd	a5,0(a0)
  18:test/../h/syscall_cpp.hpp **** 
 551              		.loc 1 18 25 is_stmt 1
  18:test/../h/syscall_cpp.hpp **** 
 552              		.loc 1 18 36 is_stmt 0
 553 001c 97000000 		call	_Z11thread_exitv
 553      E7800000 
 554              	.LVL38:
 555              	.LBE106:
 556              	.LBE105:
  15:test/ConsumerProducer_CPP_Sync_API_test.cpp ****     thread_data* td;
 557              		.loc 2 15 7
 558 0024 83308100 		ld	ra,8(sp)
 559              		.cfi_restore 1
 560 0028 03340100 		ld	s0,0(sp)
 561              		.cfi_restore 8
 562              		.cfi_def_cfa 2, 16
 563 002c 13010101 		addi	sp,sp,16
 564              		.cfi_def_cfa_offset 0
 565 0030 67800000 		jr	ra
 566              		.cfi_endproc
 567              	.LFE58:
 568              		.section	.gcc_except_table._ZN16ProducerKeyboardD2Ev,"awG",@progbits,_ZN16ProducerKeyboardD5Ev,com
 569              	.LLSDA58:
 570 0000 FF       		.byte	0xff
 571 0001 FF       		.byte	0xff
 572 0002 03       		.byte	0x3
 573 0003 00       		.byte	0
 574              		.section	.text._ZN16ProducerKeyboardD2Ev,"axG",@progbits,_ZN16ProducerKeyboardD5Ev,comdat
GAS LISTING /tmp/ccoLQ6A6.s 			page 14


 576              		.weak	_ZN16ProducerKeyboardD1Ev
 577              		.set	_ZN16ProducerKeyboardD1Ev,_ZN16ProducerKeyboardD2Ev
 578              		.section	.text._ZN16ProducerKeyboardD0Ev,"axG",@progbits,_ZN16ProducerKeyboardD5Ev,comdat
 579              		.align	2
 580              		.weak	_ZN16ProducerKeyboardD0Ev
 582              	_ZN16ProducerKeyboardD0Ev:
 583              	.LFB60:
  15:test/ConsumerProducer_CPP_Sync_API_test.cpp ****     thread_data* td;
 584              		.loc 2 15 7 is_stmt 1
 585              		.cfi_startproc
 586              		.cfi_personality 0x9b,DW.ref.__gxx_personality_v0
 587              		.cfi_lsda 0x1b,.LLSDA60
 588              	.LVL39:
 589 0000 130101FE 		addi	sp,sp,-32
 590              		.cfi_def_cfa_offset 32
 591 0004 233C1100 		sd	ra,24(sp)
 592 0008 23388100 		sd	s0,16(sp)
 593 000c 23349100 		sd	s1,8(sp)
 594              		.cfi_offset 1, -8
 595              		.cfi_offset 8, -16
 596              		.cfi_offset 9, -24
 597 0010 13040102 		addi	s0,sp,32
 598              		.cfi_def_cfa 8, 0
 599 0014 93040500 		mv	s1,a0
 600              	.LVL40:
 601              	.LBB107:
 602              	.LBB108:
 603              	.LBB109:
  18:test/../h/syscall_cpp.hpp **** 
 604              		.loc 1 18 23 is_stmt 0
 605 0018 97070000 		lla	a5,_ZTV6Thread+16
 605      93870700 
 606 0020 2330F500 		sd	a5,0(a0)
  18:test/../h/syscall_cpp.hpp **** 
 607              		.loc 1 18 25 is_stmt 1
  18:test/../h/syscall_cpp.hpp **** 
 608              		.loc 1 18 36 is_stmt 0
 609 0024 97000000 		call	_Z11thread_exitv
 609      E7800000 
 610              	.LVL41:
 611              	.LBE109:
 612              	.LBE108:
 613              	.LBE107:
  15:test/ConsumerProducer_CPP_Sync_API_test.cpp ****     thread_data* td;
 614              		.loc 2 15 7
 615 002c 13850400 		mv	a0,s1
 616 0030 97000000 		call	_ZdlPv
 616      E7800000 
 617              	.LVL42:
 618 0038 83308101 		ld	ra,24(sp)
 619              		.cfi_restore 1
 620 003c 03340101 		ld	s0,16(sp)
 621              		.cfi_restore 8
 622              		.cfi_def_cfa 2, 32
 623 0040 83348100 		ld	s1,8(sp)
 624              		.cfi_restore 9
 625              	.LVL43:
GAS LISTING /tmp/ccoLQ6A6.s 			page 15


 626 0044 13010102 		addi	sp,sp,32
 627              		.cfi_def_cfa_offset 0
 628 0048 67800000 		jr	ra
 629              		.cfi_endproc
 630              	.LFE60:
 631              		.section	.gcc_except_table._ZN16ProducerKeyboardD0Ev,"awG",@progbits,_ZN16ProducerKeyboardD5Ev,com
 632              	.LLSDA60:
 633 0000 FF       		.byte	0xff
 634 0001 FF       		.byte	0xff
 635 0002 03       		.byte	0x3
 636 0003 00       		.byte	0
 637              		.section	.text._ZN16ProducerKeyboardD0Ev,"axG",@progbits,_ZN16ProducerKeyboardD5Ev,comdat
 639              		.text
 640              		.align	2
 641              		.globl	_ZN16ProducerKeyboard16producerKeyboardEPv
 643              	_ZN16ProducerKeyboard16producerKeyboardEPv:
 644              	.LFB37:
  26:test/ConsumerProducer_CPP_Sync_API_test.cpp ****     struct thread_data *data = (struct thread_data *) arg;
 645              		.loc 2 26 52 is_stmt 1
 646              		.cfi_startproc
 647              	.LVL44:
 648 0000 130101FD 		addi	sp,sp,-48
 649              		.cfi_def_cfa_offset 48
 650 0004 23341102 		sd	ra,40(sp)
 651 0008 23308102 		sd	s0,32(sp)
 652 000c 233C9100 		sd	s1,24(sp)
 653 0010 23382101 		sd	s2,16(sp)
 654 0014 23343101 		sd	s3,8(sp)
 655              		.cfi_offset 1, -8
 656              		.cfi_offset 8, -16
 657              		.cfi_offset 9, -24
 658              		.cfi_offset 18, -32
 659              		.cfi_offset 19, -40
 660 0018 13040103 		addi	s0,sp,48
 661              		.cfi_def_cfa 8, 0
 662 001c 93090500 		mv	s3,a0
 663 0020 93840500 		mv	s1,a1
  27:test/ConsumerProducer_CPP_Sync_API_test.cpp **** 
 664              		.loc 2 27 5
 665              	.LVL45:
  29:test/ConsumerProducer_CPP_Sync_API_test.cpp ****     int i = 0;
 666              		.loc 2 29 5
  30:test/ConsumerProducer_CPP_Sync_API_test.cpp ****     while ((key = getc()) != 0x1b) {
 667              		.loc 2 30 5
  30:test/ConsumerProducer_CPP_Sync_API_test.cpp ****     while ((key = getc()) != 0x1b) {
 668              		.loc 2 30 9 is_stmt 0
 669 0024 13090000 		li	s2,0
 670 0028 6F00C000 		j	.L30
 671              	.LVL46:
 672              	.L34:
  36:test/ConsumerProducer_CPP_Sync_API_test.cpp ****         }
 673              		.loc 2 36 13 is_stmt 1
 674              	.LBB110:
 675              	.LBB111:
  30:test/../h/syscall_cpp.hpp ****     static int sleep(time_t);
 676              		.loc 1 30 29
  30:test/../h/syscall_cpp.hpp ****     static int sleep(time_t);
GAS LISTING /tmp/ccoLQ6A6.s 			page 16


 677              		.loc 1 30 44 is_stmt 0
 678 002c 97000000 		call	_Z15thread_dispatchv
 678      E7800000 
 679              	.LVL47:
 680              	.L30:
 681              	.LBE111:
 682              	.LBE110:
  31:test/ConsumerProducer_CPP_Sync_API_test.cpp ****         data->buffer->put(key);
 683              		.loc 2 31 5 is_stmt 1
  31:test/ConsumerProducer_CPP_Sync_API_test.cpp ****         data->buffer->put(key);
 684              		.loc 2 31 27
  31:test/ConsumerProducer_CPP_Sync_API_test.cpp ****         data->buffer->put(key);
 685              		.loc 2 31 23 is_stmt 0
 686 0034 97000000 		call	_Z4getcv
 686      E7800000 
 687              	.LVL48:
  31:test/ConsumerProducer_CPP_Sync_API_test.cpp ****         data->buffer->put(key);
 688              		.loc 2 31 17
 689 003c 9B050500 		sext.w	a1,a0
 690              	.LVL49:
  31:test/ConsumerProducer_CPP_Sync_API_test.cpp ****         data->buffer->put(key);
 691              		.loc 2 31 27
 692 0040 9307B001 		li	a5,27
 693 0044 638AF502 		beq	a1,a5,.L31
  32:test/ConsumerProducer_CPP_Sync_API_test.cpp ****         i++;
 694              		.loc 2 32 9 is_stmt 1
  32:test/ConsumerProducer_CPP_Sync_API_test.cpp ****         i++;
 695              		.loc 2 32 26 is_stmt 0
 696 0048 03B58400 		ld	a0,8(s1)
 697 004c 97000000 		call	_ZN9BufferCPP3putEi
 697      E7800000 
 698              	.LVL50:
  33:test/ConsumerProducer_CPP_Sync_API_test.cpp **** 
 699              		.loc 2 33 9 is_stmt 1
  33:test/ConsumerProducer_CPP_Sync_API_test.cpp **** 
 700              		.loc 2 33 10 is_stmt 0
 701 0054 1B071900 		addiw	a4,s2,1
 702 0058 1B090700 		sext.w	s2,a4
 703              	.LVL51:
  35:test/ConsumerProducer_CPP_Sync_API_test.cpp ****             Thread::dispatch();
 704              		.loc 2 35 9 is_stmt 1
  35:test/ConsumerProducer_CPP_Sync_API_test.cpp ****             Thread::dispatch();
 705              		.loc 2 35 29 is_stmt 0
 706 005c 83A60400 		lw	a3,0(s1)
  35:test/ConsumerProducer_CPP_Sync_API_test.cpp ****             Thread::dispatch();
 707              		.loc 2 35 21
 708 0060 9B972600 		slliw	a5,a3,2
 709 0064 BB87D700 		addw	a5,a5,a3
 710 0068 9B971700 		slliw	a5,a5,1
  35:test/ConsumerProducer_CPP_Sync_API_test.cpp ****             Thread::dispatch();
 711              		.loc 2 35 15
 712 006c BB67F702 		remw	a5,a4,a5
  35:test/ConsumerProducer_CPP_Sync_API_test.cpp ****             Thread::dispatch();
 713              		.loc 2 35 9
 714 0070 E39207FC 		bnez	a5,.L30
 715 0074 6FF09FFB 		j	.L34
 716              	.LVL52:
GAS LISTING /tmp/ccoLQ6A6.s 			page 17


 717              	.L31:
  40:test/ConsumerProducer_CPP_Sync_API_test.cpp ****     td->buffer->put('!');
 718              		.loc 2 40 5 is_stmt 1
  40:test/ConsumerProducer_CPP_Sync_API_test.cpp ****     td->buffer->put('!');
 719              		.loc 2 40 15 is_stmt 0
 720 0078 93071000 		li	a5,1
 721 007c 17070000 		sw	a5,_ZL9threadEnd,a4
 721      2320F700 
  41:test/ConsumerProducer_CPP_Sync_API_test.cpp **** 
 722              		.loc 2 41 5 is_stmt 1
 723 0084 83B70902 		ld	a5,32(s3)
  41:test/ConsumerProducer_CPP_Sync_API_test.cpp **** 
 724              		.loc 2 41 20 is_stmt 0
 725 0088 93051002 		li	a1,33
 726              	.LVL53:
 727 008c 03B58700 		ld	a0,8(a5)
 728              	.LVL54:
 729 0090 97000000 		call	_ZN9BufferCPP3putEi
 729      E7800000 
 730              	.LVL55:
  43:test/ConsumerProducer_CPP_Sync_API_test.cpp **** }
 731              		.loc 2 43 5 is_stmt 1
  43:test/ConsumerProducer_CPP_Sync_API_test.cpp **** }
 732              		.loc 2 43 11 is_stmt 0
 733 0098 83B70401 		ld	a5,16(s1)
 734              	.LVL56:
 735              	.LBB112:
 736              	.LBB113:
  58:test/../h/syscall_cpp.hpp **** 
  59:test/../h/syscall_cpp.hpp ****     int wait(){
  60:test/../h/syscall_cpp.hpp ****         return sem_wait(myHandle);
  61:test/../h/syscall_cpp.hpp ****     }
  62:test/../h/syscall_cpp.hpp ****     int signal(){
  63:test/../h/syscall_cpp.hpp ****         return sem_signal(myHandle);
 737              		.loc 1 63 9 is_stmt 1
 738              		.loc 1 63 26 is_stmt 0
 739 009c 03B58700 		ld	a0,8(a5)
 740 00a0 97000000 		call	_Z10sem_signalP4_sem
 740      E7800000 
 741              	.LVL57:
 742              	.LBE113:
 743              	.LBE112:
  44:test/ConsumerProducer_CPP_Sync_API_test.cpp **** 
 744              		.loc 2 44 1
 745 00a8 83308102 		ld	ra,40(sp)
 746              		.cfi_restore 1
 747 00ac 03340102 		ld	s0,32(sp)
 748              		.cfi_restore 8
 749              		.cfi_def_cfa 2, 48
 750 00b0 83348101 		ld	s1,24(sp)
 751              		.cfi_restore 9
 752              	.LVL58:
 753 00b4 03390101 		ld	s2,16(sp)
 754              		.cfi_restore 18
 755              	.LVL59:
 756 00b8 83398100 		ld	s3,8(sp)
 757              		.cfi_restore 19
GAS LISTING /tmp/ccoLQ6A6.s 			page 18


 758              	.LVL60:
 759 00bc 13010103 		addi	sp,sp,48
 760              		.cfi_def_cfa_offset 0
 761 00c0 67800000 		jr	ra
 762              		.cfi_endproc
 763              	.LFE37:
 765              		.section	.text._ZN16ProducerKeyboard3runEv,"axG",@progbits,_ZN16ProducerKeyboard3runEv,comdat
 766              		.align	2
 767              		.weak	_ZN16ProducerKeyboard3runEv
 769              	_ZN16ProducerKeyboard3runEv:
 770              	.LFB36:
  21:test/ConsumerProducer_CPP_Sync_API_test.cpp ****         producerKeyboard(td);
 771              		.loc 2 21 10 is_stmt 1
 772              		.cfi_startproc
 773              	.LVL61:
 774 0000 130101FF 		addi	sp,sp,-16
 775              		.cfi_def_cfa_offset 16
 776 0004 23341100 		sd	ra,8(sp)
 777 0008 23308100 		sd	s0,0(sp)
 778              		.cfi_offset 1, -8
 779              		.cfi_offset 8, -16
 780 000c 13040101 		addi	s0,sp,16
 781              		.cfi_def_cfa 8, 0
  22:test/ConsumerProducer_CPP_Sync_API_test.cpp ****     }
 782              		.loc 2 22 9
  22:test/ConsumerProducer_CPP_Sync_API_test.cpp ****     }
 783              		.loc 2 22 25 is_stmt 0
 784 0010 83350502 		ld	a1,32(a0)
 785 0014 97000000 		call	_ZN16ProducerKeyboard16producerKeyboardEPv
 785      E7800000 
 786              	.LVL62:
  23:test/ConsumerProducer_CPP_Sync_API_test.cpp **** };
 787              		.loc 2 23 5
 788 001c 83308100 		ld	ra,8(sp)
 789              		.cfi_restore 1
 790 0020 03340100 		ld	s0,0(sp)
 791              		.cfi_restore 8
 792              		.cfi_def_cfa 2, 16
 793 0024 13010101 		addi	sp,sp,16
 794              		.cfi_def_cfa_offset 0
 795 0028 67800000 		jr	ra
 796              		.cfi_endproc
 797              	.LFE36:
 799              		.text
 800              		.align	2
 801              		.globl	_ZN12ProducerSync8producerEPv
 803              	_ZN12ProducerSync8producerEPv:
 804              	.LFB42:
  57:test/ConsumerProducer_CPP_Sync_API_test.cpp ****     struct thread_data *data = (struct thread_data *) arg;
 805              		.loc 2 57 40 is_stmt 1
 806              		.cfi_startproc
 807              	.LVL63:
 808 00c4 130101FE 		addi	sp,sp,-32
 809              		.cfi_def_cfa_offset 32
 810 00c8 233C1100 		sd	ra,24(sp)
 811 00cc 23388100 		sd	s0,16(sp)
 812 00d0 23349100 		sd	s1,8(sp)
GAS LISTING /tmp/ccoLQ6A6.s 			page 19


 813 00d4 23302101 		sd	s2,0(sp)
 814              		.cfi_offset 1, -8
 815              		.cfi_offset 8, -16
 816              		.cfi_offset 9, -24
 817              		.cfi_offset 18, -32
 818 00d8 13040102 		addi	s0,sp,32
 819              		.cfi_def_cfa 8, 0
 820 00dc 93840500 		mv	s1,a1
  58:test/ConsumerProducer_CPP_Sync_API_test.cpp **** 
 821              		.loc 2 58 5
 822              	.LVL64:
  60:test/ConsumerProducer_CPP_Sync_API_test.cpp ****     while (!threadEnd) {
 823              		.loc 2 60 5
  60:test/ConsumerProducer_CPP_Sync_API_test.cpp ****     while (!threadEnd) {
 824              		.loc 2 60 9 is_stmt 0
 825 00e0 13090000 		li	s2,0
 826 00e4 6F00C000 		j	.L38
 827              	.LVL65:
 828              	.L42:
  66:test/ConsumerProducer_CPP_Sync_API_test.cpp ****         }
 829              		.loc 2 66 13 is_stmt 1
 830              	.LBB114:
 831              	.LBB115:
  30:test/../h/syscall_cpp.hpp ****     static int sleep(time_t);
 832              		.loc 1 30 29
  30:test/../h/syscall_cpp.hpp ****     static int sleep(time_t);
 833              		.loc 1 30 44 is_stmt 0
 834 00e8 97000000 		call	_Z15thread_dispatchv
 834      E7800000 
 835              	.LVL66:
 836              	.L38:
 837              	.LBE115:
 838              	.LBE114:
  61:test/ConsumerProducer_CPP_Sync_API_test.cpp ****         data->buffer->put(data->id + '0');
 839              		.loc 2 61 5 is_stmt 1
  61:test/ConsumerProducer_CPP_Sync_API_test.cpp ****         data->buffer->put(data->id + '0');
 840              		.loc 2 61 12
 841 00f0 97070000 		lw	a5,_ZL9threadEnd
 841      83A70700 
 842 00f8 639E0702 		bnez	a5,.L39
  62:test/ConsumerProducer_CPP_Sync_API_test.cpp ****         i++;
 843              		.loc 2 62 9
  62:test/ConsumerProducer_CPP_Sync_API_test.cpp ****         i++;
 844              		.loc 2 62 33 is_stmt 0
 845 00fc 83A50400 		lw	a1,0(s1)
  62:test/ConsumerProducer_CPP_Sync_API_test.cpp ****         i++;
 846              		.loc 2 62 26
 847 0100 9B850503 		addiw	a1,a1,48
 848 0104 03B58400 		ld	a0,8(s1)
 849 0108 97000000 		call	_ZN9BufferCPP3putEi
 849      E7800000 
 850              	.LVL67:
  63:test/ConsumerProducer_CPP_Sync_API_test.cpp **** 
 851              		.loc 2 63 9 is_stmt 1
  63:test/ConsumerProducer_CPP_Sync_API_test.cpp **** 
 852              		.loc 2 63 10 is_stmt 0
 853 0110 1B071900 		addiw	a4,s2,1
GAS LISTING /tmp/ccoLQ6A6.s 			page 20


 854 0114 1B090700 		sext.w	s2,a4
 855              	.LVL68:
  65:test/ConsumerProducer_CPP_Sync_API_test.cpp ****             Thread::dispatch();
 856              		.loc 2 65 9 is_stmt 1
  65:test/ConsumerProducer_CPP_Sync_API_test.cpp ****             Thread::dispatch();
 857              		.loc 2 65 29 is_stmt 0
 858 0118 83A60400 		lw	a3,0(s1)
  65:test/ConsumerProducer_CPP_Sync_API_test.cpp ****             Thread::dispatch();
 859              		.loc 2 65 21
 860 011c 9B972600 		slliw	a5,a3,2
 861 0120 BB87D700 		addw	a5,a5,a3
 862 0124 9B971700 		slliw	a5,a5,1
  65:test/ConsumerProducer_CPP_Sync_API_test.cpp ****             Thread::dispatch();
 863              		.loc 2 65 15
 864 0128 BB67F702 		remw	a5,a4,a5
  65:test/ConsumerProducer_CPP_Sync_API_test.cpp ****             Thread::dispatch();
 865              		.loc 2 65 9
 866 012c E39207FC 		bnez	a5,.L38
 867 0130 6FF09FFB 		j	.L42
 868              	.LVL69:
 869              	.L39:
  70:test/ConsumerProducer_CPP_Sync_API_test.cpp **** }
 870              		.loc 2 70 5 is_stmt 1
  70:test/ConsumerProducer_CPP_Sync_API_test.cpp **** }
 871              		.loc 2 70 11 is_stmt 0
 872 0134 83B70401 		ld	a5,16(s1)
 873              	.LVL70:
 874              	.LBB116:
 875              	.LBB117:
 876              		.loc 1 63 9 is_stmt 1
 877              		.loc 1 63 26 is_stmt 0
 878 0138 03B58700 		ld	a0,8(a5)
 879 013c 97000000 		call	_Z10sem_signalP4_sem
 879      E7800000 
 880              	.LVL71:
 881              	.LBE117:
 882              	.LBE116:
  71:test/ConsumerProducer_CPP_Sync_API_test.cpp **** 
 883              		.loc 2 71 1
 884 0144 83308101 		ld	ra,24(sp)
 885              		.cfi_restore 1
 886 0148 03340101 		ld	s0,16(sp)
 887              		.cfi_restore 8
 888              		.cfi_def_cfa 2, 32
 889 014c 83348100 		ld	s1,8(sp)
 890              		.cfi_restore 9
 891              	.LVL72:
 892 0150 03390100 		ld	s2,0(sp)
 893              		.cfi_restore 18
 894              	.LVL73:
 895 0154 13010102 		addi	sp,sp,32
 896              		.cfi_def_cfa_offset 0
 897 0158 67800000 		jr	ra
 898              		.cfi_endproc
 899              	.LFE42:
 901              		.section	.text._ZN12ProducerSync3runEv,"axG",@progbits,_ZN12ProducerSync3runEv,comdat
 902              		.align	2
GAS LISTING /tmp/ccoLQ6A6.s 			page 21


 903              		.weak	_ZN12ProducerSync3runEv
 905              	_ZN12ProducerSync3runEv:
 906              	.LFB41:
  52:test/ConsumerProducer_CPP_Sync_API_test.cpp ****         producer(td);
 907              		.loc 2 52 10 is_stmt 1
 908              		.cfi_startproc
 909              	.LVL74:
 910 0000 130101FF 		addi	sp,sp,-16
 911              		.cfi_def_cfa_offset 16
 912 0004 23341100 		sd	ra,8(sp)
 913 0008 23308100 		sd	s0,0(sp)
 914              		.cfi_offset 1, -8
 915              		.cfi_offset 8, -16
 916 000c 13040101 		addi	s0,sp,16
 917              		.cfi_def_cfa 8, 0
  53:test/ConsumerProducer_CPP_Sync_API_test.cpp ****     }
 918              		.loc 2 53 9
  53:test/ConsumerProducer_CPP_Sync_API_test.cpp ****     }
 919              		.loc 2 53 17 is_stmt 0
 920 0010 83350502 		ld	a1,32(a0)
 921 0014 97000000 		call	_ZN12ProducerSync8producerEPv
 921      E7800000 
 922              	.LVL75:
  54:test/ConsumerProducer_CPP_Sync_API_test.cpp **** };
 923              		.loc 2 54 5
 924 001c 83308100 		ld	ra,8(sp)
 925              		.cfi_restore 1
 926 0020 03340100 		ld	s0,0(sp)
 927              		.cfi_restore 8
 928              		.cfi_def_cfa 2, 16
 929 0024 13010101 		addi	sp,sp,16
 930              		.cfi_def_cfa_offset 0
 931 0028 67800000 		jr	ra
 932              		.cfi_endproc
 933              	.LFE41:
 935              		.text
 936              		.align	2
 937              		.globl	_ZN12ConsumerSync8consumerEPv
 939              	_ZN12ConsumerSync8consumerEPv:
 940              	.LFB47:
  74:test/ConsumerProducer_CPP_Sync_API_test.cpp ****     thread_data* td;
  75:test/ConsumerProducer_CPP_Sync_API_test.cpp ****     void consumer(void *arg);
  76:test/ConsumerProducer_CPP_Sync_API_test.cpp **** public:
  77:test/ConsumerProducer_CPP_Sync_API_test.cpp ****     ConsumerSync(thread_data* _td):Thread(), td(_td) {}
  78:test/ConsumerProducer_CPP_Sync_API_test.cpp **** 
  79:test/ConsumerProducer_CPP_Sync_API_test.cpp ****     void run() override {
  80:test/ConsumerProducer_CPP_Sync_API_test.cpp ****         consumer(td);
  81:test/ConsumerProducer_CPP_Sync_API_test.cpp ****     }
  82:test/ConsumerProducer_CPP_Sync_API_test.cpp **** };
  83:test/ConsumerProducer_CPP_Sync_API_test.cpp **** 
  84:test/ConsumerProducer_CPP_Sync_API_test.cpp **** void ConsumerSync::consumer(void *arg) {
 941              		.loc 2 84 40 is_stmt 1
 942              		.cfi_startproc
 943              	.LVL76:
 944 015c 130101FD 		addi	sp,sp,-48
 945              		.cfi_def_cfa_offset 48
 946 0160 23341102 		sd	ra,40(sp)
GAS LISTING /tmp/ccoLQ6A6.s 			page 22


 947 0164 23308102 		sd	s0,32(sp)
 948 0168 233C9100 		sd	s1,24(sp)
 949 016c 23382101 		sd	s2,16(sp)
 950 0170 23343101 		sd	s3,8(sp)
 951 0174 23304101 		sd	s4,0(sp)
 952              		.cfi_offset 1, -8
 953              		.cfi_offset 8, -16
 954              		.cfi_offset 9, -24
 955              		.cfi_offset 18, -32
 956              		.cfi_offset 19, -40
 957              		.cfi_offset 20, -48
 958 0178 13040103 		addi	s0,sp,48
 959              		.cfi_def_cfa 8, 0
 960 017c 93090500 		mv	s3,a0
 961 0180 13890500 		mv	s2,a1
  85:test/ConsumerProducer_CPP_Sync_API_test.cpp ****     struct thread_data *data = (struct thread_data *) arg;
 962              		.loc 2 85 5
 963              	.LVL77:
  86:test/ConsumerProducer_CPP_Sync_API_test.cpp **** 
  87:test/ConsumerProducer_CPP_Sync_API_test.cpp ****     int i = 0;
 964              		.loc 2 87 5
 965              		.loc 2 87 9 is_stmt 0
 966 0184 130A0000 		li	s4,0
 967 0188 6F00C001 		j	.L46
 968              	.LVL78:
 969              	.L52:
 970              	.LBB118:
  88:test/ConsumerProducer_CPP_Sync_API_test.cpp ****     while (!threadEnd) {
  89:test/ConsumerProducer_CPP_Sync_API_test.cpp ****         int key = data->buffer->get();
  90:test/ConsumerProducer_CPP_Sync_API_test.cpp ****         i++;
  91:test/ConsumerProducer_CPP_Sync_API_test.cpp **** 
  92:test/ConsumerProducer_CPP_Sync_API_test.cpp ****         putc(key);
  93:test/ConsumerProducer_CPP_Sync_API_test.cpp **** 
  94:test/ConsumerProducer_CPP_Sync_API_test.cpp ****         if (i % (5 * data->id) == 0) {
  95:test/ConsumerProducer_CPP_Sync_API_test.cpp ****             Thread::dispatch();
 971              		.loc 2 95 13 is_stmt 1
 972              	.LBB119:
 973              	.LBB120:
  30:test/../h/syscall_cpp.hpp ****     static int sleep(time_t);
 974              		.loc 1 30 29
  30:test/../h/syscall_cpp.hpp ****     static int sleep(time_t);
 975              		.loc 1 30 44 is_stmt 0
 976 018c 97000000 		call	_Z15thread_dispatchv
 976      E7800000 
 977              	.LVL79:
  30:test/../h/syscall_cpp.hpp ****     static int sleep(time_t);
 978              		.loc 1 30 47
 979 0194 6F000005 		j	.L48
 980              	.LVL80:
 981              	.L53:
 982              	.LBE120:
 983              	.LBE119:
  96:test/ConsumerProducer_CPP_Sync_API_test.cpp ****         }
  97:test/ConsumerProducer_CPP_Sync_API_test.cpp **** 
  98:test/ConsumerProducer_CPP_Sync_API_test.cpp ****         if (i % 80 == 0) {
  99:test/ConsumerProducer_CPP_Sync_API_test.cpp ****             putc('\n');
 984              		.loc 2 99 13 is_stmt 1
GAS LISTING /tmp/ccoLQ6A6.s 			page 23


 985              		.loc 2 99 17 is_stmt 0
 986 0198 1305A000 		li	a0,10
 987 019c 97000000 		call	_Z4putcc
 987      E7800000 
 988              	.LVL81:
 989              	.L46:
 990              	.LBE118:
  88:test/ConsumerProducer_CPP_Sync_API_test.cpp ****         int key = data->buffer->get();
 991              		.loc 2 88 5 is_stmt 1
  88:test/ConsumerProducer_CPP_Sync_API_test.cpp ****         int key = data->buffer->get();
 992              		.loc 2 88 12
 993 01a4 97070000 		lw	a5,_ZL9threadEnd
 993      83A70700 
 994 01ac 63920706 		bnez	a5,.L47
 995              	.LBB121:
  89:test/ConsumerProducer_CPP_Sync_API_test.cpp ****         i++;
 996              		.loc 2 89 9
  89:test/ConsumerProducer_CPP_Sync_API_test.cpp ****         i++;
 997              		.loc 2 89 36 is_stmt 0
 998 01b0 03358900 		ld	a0,8(s2)
 999 01b4 97000000 		call	_ZN9BufferCPP3getEv
 999      E7800000 
 1000              	.LVL82:
  90:test/ConsumerProducer_CPP_Sync_API_test.cpp **** 
 1001              		.loc 2 90 9 is_stmt 1
  90:test/ConsumerProducer_CPP_Sync_API_test.cpp **** 
 1002              		.loc 2 90 10 is_stmt 0
 1003 01bc 9B041A00 		addiw	s1,s4,1
 1004 01c0 1B8A0400 		sext.w	s4,s1
 1005              	.LVL83:
  92:test/ConsumerProducer_CPP_Sync_API_test.cpp **** 
 1006              		.loc 2 92 9 is_stmt 1
  92:test/ConsumerProducer_CPP_Sync_API_test.cpp **** 
 1007              		.loc 2 92 13 is_stmt 0
 1008 01c4 1375F50F 		andi	a0,a0,0xff
 1009              	.LVL84:
 1010 01c8 97000000 		call	_Z4putcc
 1010      E7800000 
 1011              	.LVL85:
  94:test/ConsumerProducer_CPP_Sync_API_test.cpp ****             Thread::dispatch();
 1012              		.loc 2 94 9 is_stmt 1
  94:test/ConsumerProducer_CPP_Sync_API_test.cpp ****             Thread::dispatch();
 1013              		.loc 2 94 28 is_stmt 0
 1014 01d0 03270900 		lw	a4,0(s2)
  94:test/ConsumerProducer_CPP_Sync_API_test.cpp ****             Thread::dispatch();
 1015              		.loc 2 94 20
 1016 01d4 9B172700 		slliw	a5,a4,2
 1017 01d8 BB87E700 		addw	a5,a5,a4
  94:test/ConsumerProducer_CPP_Sync_API_test.cpp ****             Thread::dispatch();
 1018              		.loc 2 94 15
 1019 01dc BBE7F402 		remw	a5,s1,a5
  94:test/ConsumerProducer_CPP_Sync_API_test.cpp ****             Thread::dispatch();
 1020              		.loc 2 94 9
 1021 01e0 E38607FA 		beqz	a5,.L52
 1022              	.L48:
  98:test/ConsumerProducer_CPP_Sync_API_test.cpp ****             putc('\n');
 1023              		.loc 2 98 9 is_stmt 1
GAS LISTING /tmp/ccoLQ6A6.s 			page 24


  98:test/ConsumerProducer_CPP_Sync_API_test.cpp ****             putc('\n');
 1024              		.loc 2 98 15 is_stmt 0
 1025 01e4 93070005 		li	a5,80
 1026 01e8 BBE4F402 		remw	s1,s1,a5
 1027              	.LVL86:
  98:test/ConsumerProducer_CPP_Sync_API_test.cpp ****             putc('\n');
 1028              		.loc 2 98 9
 1029 01ec E39C04FA 		bnez	s1,.L46
 1030 01f0 6FF09FFA 		j	.L53
 1031              	.L54:
 1032              	.LBE121:
 1033              	.LBB122:
 100:test/ConsumerProducer_CPP_Sync_API_test.cpp ****         }
 101:test/ConsumerProducer_CPP_Sync_API_test.cpp ****     }
 102:test/ConsumerProducer_CPP_Sync_API_test.cpp **** 
 103:test/ConsumerProducer_CPP_Sync_API_test.cpp **** 
 104:test/ConsumerProducer_CPP_Sync_API_test.cpp ****     while (td->buffer->getCnt() > 0) {
 105:test/ConsumerProducer_CPP_Sync_API_test.cpp ****         int key = td->buffer->get();
 1034              		.loc 2 105 9 is_stmt 1
 1035              		.loc 2 105 19 is_stmt 0
 1036 01f4 83B70902 		ld	a5,32(s3)
 1037              		.loc 2 105 34
 1038 01f8 03B58700 		ld	a0,8(a5)
 1039 01fc 97000000 		call	_ZN9BufferCPP3getEv
 1039      E7800000 
 1040              	.LVL87:
 106:test/ConsumerProducer_CPP_Sync_API_test.cpp ****         //Console::putc(key);
 107:test/ConsumerProducer_CPP_Sync_API_test.cpp ****         putc(key);
 1041              		.loc 2 107 9 is_stmt 1
 1042              		.loc 2 107 13 is_stmt 0
 1043 0204 1375F50F 		andi	a0,a0,0xff
 1044              	.LVL88:
 1045 0208 97000000 		call	_Z4putcc
 1045      E7800000 
 1046              	.LVL89:
 1047              	.L47:
 1048              	.LBE122:
 104:test/ConsumerProducer_CPP_Sync_API_test.cpp ****         int key = td->buffer->get();
 1049              		.loc 2 104 5 is_stmt 1
 104:test/ConsumerProducer_CPP_Sync_API_test.cpp ****         int key = td->buffer->get();
 1050              		.loc 2 104 33
 104:test/ConsumerProducer_CPP_Sync_API_test.cpp ****         int key = td->buffer->get();
 1051              		.loc 2 104 12 is_stmt 0
 1052 0210 83B70902 		ld	a5,32(s3)
 104:test/ConsumerProducer_CPP_Sync_API_test.cpp ****         int key = td->buffer->get();
 1053              		.loc 2 104 30
 1054 0214 03B58700 		ld	a0,8(a5)
 1055 0218 97000000 		call	_ZN9BufferCPP6getCntEv
 1055      E7800000 
 1056              	.LVL90:
 104:test/ConsumerProducer_CPP_Sync_API_test.cpp ****         int key = td->buffer->get();
 1057              		.loc 2 104 33
 1058 0220 E34AA0FC 		bgtz	a0,.L54
 108:test/ConsumerProducer_CPP_Sync_API_test.cpp ****     }
 109:test/ConsumerProducer_CPP_Sync_API_test.cpp **** 
 110:test/ConsumerProducer_CPP_Sync_API_test.cpp ****     data->wait->signal();
 1059              		.loc 2 110 5 is_stmt 1
GAS LISTING /tmp/ccoLQ6A6.s 			page 25


 1060              		.loc 2 110 11 is_stmt 0
 1061 0224 83370901 		ld	a5,16(s2)
 1062              	.LVL91:
 1063              	.LBB123:
 1064              	.LBB124:
 1065              		.loc 1 63 9 is_stmt 1
 1066              		.loc 1 63 26 is_stmt 0
 1067 0228 03B58700 		ld	a0,8(a5)
 1068 022c 97000000 		call	_Z10sem_signalP4_sem
 1068      E7800000 
 1069              	.LVL92:
 1070              	.LBE124:
 1071              	.LBE123:
 111:test/ConsumerProducer_CPP_Sync_API_test.cpp **** }
 1072              		.loc 2 111 1
 1073 0234 83308102 		ld	ra,40(sp)
 1074              		.cfi_restore 1
 1075 0238 03340102 		ld	s0,32(sp)
 1076              		.cfi_restore 8
 1077              		.cfi_def_cfa 2, 48
 1078 023c 83348101 		ld	s1,24(sp)
 1079              		.cfi_restore 9
 1080 0240 03390101 		ld	s2,16(sp)
 1081              		.cfi_restore 18
 1082              	.LVL93:
 1083 0244 83398100 		ld	s3,8(sp)
 1084              		.cfi_restore 19
 1085              	.LVL94:
 1086 0248 033A0100 		ld	s4,0(sp)
 1087              		.cfi_restore 20
 1088              	.LVL95:
 1089 024c 13010103 		addi	sp,sp,48
 1090              		.cfi_def_cfa_offset 0
 1091 0250 67800000 		jr	ra
 1092              		.cfi_endproc
 1093              	.LFE47:
 1095              		.section	.text._ZN12ConsumerSync3runEv,"axG",@progbits,_ZN12ConsumerSync3runEv,comdat
 1096              		.align	2
 1097              		.weak	_ZN12ConsumerSync3runEv
 1099              	_ZN12ConsumerSync3runEv:
 1100              	.LFB46:
  79:test/ConsumerProducer_CPP_Sync_API_test.cpp ****         consumer(td);
 1101              		.loc 2 79 10 is_stmt 1
 1102              		.cfi_startproc
 1103              	.LVL96:
 1104 0000 130101FF 		addi	sp,sp,-16
 1105              		.cfi_def_cfa_offset 16
 1106 0004 23341100 		sd	ra,8(sp)
 1107 0008 23308100 		sd	s0,0(sp)
 1108              		.cfi_offset 1, -8
 1109              		.cfi_offset 8, -16
 1110 000c 13040101 		addi	s0,sp,16
 1111              		.cfi_def_cfa 8, 0
  80:test/ConsumerProducer_CPP_Sync_API_test.cpp ****     }
 1112              		.loc 2 80 9
  80:test/ConsumerProducer_CPP_Sync_API_test.cpp ****     }
 1113              		.loc 2 80 17 is_stmt 0
GAS LISTING /tmp/ccoLQ6A6.s 			page 26


 1114 0010 83350502 		ld	a1,32(a0)
 1115 0014 97000000 		call	_ZN12ConsumerSync8consumerEPv
 1115      E7800000 
 1116              	.LVL97:
  81:test/ConsumerProducer_CPP_Sync_API_test.cpp **** };
 1117              		.loc 2 81 5
 1118 001c 83308100 		ld	ra,8(sp)
 1119              		.cfi_restore 1
 1120 0020 03340100 		ld	s0,0(sp)
 1121              		.cfi_restore 8
 1122              		.cfi_def_cfa 2, 16
 1123 0024 13010101 		addi	sp,sp,16
 1124              		.cfi_def_cfa_offset 0
 1125 0028 67800000 		jr	ra
 1126              		.cfi_endproc
 1127              	.LFE46:
 1129              		.section	.rodata.str1.8,"aMS",@progbits,1
 1130              		.align	3
 1131              	.LC0:
 1132 0000 556E6573 		.string	"Unesite broj proizvodjaca?\n"
 1132      69746520 
 1132      62726F6A 
 1132      2070726F 
 1132      697A766F 
 1133 001c 00000000 		.align	3
 1134              	.LC1:
 1135 0020 556E6573 		.string	"Unesite velicinu bafera?\n"
 1135      69746520 
 1135      76656C69 
 1135      63696E75 
 1135      20626166 
 1136 003a 00000000 		.align	3
 1136      0000
 1137              	.LC2:
 1138 0040 42726F6A 		.string	"Broj proizvodjaca "
 1138      2070726F 
 1138      697A766F 
 1138      646A6163 
 1138      612000
 1139 0053 00000000 		.align	3
 1139      00
 1140              	.LC3:
 1141 0058 20692076 		.string	" i velicina bafera "
 1141      656C6963 
 1141      696E6120 
 1141      62616665 
 1141      72612000 
 1142 006c 00000000 		.align	3
 1143              	.LC4:
 1144 0070 2E0A00   		.string	".\n"
 1145 0073 00000000 		.align	3
 1145      00
 1146              	.LC5:
 1147 0078 42726F6A 		.string	"Broj proizvodjaca ne sme biti manji od velicine bafera!\n"
 1147      2070726F 
 1147      697A766F 
 1147      646A6163 
GAS LISTING /tmp/ccoLQ6A6.s 			page 27


 1147      61206E65 
 1148 00b1 00000000 		.align	3
 1148      000000
 1149              	.LC6:
 1150 00b8 42726F6A 		.string	"Broj proizvodjaca mora biti veci od nula!\n"
 1150      2070726F 
 1150      697A766F 
 1150      646A6163 
 1150      61206D6F 
 1151              		.text
 1152              		.align	2
 1153              		.globl	_Z29producerConsumer_CPP_Sync_APIv
 1155              	_Z29producerConsumer_CPP_Sync_APIv:
 1156              	.LFB48:
 112:test/ConsumerProducer_CPP_Sync_API_test.cpp **** 
 113:test/ConsumerProducer_CPP_Sync_API_test.cpp **** void producerConsumer_CPP_Sync_API() {
 1157              		.loc 2 113 38 is_stmt 1
 1158              		.cfi_startproc
 1159              		.cfi_personality 0x9b,DW.ref.__gxx_personality_v0
 1160              		.cfi_lsda 0x1b,.LLSDA48
 1161 0254 130101F9 		addi	sp,sp,-112
 1162              		.cfi_def_cfa_offset 112
 1163 0258 23341106 		sd	ra,104(sp)
 1164 025c 23308106 		sd	s0,96(sp)
 1165 0260 233C9104 		sd	s1,88(sp)
 1166 0264 23382105 		sd	s2,80(sp)
 1167 0268 23343105 		sd	s3,72(sp)
 1168 026c 23304105 		sd	s4,64(sp)
 1169 0270 233C5103 		sd	s5,56(sp)
 1170 0274 23386103 		sd	s6,48(sp)
 1171 0278 23347103 		sd	s7,40(sp)
 1172 027c 23308103 		sd	s8,32(sp)
 1173              		.cfi_offset 1, -8
 1174              		.cfi_offset 8, -16
 1175              		.cfi_offset 9, -24
 1176              		.cfi_offset 18, -32
 1177              		.cfi_offset 19, -40
 1178              		.cfi_offset 20, -48
 1179              		.cfi_offset 21, -56
 1180              		.cfi_offset 22, -64
 1181              		.cfi_offset 23, -72
 1182              		.cfi_offset 24, -80
 1183 0280 13040107 		addi	s0,sp,112
 1184              		.cfi_def_cfa 8, 0
 114:test/ConsumerProducer_CPP_Sync_API_test.cpp ****     char input[30];
 115:test/ConsumerProducer_CPP_Sync_API_test.cpp ****     int n, threadNum;
 116:test/ConsumerProducer_CPP_Sync_API_test.cpp **** 
 117:test/ConsumerProducer_CPP_Sync_API_test.cpp ****     printString("Unesite broj proizvodjaca?\n");
 118:test/ConsumerProducer_CPP_Sync_API_test.cpp ****     getString(input, 30);
 119:test/ConsumerProducer_CPP_Sync_API_test.cpp ****     threadNum = stringToInt(input);
 120:test/ConsumerProducer_CPP_Sync_API_test.cpp **** 
 121:test/ConsumerProducer_CPP_Sync_API_test.cpp ****     printString("Unesite velicinu bafera?\n");
 122:test/ConsumerProducer_CPP_Sync_API_test.cpp ****     getString(input, 30);
 123:test/ConsumerProducer_CPP_Sync_API_test.cpp ****     n = stringToInt(input);
 124:test/ConsumerProducer_CPP_Sync_API_test.cpp **** 
 125:test/ConsumerProducer_CPP_Sync_API_test.cpp ****     printString("Broj proizvodjaca "); printInt(threadNum);
 126:test/ConsumerProducer_CPP_Sync_API_test.cpp ****     printString(" i velicina bafera "); printInt(n);
GAS LISTING /tmp/ccoLQ6A6.s 			page 28


 127:test/ConsumerProducer_CPP_Sync_API_test.cpp ****     printString(".\n");
 128:test/ConsumerProducer_CPP_Sync_API_test.cpp **** 
 129:test/ConsumerProducer_CPP_Sync_API_test.cpp ****     if(threadNum > n) {
 130:test/ConsumerProducer_CPP_Sync_API_test.cpp ****         printString("Broj proizvodjaca ne sme biti manji od velicine bafera!\n");
 131:test/ConsumerProducer_CPP_Sync_API_test.cpp ****         return;
 132:test/ConsumerProducer_CPP_Sync_API_test.cpp ****     } else if (threadNum < 1) {
 133:test/ConsumerProducer_CPP_Sync_API_test.cpp ****         printString("Broj proizvodjaca mora biti veci od nula!\n");
 134:test/ConsumerProducer_CPP_Sync_API_test.cpp ****         return;
 135:test/ConsumerProducer_CPP_Sync_API_test.cpp ****     }
 136:test/ConsumerProducer_CPP_Sync_API_test.cpp **** 
 137:test/ConsumerProducer_CPP_Sync_API_test.cpp ****     BufferCPP *buffer = new BufferCPP(n);
 138:test/ConsumerProducer_CPP_Sync_API_test.cpp **** 
 139:test/ConsumerProducer_CPP_Sync_API_test.cpp ****     waitForAll = new Semaphore(0);
 140:test/ConsumerProducer_CPP_Sync_API_test.cpp **** 
 141:test/ConsumerProducer_CPP_Sync_API_test.cpp ****     Thread* threads[threadNum];
 142:test/ConsumerProducer_CPP_Sync_API_test.cpp ****     Thread* consumerThread;
 143:test/ConsumerProducer_CPP_Sync_API_test.cpp **** 
 144:test/ConsumerProducer_CPP_Sync_API_test.cpp ****     struct thread_data data[threadNum + 1];
 145:test/ConsumerProducer_CPP_Sync_API_test.cpp **** 
 146:test/ConsumerProducer_CPP_Sync_API_test.cpp ****     data[threadNum].id = threadNum;
 147:test/ConsumerProducer_CPP_Sync_API_test.cpp ****     data[threadNum].buffer = buffer;
 148:test/ConsumerProducer_CPP_Sync_API_test.cpp ****     data[threadNum].wait = waitForAll;
 149:test/ConsumerProducer_CPP_Sync_API_test.cpp ****     consumerThread = new ConsumerSync(data+threadNum);
 150:test/ConsumerProducer_CPP_Sync_API_test.cpp ****     consumerThread->start();
 151:test/ConsumerProducer_CPP_Sync_API_test.cpp **** 
 152:test/ConsumerProducer_CPP_Sync_API_test.cpp ****     for (int i = 0; i < threadNum; i++) {
 153:test/ConsumerProducer_CPP_Sync_API_test.cpp ****         data[i].id = i;
 154:test/ConsumerProducer_CPP_Sync_API_test.cpp ****         data[i].buffer = buffer;
 155:test/ConsumerProducer_CPP_Sync_API_test.cpp ****         data[i].wait = waitForAll;
 156:test/ConsumerProducer_CPP_Sync_API_test.cpp **** 
 157:test/ConsumerProducer_CPP_Sync_API_test.cpp ****         if(i>0) {
 158:test/ConsumerProducer_CPP_Sync_API_test.cpp ****             threads[i] = new ProducerSync(data+i);
 159:test/ConsumerProducer_CPP_Sync_API_test.cpp ****         } else {
 160:test/ConsumerProducer_CPP_Sync_API_test.cpp ****             threads[i] = new ProducerKeyboard(data+i);
 161:test/ConsumerProducer_CPP_Sync_API_test.cpp ****         }
 162:test/ConsumerProducer_CPP_Sync_API_test.cpp **** 
 163:test/ConsumerProducer_CPP_Sync_API_test.cpp ****         threads[i]->start();
 164:test/ConsumerProducer_CPP_Sync_API_test.cpp ****     }
 165:test/ConsumerProducer_CPP_Sync_API_test.cpp **** 
 166:test/ConsumerProducer_CPP_Sync_API_test.cpp ****     Thread::dispatch();
 167:test/ConsumerProducer_CPP_Sync_API_test.cpp **** 
 168:test/ConsumerProducer_CPP_Sync_API_test.cpp ****     for (int i = 0; i <= threadNum; i++) {
 169:test/ConsumerProducer_CPP_Sync_API_test.cpp ****         waitForAll->wait();
 170:test/ConsumerProducer_CPP_Sync_API_test.cpp ****     }
 171:test/ConsumerProducer_CPP_Sync_API_test.cpp **** 
 172:test/ConsumerProducer_CPP_Sync_API_test.cpp ****     for (int i = 0; i < threadNum; i++) {
 173:test/ConsumerProducer_CPP_Sync_API_test.cpp ****         delete threads[i];
 174:test/ConsumerProducer_CPP_Sync_API_test.cpp ****     }
 175:test/ConsumerProducer_CPP_Sync_API_test.cpp ****     delete consumerThread;
 176:test/ConsumerProducer_CPP_Sync_API_test.cpp ****     delete waitForAll;
 177:test/ConsumerProducer_CPP_Sync_API_test.cpp ****     delete buffer;
 1185              		.loc 2 177 18 is_stmt 0
 1186 0284 930B0100 		mv	s7,sp
 114:test/ConsumerProducer_CPP_Sync_API_test.cpp ****     char input[30];
 1187              		.loc 2 114 5 is_stmt 1
 115:test/ConsumerProducer_CPP_Sync_API_test.cpp **** 
 1188              		.loc 2 115 5
GAS LISTING /tmp/ccoLQ6A6.s 			page 29


 117:test/ConsumerProducer_CPP_Sync_API_test.cpp ****     getString(input, 30);
 1189              		.loc 2 117 5
 117:test/ConsumerProducer_CPP_Sync_API_test.cpp ****     getString(input, 30);
 1190              		.loc 2 117 16 is_stmt 0
 1191 0288 17050000 		lla	a0,.LC0
 1191      13050500 
 1192              	.LEHB0:
 1193 0290 97000000 		call	_Z11printStringPKc
 1193      E7800000 
 1194              	.LVL98:
 118:test/ConsumerProducer_CPP_Sync_API_test.cpp ****     threadNum = stringToInt(input);
 1195              		.loc 2 118 5 is_stmt 1
 118:test/ConsumerProducer_CPP_Sync_API_test.cpp ****     threadNum = stringToInt(input);
 1196              		.loc 2 118 14 is_stmt 0
 1197 0298 9305E001 		li	a1,30
 1198 029c 130504F9 		addi	a0,s0,-112
 1199 02a0 97000000 		call	_Z9getStringPci
 1199      E7800000 
 1200              	.LVL99:
 119:test/ConsumerProducer_CPP_Sync_API_test.cpp **** 
 1201              		.loc 2 119 5 is_stmt 1
 119:test/ConsumerProducer_CPP_Sync_API_test.cpp **** 
 1202              		.loc 2 119 28 is_stmt 0
 1203 02a8 130504F9 		addi	a0,s0,-112
 1204 02ac 97000000 		call	_Z11stringToIntPKc
 1204      E7800000 
 1205              	.LVL100:
 1206 02b4 13090500 		mv	s2,a0
 1207              	.LVL101:
 121:test/ConsumerProducer_CPP_Sync_API_test.cpp ****     getString(input, 30);
 1208              		.loc 2 121 5 is_stmt 1
 121:test/ConsumerProducer_CPP_Sync_API_test.cpp ****     getString(input, 30);
 1209              		.loc 2 121 16 is_stmt 0
 1210 02b8 17050000 		lla	a0,.LC1
 1210      13050500 
 1211 02c0 97000000 		call	_Z11printStringPKc
 1211      E7800000 
 1212              	.LVL102:
 122:test/ConsumerProducer_CPP_Sync_API_test.cpp ****     n = stringToInt(input);
 1213              		.loc 2 122 5 is_stmt 1
 122:test/ConsumerProducer_CPP_Sync_API_test.cpp ****     n = stringToInt(input);
 1214              		.loc 2 122 14 is_stmt 0
 1215 02c8 9305E001 		li	a1,30
 1216 02cc 130504F9 		addi	a0,s0,-112
 1217 02d0 97000000 		call	_Z9getStringPci
 1217      E7800000 
 1218              	.LVL103:
 123:test/ConsumerProducer_CPP_Sync_API_test.cpp **** 
 1219              		.loc 2 123 5 is_stmt 1
 123:test/ConsumerProducer_CPP_Sync_API_test.cpp **** 
 1220              		.loc 2 123 20 is_stmt 0
 1221 02d8 130504F9 		addi	a0,s0,-112
 1222 02dc 97000000 		call	_Z11stringToIntPKc
 1222      E7800000 
 1223              	.LVL104:
 1224 02e4 93040500 		mv	s1,a0
 1225              	.LVL105:
GAS LISTING /tmp/ccoLQ6A6.s 			page 30


 125:test/ConsumerProducer_CPP_Sync_API_test.cpp ****     printString(" i velicina bafera "); printInt(n);
 1226              		.loc 2 125 5 is_stmt 1
 125:test/ConsumerProducer_CPP_Sync_API_test.cpp ****     printString(" i velicina bafera "); printInt(n);
 1227              		.loc 2 125 16 is_stmt 0
 1228 02e8 17050000 		lla	a0,.LC2
 1228      13050500 
 1229 02f0 97000000 		call	_Z11printStringPKc
 1229      E7800000 
 1230              	.LVL106:
 125:test/ConsumerProducer_CPP_Sync_API_test.cpp ****     printString(" i velicina bafera "); printInt(n);
 1231              		.loc 2 125 40 is_stmt 1
 125:test/ConsumerProducer_CPP_Sync_API_test.cpp ****     printString(" i velicina bafera "); printInt(n);
 1232              		.loc 2 125 48 is_stmt 0
 1233 02f8 13060000 		li	a2,0
 1234 02fc 9305A000 		li	a1,10
 1235 0300 13050900 		mv	a0,s2
 1236 0304 97000000 		call	_Z8printIntiii
 1236      E7800000 
 1237              	.LVL107:
 126:test/ConsumerProducer_CPP_Sync_API_test.cpp ****     printString(".\n");
 1238              		.loc 2 126 5 is_stmt 1
 126:test/ConsumerProducer_CPP_Sync_API_test.cpp ****     printString(".\n");
 1239              		.loc 2 126 16 is_stmt 0
 1240 030c 17050000 		lla	a0,.LC3
 1240      13050500 
 1241 0314 97000000 		call	_Z11printStringPKc
 1241      E7800000 
 1242              	.LVL108:
 126:test/ConsumerProducer_CPP_Sync_API_test.cpp ****     printString(".\n");
 1243              		.loc 2 126 41 is_stmt 1
 126:test/ConsumerProducer_CPP_Sync_API_test.cpp ****     printString(".\n");
 1244              		.loc 2 126 49 is_stmt 0
 1245 031c 13060000 		li	a2,0
 1246 0320 9305A000 		li	a1,10
 1247 0324 13850400 		mv	a0,s1
 1248 0328 97000000 		call	_Z8printIntiii
 1248      E7800000 
 1249              	.LVL109:
 127:test/ConsumerProducer_CPP_Sync_API_test.cpp **** 
 1250              		.loc 2 127 5 is_stmt 1
 127:test/ConsumerProducer_CPP_Sync_API_test.cpp **** 
 1251              		.loc 2 127 16 is_stmt 0
 1252 0330 17050000 		lla	a0,.LC4
 1252      13050500 
 1253 0338 97000000 		call	_Z11printStringPKc
 1253      E7800000 
 1254              	.LVL110:
 129:test/ConsumerProducer_CPP_Sync_API_test.cpp ****         printString("Broj proizvodjaca ne sme biti manji od velicine bafera!\n");
 1255              		.loc 2 129 5 is_stmt 1
 1256 0340 63C42403 		bgt	s2,s1,.L82
 132:test/ConsumerProducer_CPP_Sync_API_test.cpp ****         printString("Broj proizvodjaca mora biti veci od nula!\n");
 1257              		.loc 2 132 12
 1258 0344 635C2003 		blez	s2,.L83
 137:test/ConsumerProducer_CPP_Sync_API_test.cpp **** 
 1259              		.loc 2 137 5
 137:test/ConsumerProducer_CPP_Sync_API_test.cpp **** 
 1260              		.loc 2 137 40 is_stmt 0
GAS LISTING /tmp/ccoLQ6A6.s 			page 31


 1261 0348 13058003 		li	a0,56
 1262 034c 97000000 		call	_Znwm
 1262      E7800000 
 1263              	.LVL111:
 1264              	.LEHE0:
 1265 0354 930A0500 		mv	s5,a0
 1266 0358 93850400 		mv	a1,s1
 1267              	.LEHB1:
 1268 035c 97000000 		call	_ZN9BufferCPPC1Ei
 1268      E7800000 
 1269              	.LVL112:
 1270              	.LEHE1:
 1271 0364 6F000003 		j	.L84
 1272              	.L82:
 130:test/ConsumerProducer_CPP_Sync_API_test.cpp ****         return;
 1273              		.loc 2 130 9 is_stmt 1
 130:test/ConsumerProducer_CPP_Sync_API_test.cpp ****         return;
 1274              		.loc 2 130 20 is_stmt 0
 1275 0368 17050000 		lla	a0,.LC5
 1275      13050500 
 1276              	.LEHB2:
 1277 0370 97000000 		call	_Z11printStringPKc
 1277      E7800000 
 1278              	.LVL113:
 131:test/ConsumerProducer_CPP_Sync_API_test.cpp ****     } else if (threadNum < 1) {
 1279              		.loc 2 131 9 is_stmt 1
 1280 0378 6F004001 		j	.L59
 1281              	.L83:
 133:test/ConsumerProducer_CPP_Sync_API_test.cpp ****         return;
 1282              		.loc 2 133 9
 133:test/ConsumerProducer_CPP_Sync_API_test.cpp ****         return;
 1283              		.loc 2 133 20 is_stmt 0
 1284 037c 17050000 		lla	a0,.LC6
 1284      13050500 
 1285 0384 97000000 		call	_Z11printStringPKc
 1285      E7800000 
 1286              	.LVL114:
 134:test/ConsumerProducer_CPP_Sync_API_test.cpp ****     }
 1287              		.loc 2 134 9 is_stmt 1
 1288              	.L59:
 1289 038c 13810B00 		mv	sp,s7
 1290 0390 6F00C026 		j	.L57
 1291              	.L84:
 1292              	.LVL115:
 139:test/ConsumerProducer_CPP_Sync_API_test.cpp **** 
 1293              		.loc 2 139 5 discriminator 3
 139:test/ConsumerProducer_CPP_Sync_API_test.cpp **** 
 1294              		.loc 2 139 33 is_stmt 0 discriminator 3
 1295 0394 13050001 		li	a0,16
 1296 0398 97000000 		call	_Znwm
 1296      E7800000 
 1297              	.LVL116:
 1298              	.LEHE2:
 1299 03a0 93040500 		mv	s1,a0
 1300              	.LVL117:
 1301              	.LBB157:
 1302              	.LBB158:
GAS LISTING /tmp/ccoLQ6A6.s 			page 32


 1303              	.LBB159:
  52:test/../h/syscall_cpp.hpp ****         sem_open(&myHandle, init);
 1304              		.loc 1 52 31 discriminator 3
 1305 03a4 97070000 		lla	a5,_ZTV9Semaphore+16
 1305      93870700 
 1306 03ac 2330F500 		sd	a5,0(a0)
  53:test/../h/syscall_cpp.hpp ****     };
 1307              		.loc 1 53 9 is_stmt 1 discriminator 3
  53:test/../h/syscall_cpp.hpp ****     };
 1308              		.loc 1 53 17 is_stmt 0 discriminator 3
 1309 03b0 93050000 		li	a1,0
 1310 03b4 13058500 		addi	a0,a0,8
 1311              	.LEHB3:
 1312 03b8 97000000 		call	_Z8sem_openPP4_semj
 1312      E7800000 
 1313              	.LVL118:
 1314              	.LEHE3:
 1315              	.LBE159:
 1316              	.LBE158:
 1317              	.LBE157:
 139:test/ConsumerProducer_CPP_Sync_API_test.cpp **** 
 1318              		.loc 2 139 16 discriminator 3
 1319 03c0 97070000 		sd	s1,_ZL10waitForAll,a5
 1319      23B09700 
 141:test/ConsumerProducer_CPP_Sync_API_test.cpp ****     Thread* consumerThread;
 1320              		.loc 2 141 5 is_stmt 1 discriminator 3
 1321              	.LVL119:
 141:test/ConsumerProducer_CPP_Sync_API_test.cpp ****     Thread* consumerThread;
 1322              		.loc 2 141 13 is_stmt 0 discriminator 3
 1323 03c8 93173900 		slli	a5,s2,3
 1324 03cc 9387F700 		addi	a5,a5,15
 1325 03d0 93F707FF 		andi	a5,a5,-16
 1326 03d4 3301F140 		sub	sp,sp,a5
 1327 03d8 93090100 		mv	s3,sp
 1328              	.LVL120:
 142:test/ConsumerProducer_CPP_Sync_API_test.cpp **** 
 1329              		.loc 2 142 5 is_stmt 1 discriminator 3
 144:test/ConsumerProducer_CPP_Sync_API_test.cpp **** 
 1330              		.loc 2 144 5 discriminator 3
 144:test/ConsumerProducer_CPP_Sync_API_test.cpp **** 
 1331              		.loc 2 144 39 is_stmt 0 discriminator 3
 1332 03dc 1B071900 		addiw	a4,s2,1
 1333              	.LVL121:
 144:test/ConsumerProducer_CPP_Sync_API_test.cpp **** 
 1334              		.loc 2 144 24 discriminator 3
 1335 03e0 93171700 		slli	a5,a4,1
 1336 03e4 B387E700 		add	a5,a5,a4
 1337 03e8 93973700 		slli	a5,a5,3
 1338 03ec 9387F700 		addi	a5,a5,15
 1339 03f0 93F707FF 		andi	a5,a5,-16
 1340 03f4 3301F140 		sub	sp,sp,a5
 1341              	.LVL122:
 1342 03f8 130A0100 		mv	s4,sp
 1343              	.LVL123:
 146:test/ConsumerProducer_CPP_Sync_API_test.cpp ****     data[threadNum].buffer = buffer;
 1344              		.loc 2 146 5 is_stmt 1 discriminator 3
 146:test/ConsumerProducer_CPP_Sync_API_test.cpp ****     data[threadNum].buffer = buffer;
GAS LISTING /tmp/ccoLQ6A6.s 			page 33


 1345              		.loc 2 146 24 is_stmt 0 discriminator 3
 1346 03fc 131C1900 		slli	s8,s2,1
 1347 0400 B3072C01 		add	a5,s8,s2
 1348 0404 93973700 		slli	a5,a5,3
 1349 0408 B307FA00 		add	a5,s4,a5
 1350 040c 23A02701 		sw	s2,0(a5)
 147:test/ConsumerProducer_CPP_Sync_API_test.cpp ****     data[threadNum].wait = waitForAll;
 1351              		.loc 2 147 5 is_stmt 1 discriminator 3
 147:test/ConsumerProducer_CPP_Sync_API_test.cpp ****     data[threadNum].wait = waitForAll;
 1352              		.loc 2 147 28 is_stmt 0 discriminator 3
 1353 0410 23B45701 		sd	s5,8(a5)
 148:test/ConsumerProducer_CPP_Sync_API_test.cpp ****     consumerThread = new ConsumerSync(data+threadNum);
 1354              		.loc 2 148 5 is_stmt 1 discriminator 3
 148:test/ConsumerProducer_CPP_Sync_API_test.cpp ****     consumerThread = new ConsumerSync(data+threadNum);
 1355              		.loc 2 148 26 is_stmt 0 discriminator 3
 1356 0414 23B89700 		sd	s1,16(a5)
 149:test/ConsumerProducer_CPP_Sync_API_test.cpp ****     consumerThread->start();
 1357              		.loc 2 149 5 is_stmt 1 discriminator 3
 149:test/ConsumerProducer_CPP_Sync_API_test.cpp ****     consumerThread->start();
 1358              		.loc 2 149 53 is_stmt 0 discriminator 3
 1359 0418 13058002 		li	a0,40
 1360              	.LEHB4:
 1361 041c 97000000 		call	_Znwm
 1361      E7800000 
 1362              	.LVL124:
 1363 0424 130B0500 		mv	s6,a0
 149:test/ConsumerProducer_CPP_Sync_API_test.cpp ****     consumerThread->start();
 1364              		.loc 2 149 43 discriminator 3
 1365 0428 330C2C01 		add	s8,s8,s2
 1366 042c 131C3C00 		slli	s8,s8,3
 149:test/ConsumerProducer_CPP_Sync_API_test.cpp ****     consumerThread->start();
 1367              		.loc 2 149 53 discriminator 3
 1368 0430 330C8A01 		add	s8,s4,s8
 1369              	.LVL125:
 1370              	.LBB160:
 1371              	.LBB161:
 1372              	.LBB162:
 1373              	.LBB163:
  34:test/../h/syscall_cpp.hpp ****     virtual void run(){}
 1374              		.loc 1 34 13 discriminator 3
 1375 0434 23380500 		sd	zero,16(a0)
 1376              	.LVL126:
 1377              	.LBE163:
 1378              	.LBE162:
  77:test/ConsumerProducer_CPP_Sync_API_test.cpp **** 
 1379              		.loc 2 77 52 discriminator 3
 1380 0438 97070000 		lla	a5,_ZTV12ConsumerSync+16
 1380      93870700 
 1381 0440 2330F500 		sd	a5,0(a0)
 1382 0444 23308503 		sd	s8,32(a0)
 1383              	.LVL127:
 1384              	.LBE161:
 1385              	.LBE160:
 150:test/ConsumerProducer_CPP_Sync_API_test.cpp **** 
 1386              		.loc 2 150 5 is_stmt 1 discriminator 3
 1387              	.LBB164:
 1388              	.LBB165:
GAS LISTING /tmp/ccoLQ6A6.s 			page 34


  21:test/../h/syscall_cpp.hpp ****             thread_create(&myhandle, &threadWrapper,this);
 1389              		.loc 1 21 9 discriminator 3
  22:test/../h/syscall_cpp.hpp ****         }
 1390              		.loc 1 22 13 discriminator 3
  22:test/../h/syscall_cpp.hpp ****         }
 1391              		.loc 1 22 26 is_stmt 0 discriminator 3
 1392 0448 13060500 		mv	a2,a0
 1393 044c 97050000 		lla	a1,_ZN6Thread13threadWrapperEPv
 1393      93850500 
 1394 0454 13058500 		addi	a0,a0,8
 1395              	.LVL128:
 1396 0458 97000000 		call	_Z13thread_createPP7_threadPFvPvES2_
 1396      E7800000 
 1397              	.LVL129:
  27:test/../h/syscall_cpp.hpp ****     }
 1398              		.loc 1 27 9 is_stmt 1 discriminator 3
 1399              	.LBE165:
 1400              	.LBE164:
 1401              	.LBB167:
 152:test/ConsumerProducer_CPP_Sync_API_test.cpp ****         data[i].id = i;
 1402              		.loc 2 152 14 is_stmt 0 discriminator 3
 1403 0460 93040000 		li	s1,0
 1404              	.LBE167:
 1405              	.LBB180:
 1406              	.LBB166:
  27:test/../h/syscall_cpp.hpp ****     }
 1407              		.loc 1 27 16 discriminator 3
 1408 0464 6F000006 		j	.L62
 1409              	.LVL130:
 1410              	.L64:
 1411              	.LBE166:
 1412              	.LBE180:
 1413              	.LBB181:
 160:test/ConsumerProducer_CPP_Sync_API_test.cpp ****         }
 1414              		.loc 2 160 13 is_stmt 1
 160:test/ConsumerProducer_CPP_Sync_API_test.cpp ****         }
 1415              		.loc 2 160 53 is_stmt 0
 1416 0468 13058002 		li	a0,40
 1417 046c 97000000 		call	_Znwm
 1417      E7800000 
 1418              	.LVL131:
 160:test/ConsumerProducer_CPP_Sync_API_test.cpp ****         }
 1419              		.loc 2 160 51
 1420 0474 93971400 		slli	a5,s1,1
 1421 0478 B3879700 		add	a5,a5,s1
 1422 047c 93973700 		slli	a5,a5,3
 160:test/ConsumerProducer_CPP_Sync_API_test.cpp ****         }
 1423              		.loc 2 160 53
 1424 0480 B307FA00 		add	a5,s4,a5
 1425              	.LVL132:
 1426              	.LBB168:
 1427              	.LBB169:
 1428              	.LBB170:
 1429              	.LBB171:
  34:test/../h/syscall_cpp.hpp ****     virtual void run(){}
 1430              		.loc 1 34 13
 1431 0484 23380500 		sd	zero,16(a0)
GAS LISTING /tmp/ccoLQ6A6.s 			page 35


 1432              	.LVL133:
 1433              	.LBE171:
 1434              	.LBE170:
  19:test/ConsumerProducer_CPP_Sync_API_test.cpp **** 
 1435              		.loc 2 19 56
 1436 0488 17070000 		lla	a4,_ZTV16ProducerKeyboard+16
 1436      13070700 
 1437 0490 2330E500 		sd	a4,0(a0)
 1438 0494 2330F502 		sd	a5,32(a0)
 1439              	.LVL134:
 1440              	.LBE169:
 1441              	.LBE168:
 160:test/ConsumerProducer_CPP_Sync_API_test.cpp ****         }
 1442              		.loc 2 160 24
 1443 0498 93973400 		slli	a5,s1,3
 1444 049c B387F900 		add	a5,s3,a5
 1445 04a0 23B0A700 		sd	a0,0(a5)
 1446 04a4 6F008008 		j	.L65
 1447              	.LVL135:
 1448              	.L85:
 1449              	.LBB172:
 1450              	.LBB173:
  22:test/../h/syscall_cpp.hpp ****         }
 1451              		.loc 1 22 13 is_stmt 1
  22:test/../h/syscall_cpp.hpp ****         }
 1452              		.loc 1 22 26 is_stmt 0
 1453 04a8 13060500 		mv	a2,a0
 1454 04ac 97050000 		lla	a1,_ZN6Thread13threadWrapperEPv
 1454      93850500 
 1455 04b4 13058500 		addi	a0,a0,8
 1456              	.LVL136:
 1457 04b8 97000000 		call	_Z13thread_createPP7_threadPFvPvES2_
 1457      E7800000 
 1458              	.LVL137:
 1459              	.L67:
  27:test/../h/syscall_cpp.hpp ****     }
 1460              		.loc 1 27 9 is_stmt 1
 1461              	.LBE173:
 1462              	.LBE172:
 152:test/ConsumerProducer_CPP_Sync_API_test.cpp ****         data[i].id = i;
 1463              		.loc 2 152 5
 1464 04c0 9B841400 		addiw	s1,s1,1
 1465              	.LVL138:
 1466              	.L62:
 152:test/ConsumerProducer_CPP_Sync_API_test.cpp ****         data[i].id = i;
 1467              		.loc 2 152 23 discriminator 1
 1468 04c4 63D82409 		bge	s1,s2,.L63
 153:test/ConsumerProducer_CPP_Sync_API_test.cpp ****         data[i].buffer = buffer;
 1469              		.loc 2 153 9
 153:test/ConsumerProducer_CPP_Sync_API_test.cpp ****         data[i].buffer = buffer;
 1470              		.loc 2 153 20 is_stmt 0
 1471 04c8 93971400 		slli	a5,s1,1
 1472 04cc B3879700 		add	a5,a5,s1
 1473 04d0 93973700 		slli	a5,a5,3
 1474 04d4 B307FA00 		add	a5,s4,a5
 1475 04d8 23A09700 		sw	s1,0(a5)
 154:test/ConsumerProducer_CPP_Sync_API_test.cpp ****         data[i].wait = waitForAll;
GAS LISTING /tmp/ccoLQ6A6.s 			page 36


 1476              		.loc 2 154 9 is_stmt 1
 154:test/ConsumerProducer_CPP_Sync_API_test.cpp ****         data[i].wait = waitForAll;
 1477              		.loc 2 154 24 is_stmt 0
 1478 04dc 23B45701 		sd	s5,8(a5)
 155:test/ConsumerProducer_CPP_Sync_API_test.cpp **** 
 1479              		.loc 2 155 9 is_stmt 1
 155:test/ConsumerProducer_CPP_Sync_API_test.cpp **** 
 1480              		.loc 2 155 22 is_stmt 0
 1481 04e0 17070000 		ld	a4,_ZL10waitForAll
 1481      03370700 
 1482 04e8 23B8E700 		sd	a4,16(a5)
 157:test/ConsumerProducer_CPP_Sync_API_test.cpp ****             threads[i] = new ProducerSync(data+i);
 1483              		.loc 2 157 9 is_stmt 1
 1484 04ec E35E90F6 		blez	s1,.L64
 158:test/ConsumerProducer_CPP_Sync_API_test.cpp ****         } else {
 1485              		.loc 2 158 13
 158:test/ConsumerProducer_CPP_Sync_API_test.cpp ****         } else {
 1486              		.loc 2 158 49 is_stmt 0
 1487 04f0 13058002 		li	a0,40
 1488 04f4 97000000 		call	_Znwm
 1488      E7800000 
 1489              	.LVL139:
 158:test/ConsumerProducer_CPP_Sync_API_test.cpp ****         } else {
 1490              		.loc 2 158 47
 1491 04fc 93971400 		slli	a5,s1,1
 1492 0500 B3879700 		add	a5,a5,s1
 1493 0504 93973700 		slli	a5,a5,3
 158:test/ConsumerProducer_CPP_Sync_API_test.cpp ****         } else {
 1494              		.loc 2 158 49
 1495 0508 B307FA00 		add	a5,s4,a5
 1496              	.LVL140:
 1497              	.LBB175:
 1498              	.LBB176:
 1499              	.LBB177:
 1500              	.LBB178:
  34:test/../h/syscall_cpp.hpp ****     virtual void run(){}
 1501              		.loc 1 34 13
 1502 050c 23380500 		sd	zero,16(a0)
 1503              	.LVL141:
 1504              	.LBE178:
 1505              	.LBE177:
  50:test/ConsumerProducer_CPP_Sync_API_test.cpp **** 
 1506              		.loc 2 50 52
 1507 0510 17070000 		lla	a4,_ZTV12ProducerSync+16
 1507      13070700 
 1508 0518 2330E500 		sd	a4,0(a0)
 1509 051c 2330F502 		sd	a5,32(a0)
 1510              	.LVL142:
 1511              	.LBE176:
 1512              	.LBE175:
 158:test/ConsumerProducer_CPP_Sync_API_test.cpp ****         } else {
 1513              		.loc 2 158 24
 1514 0520 93973400 		slli	a5,s1,3
 1515 0524 B387F900 		add	a5,s3,a5
 1516 0528 23B0A700 		sd	a0,0(a5)
 1517              	.L65:
 163:test/ConsumerProducer_CPP_Sync_API_test.cpp ****     }
GAS LISTING /tmp/ccoLQ6A6.s 			page 37


 1518              		.loc 2 163 9 is_stmt 1
 163:test/ConsumerProducer_CPP_Sync_API_test.cpp ****     }
 1519              		.loc 2 163 18 is_stmt 0
 1520 052c 93973400 		slli	a5,s1,3
 1521 0530 B387F900 		add	a5,s3,a5
 1522 0534 03B50700 		ld	a0,0(a5)
 1523              	.LVL143:
 1524              	.LBB179:
 1525              	.LBB174:
  21:test/../h/syscall_cpp.hpp ****             thread_create(&myhandle, &threadWrapper,this);
 1526              		.loc 1 21 9 is_stmt 1
  21:test/../h/syscall_cpp.hpp ****             thread_create(&myhandle, &threadWrapper,this);
 1527              		.loc 1 21 13 is_stmt 0
 1528 0538 83350501 		ld	a1,16(a0)
  21:test/../h/syscall_cpp.hpp ****             thread_create(&myhandle, &threadWrapper,this);
 1529              		.loc 1 21 9
 1530 053c E38605F6 		beqz	a1,.L85
  25:test/../h/syscall_cpp.hpp ****         }
 1531              		.loc 1 25 13 is_stmt 1
  25:test/../h/syscall_cpp.hpp ****         }
 1532              		.loc 1 25 26 is_stmt 0
 1533 0540 03368501 		ld	a2,24(a0)
 1534 0544 13058500 		addi	a0,a0,8
 1535              	.LVL144:
 1536 0548 97000000 		call	_Z13thread_createPP7_threadPFvPvES2_
 1536      E7800000 
 1537              	.LVL145:
 1538 0550 6FF01FF7 		j	.L67
 1539              	.L63:
 1540              	.LBE174:
 1541              	.LBE179:
 1542              	.LBE181:
 166:test/ConsumerProducer_CPP_Sync_API_test.cpp **** 
 1543              		.loc 2 166 5 is_stmt 1
 1544              	.LBB182:
 1545              	.LBB183:
  30:test/../h/syscall_cpp.hpp ****     static int sleep(time_t);
 1546              		.loc 1 30 29
  30:test/../h/syscall_cpp.hpp ****     static int sleep(time_t);
 1547              		.loc 1 30 44 is_stmt 0
 1548 0554 97000000 		call	_Z15thread_dispatchv
 1548      E7800000 
 1549              	.LVL146:
 1550              	.LBE183:
 1551              	.LBE182:
 1552              	.LBB184:
 168:test/ConsumerProducer_CPP_Sync_API_test.cpp ****         waitForAll->wait();
 1553              		.loc 2 168 14
 1554 055c 93040000 		li	s1,0
 1555              	.LVL147:
 1556              	.L69:
 168:test/ConsumerProducer_CPP_Sync_API_test.cpp ****         waitForAll->wait();
 1557              		.loc 2 168 23 is_stmt 1 discriminator 1
 1558 0560 63409902 		bgt	s1,s2,.L78
 169:test/ConsumerProducer_CPP_Sync_API_test.cpp ****     }
 1559              		.loc 2 169 9
 1560              	.LVL148:
GAS LISTING /tmp/ccoLQ6A6.s 			page 38


 1561              	.LBB185:
 1562              	.LBB186:
  60:test/../h/syscall_cpp.hpp ****     }
 1563              		.loc 1 60 9
  60:test/../h/syscall_cpp.hpp ****     }
 1564              		.loc 1 60 24 is_stmt 0
 1565 0564 97070000 		ld	a5,_ZL10waitForAll
 1565      83B70700 
 1566 056c 03B58700 		ld	a0,8(a5)
 1567 0570 97000000 		call	_Z8sem_waitP4_sem
 1567      E7800000 
 1568              	.LVL149:
 1569              	.LBE186:
 1570              	.LBE185:
 168:test/ConsumerProducer_CPP_Sync_API_test.cpp ****         waitForAll->wait();
 1571              		.loc 2 168 5 is_stmt 1
 1572 0578 9B841400 		addiw	s1,s1,1
 1573              	.LVL150:
 1574 057c 6FF05FFE 		j	.L69
 1575              	.LVL151:
 1576              	.L78:
 1577              	.LBE184:
 1578              	.LBB187:
 172:test/ConsumerProducer_CPP_Sync_API_test.cpp ****         delete threads[i];
 1579              		.loc 2 172 14 is_stmt 0
 1580 0580 93040000 		li	s1,0
 1581              	.LVL152:
 1582 0584 6F008000 		j	.L68
 1583              	.LVL153:
 1584              	.L71:
 172:test/ConsumerProducer_CPP_Sync_API_test.cpp ****         delete threads[i];
 1585              		.loc 2 172 5 is_stmt 1 discriminator 2
 1586 0588 9B841400 		addiw	s1,s1,1
 1587              	.LVL154:
 1588              	.L68:
 172:test/ConsumerProducer_CPP_Sync_API_test.cpp ****         delete threads[i];
 1589              		.loc 2 172 23 discriminator 1
 1590 058c 63D22403 		bge	s1,s2,.L70
 173:test/ConsumerProducer_CPP_Sync_API_test.cpp ****     }
 1591              		.loc 2 173 9
 173:test/ConsumerProducer_CPP_Sync_API_test.cpp ****     }
 1592              		.loc 2 173 25 is_stmt 0
 1593 0590 93973400 		slli	a5,s1,3
 1594 0594 B387F900 		add	a5,s3,a5
 1595 0598 03B50700 		ld	a0,0(a5)
 173:test/ConsumerProducer_CPP_Sync_API_test.cpp ****     }
 1596              		.loc 2 173 26
 1597 059c E30605FE 		beqz	a0,.L71
 173:test/ConsumerProducer_CPP_Sync_API_test.cpp ****     }
 1598              		.loc 2 173 25 discriminator 1
 1599 05a0 83370500 		ld	a5,0(a0)
 1600 05a4 83B78700 		ld	a5,8(a5)
 1601 05a8 E7800700 		jalr	a5
 1602              	.LVL155:
 1603 05ac 6FF0DFFD 		j	.L71
 1604              	.L70:
 1605              	.LBE187:
GAS LISTING /tmp/ccoLQ6A6.s 			page 39


 175:test/ConsumerProducer_CPP_Sync_API_test.cpp ****     delete waitForAll;
 1606              		.loc 2 175 5 is_stmt 1
 175:test/ConsumerProducer_CPP_Sync_API_test.cpp ****     delete waitForAll;
 1607              		.loc 2 175 26 is_stmt 0
 1608 05b0 630A0B00 		beqz	s6,.L72
 175:test/ConsumerProducer_CPP_Sync_API_test.cpp ****     delete waitForAll;
 1609              		.loc 2 175 12 discriminator 1
 1610 05b4 83370B00 		ld	a5,0(s6)
 1611 05b8 83B78700 		ld	a5,8(a5)
 1612 05bc 13050B00 		mv	a0,s6
 1613 05c0 E7800700 		jalr	a5
 1614              	.LVL156:
 1615              	.L72:
 176:test/ConsumerProducer_CPP_Sync_API_test.cpp ****     delete buffer;
 1616              		.loc 2 176 5 is_stmt 1
 176:test/ConsumerProducer_CPP_Sync_API_test.cpp ****     delete buffer;
 1617              		.loc 2 176 12 is_stmt 0
 1618 05c4 17050000 		ld	a0,_ZL10waitForAll
 1618      03350500 
 176:test/ConsumerProducer_CPP_Sync_API_test.cpp ****     delete buffer;
 1619              		.loc 2 176 22
 1620 05cc 63080500 		beqz	a0,.L73
 176:test/ConsumerProducer_CPP_Sync_API_test.cpp ****     delete buffer;
 1621              		.loc 2 176 12 discriminator 1
 1622 05d0 83370500 		ld	a5,0(a0)
 1623 05d4 83B78700 		ld	a5,8(a5)
 1624 05d8 E7800700 		jalr	a5
 1625              	.LVL157:
 1626              	.L73:
 1627              		.loc 2 177 5 is_stmt 1
 1628              		.loc 2 177 18 is_stmt 0
 1629 05dc 638E0A00 		beqz	s5,.L74
 1630              		.loc 2 177 12 discriminator 1
 1631 05e0 13850A00 		mv	a0,s5
 1632 05e4 97000000 		call	_ZN9BufferCPPD1Ev
 1632      E7800000 
 1633              	.LVL158:
 1634 05ec 13850A00 		mv	a0,s5
 1635 05f0 97000000 		call	_ZdlPv
 1635      E7800000 
 1636              	.LVL159:
 1637              	.L74:
 1638 05f8 13810B00 		mv	sp,s7
 1639              	.LVL160:
 1640              	.L57:
 178:test/ConsumerProducer_CPP_Sync_API_test.cpp **** 
 179:test/ConsumerProducer_CPP_Sync_API_test.cpp **** }
 1641              		.loc 2 179 1
 1642 05fc 130104F9 		addi	sp,s0,-112
 1643              		.cfi_remember_state
 1644              		.cfi_def_cfa 2, 112
 1645 0600 83308106 		ld	ra,104(sp)
 1646              		.cfi_restore 1
 1647 0604 03340106 		ld	s0,96(sp)
 1648              		.cfi_restore 8
 1649 0608 83348105 		ld	s1,88(sp)
 1650              		.cfi_restore 9
GAS LISTING /tmp/ccoLQ6A6.s 			page 40


 1651 060c 03390105 		ld	s2,80(sp)
 1652              		.cfi_restore 18
 1653              	.LVL161:
 1654 0610 83398104 		ld	s3,72(sp)
 1655              		.cfi_restore 19
 1656 0614 033A0104 		ld	s4,64(sp)
 1657              		.cfi_restore 20
 1658 0618 833A8103 		ld	s5,56(sp)
 1659              		.cfi_restore 21
 1660 061c 033B0103 		ld	s6,48(sp)
 1661              		.cfi_restore 22
 1662 0620 833B8102 		ld	s7,40(sp)
 1663              		.cfi_restore 23
 1664 0624 033C0102 		ld	s8,32(sp)
 1665              		.cfi_restore 24
 1666 0628 13010107 		addi	sp,sp,112
 1667              		.cfi_def_cfa_offset 0
 1668 062c 67800000 		jr	ra
 1669              	.LVL162:
 1670              	.L79:
 1671              		.cfi_restore_state
 1672 0630 93040500 		mv	s1,a0
 1673              	.LVL163:
 137:test/ConsumerProducer_CPP_Sync_API_test.cpp **** 
 1674              		.loc 2 137 40
 1675 0634 13850A00 		mv	a0,s5
 1676 0638 97000000 		call	_ZdlPv
 1676      E7800000 
 1677              	.LVL164:
 1678 0640 13850400 		mv	a0,s1
 1679 0644 97000000 		call	_Unwind_Resume
 1679      E7800000 
 1680              	.LVL165:
 1681              	.L80:
 1682 064c 13090500 		mv	s2,a0
 1683              	.LVL166:
 139:test/ConsumerProducer_CPP_Sync_API_test.cpp **** 
 1684              		.loc 2 139 33
 1685 0650 13850400 		mv	a0,s1
 1686 0654 97000000 		call	_ZdlPv
 1686      E7800000 
 1687              	.LVL167:
 1688 065c 13050900 		mv	a0,s2
 1689 0660 97000000 		call	_Unwind_Resume
 1689      E7800000 
 1690              	.LVL168:
 1691              	.LEHE4:
 1692              		.cfi_endproc
 1693              	.LFE48:
 1694              		.section	.gcc_except_table,"aw",@progbits
 1695              	.LLSDA48:
 1696 0000 FF       		.byte	0xff
 1697 0001 FF       		.byte	0xff
 1698 0002 03       		.byte	0x3
 1699 0003 41       		.byte	0x41
 1700 0004 00000000 		.4byte	.LEHB0-.LFB48
 1701 0008 00000000 		.4byte	.LEHE0-.LEHB0
GAS LISTING /tmp/ccoLQ6A6.s 			page 41


 1702 000c 00000000 		.4byte	0
 1703 0010 00       		.byte	0
 1704 0011 00000000 		.4byte	.LEHB1-.LFB48
 1705 0015 00000000 		.4byte	.LEHE1-.LEHB1
 1706 0019 00000000 		.4byte	.L79-.LFB48
 1707 001d 00       		.byte	0
 1708 001e 00000000 		.4byte	.LEHB2-.LFB48
 1709 0022 00000000 		.4byte	.LEHE2-.LEHB2
 1710 0026 00000000 		.4byte	0
 1711 002a 00       		.byte	0
 1712 002b 00000000 		.4byte	.LEHB3-.LFB48
 1713 002f 00000000 		.4byte	.LEHE3-.LEHB3
 1714 0033 00000000 		.4byte	.L80-.LFB48
 1715 0037 00       		.byte	0
 1716 0038 00000000 		.4byte	.LEHB4-.LFB48
 1717 003c 00000000 		.4byte	.LEHE4-.LEHB4
 1718 0040 00000000 		.4byte	0
 1719 0044 00       		.byte	0
 1720              		.text
 1722              		.weak	_ZTV6Thread
 1723              		.section	.rodata._ZTV6Thread,"aG",@progbits,_ZTV6Thread,comdat
 1724              		.align	3
 1727              	_ZTV6Thread:
 1728 0000 00000000 		.dword	0
 1728      00000000 
 1729 0008 00000000 		.dword	0
 1729      00000000 
 1730 0010 00000000 		.dword	_ZN6ThreadD1Ev
 1730      00000000 
 1731 0018 00000000 		.dword	_ZN6ThreadD0Ev
 1731      00000000 
 1732 0020 00000000 		.dword	_ZN6Thread3runEv
 1732      00000000 
 1733              		.weak	_ZTV9Semaphore
 1734              		.section	.rodata._ZTV9Semaphore,"aG",@progbits,_ZTV9Semaphore,comdat
 1735              		.align	3
 1738              	_ZTV9Semaphore:
 1739 0000 00000000 		.dword	0
 1739      00000000 
 1740 0008 00000000 		.dword	0
 1740      00000000 
 1741 0010 00000000 		.dword	_ZN9SemaphoreD1Ev
 1741      00000000 
 1742 0018 00000000 		.dword	_ZN9SemaphoreD0Ev
 1742      00000000 
 1743              		.weak	_ZTV16ProducerKeyboard
 1744              		.section	.rodata._ZTV16ProducerKeyboard,"aG",@progbits,_ZTV16ProducerKeyboard,comdat
 1745              		.align	3
 1748              	_ZTV16ProducerKeyboard:
 1749 0000 00000000 		.dword	0
 1749      00000000 
 1750 0008 00000000 		.dword	0
 1750      00000000 
 1751 0010 00000000 		.dword	_ZN16ProducerKeyboardD1Ev
 1751      00000000 
 1752 0018 00000000 		.dword	_ZN16ProducerKeyboardD0Ev
 1752      00000000 
GAS LISTING /tmp/ccoLQ6A6.s 			page 42


 1753 0020 00000000 		.dword	_ZN16ProducerKeyboard3runEv
 1753      00000000 
 1754              		.weak	_ZTV12ProducerSync
 1755              		.section	.rodata._ZTV12ProducerSync,"aG",@progbits,_ZTV12ProducerSync,comdat
 1756              		.align	3
 1759              	_ZTV12ProducerSync:
 1760 0000 00000000 		.dword	0
 1760      00000000 
 1761 0008 00000000 		.dword	0
 1761      00000000 
 1762 0010 00000000 		.dword	_ZN12ProducerSyncD1Ev
 1762      00000000 
 1763 0018 00000000 		.dword	_ZN12ProducerSyncD0Ev
 1763      00000000 
 1764 0020 00000000 		.dword	_ZN12ProducerSync3runEv
 1764      00000000 
 1765              		.weak	_ZTV12ConsumerSync
 1766              		.section	.rodata._ZTV12ConsumerSync,"aG",@progbits,_ZTV12ConsumerSync,comdat
 1767              		.align	3
 1770              	_ZTV12ConsumerSync:
 1771 0000 00000000 		.dword	0
 1771      00000000 
 1772 0008 00000000 		.dword	0
 1772      00000000 
 1773 0010 00000000 		.dword	_ZN12ConsumerSyncD1Ev
 1773      00000000 
 1774 0018 00000000 		.dword	_ZN12ConsumerSyncD0Ev
 1774      00000000 
 1775 0020 00000000 		.dword	_ZN12ConsumerSync3runEv
 1775      00000000 
 1776              		.section	.sbss,"aw",@nobits
 1777              		.align	3
 1780              	_ZL9threadEnd:
 1781 0000 00000000 		.zero	4
 1782 0004 00000000 		.zero	4
 1785              	_ZL10waitForAll:
 1786 0008 00000000 		.zero	8
 1786      00000000 
 1787              		.text
 1788              	.Letext0:
 1789              		.file 3 "test/../h/../lib/hw.h"
 1790              		.file 4 "test/../h/syscall_c.hpp"
 1791              		.file 5 "test/buffer_CPP_API.hpp"
 1792              		.file 6 "test/printing.hpp"
 6860              		.align	3
 6863              	DW.ref.__gxx_personality_v0:
 6864 0000 00000000 		.dword	__gxx_personality_v0
 6864      00000000 
 6865              		.ident	"GCC: () 9.3.0"
GAS LISTING /tmp/ccoLQ6A6.s 			page 43


DEFINED SYMBOLS
                            *ABS*:0000000000000000 ConsumerProducer_CPP_Sync_API_test.cpp
     /tmp/ccoLQ6A6.s:13     .text._ZN6Thread3runEv:0000000000000000 _ZN6Thread3runEv
     /tmp/ccoLQ6A6.s:17     .text._ZN6Thread3runEv:0000000000000000 .L0 
     /tmp/ccoLQ6A6.s:19     .text._ZN6Thread3runEv:0000000000000000 .L0 
     /tmp/ccoLQ6A6.s:20     .text._ZN6Thread3runEv:0000000000000004 .L0 
     /tmp/ccoLQ6A6.s:22     .text._ZN6Thread3runEv:0000000000000008 .L0 
     /tmp/ccoLQ6A6.s:24     .text._ZN6Thread3runEv:000000000000000c .L0 
     /tmp/ccoLQ6A6.s:26     .text._ZN6Thread3runEv:000000000000000c .L0 
     /tmp/ccoLQ6A6.s:27     .text._ZN6Thread3runEv:0000000000000010 .L0 
     /tmp/ccoLQ6A6.s:28     .text._ZN6Thread3runEv:0000000000000010 .L0 
     /tmp/ccoLQ6A6.s:30     .text._ZN6Thread3runEv:0000000000000014 .L0 
     /tmp/ccoLQ6A6.s:32     .text._ZN6Thread3runEv:0000000000000018 .L0 
     /tmp/ccoLQ6A6.s:39     .text._ZN6Thread13threadWrapperEPv:0000000000000000 _ZN6Thread13threadWrapperEPv
     /tmp/ccoLQ6A6.s:42     .text._ZN6Thread13threadWrapperEPv:0000000000000000 .L0 
     /tmp/ccoLQ6A6.s:44     .text._ZN6Thread13threadWrapperEPv:0000000000000000 .L0 
     /tmp/ccoLQ6A6.s:45     .text._ZN6Thread13threadWrapperEPv:0000000000000000 .L0 
     /tmp/ccoLQ6A6.s:46     .text._ZN6Thread13threadWrapperEPv:0000000000000000 .L0 
     /tmp/ccoLQ6A6.s:48     .text._ZN6Thread13threadWrapperEPv:0000000000000004 .L0 
     /tmp/ccoLQ6A6.s:49     .text._ZN6Thread13threadWrapperEPv:0000000000000008 .L0 
     /tmp/ccoLQ6A6.s:52     .text._ZN6Thread13threadWrapperEPv:0000000000000010 .L0 
     /tmp/ccoLQ6A6.s:53     .text._ZN6Thread13threadWrapperEPv:0000000000000010 .L0 
     /tmp/ccoLQ6A6.s:55     .text._ZN6Thread13threadWrapperEPv:0000000000000014 .L0 
     /tmp/ccoLQ6A6.s:57     .text._ZN6Thread13threadWrapperEPv:0000000000000014 .L0 
     /tmp/ccoLQ6A6.s:58     .text._ZN6Thread13threadWrapperEPv:0000000000000014 .L0 
     /tmp/ccoLQ6A6.s:61     .text._ZN6Thread13threadWrapperEPv:000000000000001c .L0 
     /tmp/ccoLQ6A6.s:64     .text._ZN6Thread13threadWrapperEPv:0000000000000020 .L0 
     /tmp/ccoLQ6A6.s:65     .text._ZN6Thread13threadWrapperEPv:0000000000000024 .L0 
     /tmp/ccoLQ6A6.s:67     .text._ZN6Thread13threadWrapperEPv:0000000000000028 .L0 
     /tmp/ccoLQ6A6.s:68     .text._ZN6Thread13threadWrapperEPv:0000000000000028 .L0 
     /tmp/ccoLQ6A6.s:70     .text._ZN6Thread13threadWrapperEPv:000000000000002c .L0 
     /tmp/ccoLQ6A6.s:75     .text._ZN6Thread13threadWrapperEPv:0000000000000034 .L0 
     /tmp/ccoLQ6A6.s:82     .text._ZN9SemaphoreD2Ev:0000000000000000 _ZN9SemaphoreD2Ev
     /tmp/ccoLQ6A6.s:85     .text._ZN9SemaphoreD2Ev:0000000000000000 .L0 
     /tmp/ccoLQ6A6.s:6863   .sdata.DW.ref.__gxx_personality_v0:0000000000000000 DW.ref.__gxx_personality_v0
     /tmp/ccoLQ6A6.s:89     .text._ZN9SemaphoreD2Ev:0000000000000000 .L0 
     /tmp/ccoLQ6A6.s:90     .text._ZN9SemaphoreD2Ev:0000000000000004 .L0 
     /tmp/ccoLQ6A6.s:93     .text._ZN9SemaphoreD2Ev:000000000000000c .L0 
     /tmp/ccoLQ6A6.s:94     .text._ZN9SemaphoreD2Ev:000000000000000c .L0 
     /tmp/ccoLQ6A6.s:96     .text._ZN9SemaphoreD2Ev:0000000000000010 .L0 
     /tmp/ccoLQ6A6.s:1738   .rodata._ZTV9Semaphore:0000000000000000 _ZTV9Semaphore
     /tmp/ccoLQ6A6.s:99     .text._ZN9SemaphoreD2Ev:0000000000000010 .L0 
     /tmp/ccoLQ6A6.s:102    .text._ZN9SemaphoreD2Ev:000000000000001c .L0 
     /tmp/ccoLQ6A6.s:103    .text._ZN9SemaphoreD2Ev:000000000000001c .L0 
     /tmp/ccoLQ6A6.s:109    .text._ZN9SemaphoreD2Ev:0000000000000028 .L0 
     /tmp/ccoLQ6A6.s:110    .text._ZN9SemaphoreD2Ev:000000000000002c .L0 
     /tmp/ccoLQ6A6.s:112    .text._ZN9SemaphoreD2Ev:0000000000000030 .L0 
     /tmp/ccoLQ6A6.s:113    .text._ZN9SemaphoreD2Ev:0000000000000030 .L0 
     /tmp/ccoLQ6A6.s:115    .text._ZN9SemaphoreD2Ev:0000000000000034 .L0 
     /tmp/ccoLQ6A6.s:117    .text._ZN9SemaphoreD2Ev:0000000000000038 .L0 
     /tmp/ccoLQ6A6.s:82     .text._ZN9SemaphoreD2Ev:0000000000000000 _ZN9SemaphoreD1Ev
     /tmp/ccoLQ6A6.s:134    .text._ZN9SemaphoreD0Ev:0000000000000000 _ZN9SemaphoreD0Ev
     /tmp/ccoLQ6A6.s:137    .text._ZN9SemaphoreD0Ev:0000000000000000 .L0 
     /tmp/ccoLQ6A6.s:141    .text._ZN9SemaphoreD0Ev:0000000000000000 .L0 
     /tmp/ccoLQ6A6.s:142    .text._ZN9SemaphoreD0Ev:0000000000000004 .L0 
     /tmp/ccoLQ6A6.s:146    .text._ZN9SemaphoreD0Ev:0000000000000010 .L0 
     /tmp/ccoLQ6A6.s:147    .text._ZN9SemaphoreD0Ev:0000000000000010 .L0 
GAS LISTING /tmp/ccoLQ6A6.s 			page 44


     /tmp/ccoLQ6A6.s:148    .text._ZN9SemaphoreD0Ev:0000000000000010 .L0 
     /tmp/ccoLQ6A6.s:150    .text._ZN9SemaphoreD0Ev:0000000000000014 .L0 
     /tmp/ccoLQ6A6.s:156    .text._ZN9SemaphoreD0Ev:0000000000000018 .L0 
     /tmp/ccoLQ6A6.s:159    .text._ZN9SemaphoreD0Ev:0000000000000024 .L0 
     /tmp/ccoLQ6A6.s:160    .text._ZN9SemaphoreD0Ev:0000000000000024 .L0 
     /tmp/ccoLQ6A6.s:167    .text._ZN9SemaphoreD0Ev:0000000000000030 .L0 
     /tmp/ccoLQ6A6.s:171    .text._ZN9SemaphoreD0Ev:0000000000000040 .L0 
     /tmp/ccoLQ6A6.s:173    .text._ZN9SemaphoreD0Ev:0000000000000044 .L0 
     /tmp/ccoLQ6A6.s:174    .text._ZN9SemaphoreD0Ev:0000000000000044 .L0 
     /tmp/ccoLQ6A6.s:176    .text._ZN9SemaphoreD0Ev:0000000000000048 .L0 
     /tmp/ccoLQ6A6.s:179    .text._ZN9SemaphoreD0Ev:000000000000004c .L0 
     /tmp/ccoLQ6A6.s:181    .text._ZN9SemaphoreD0Ev:0000000000000050 .L0 
     /tmp/ccoLQ6A6.s:195    .text._ZN6ThreadD2Ev:0000000000000000 _ZN6ThreadD2Ev
     /tmp/ccoLQ6A6.s:198    .text._ZN6ThreadD2Ev:0000000000000000 .L0 
     /tmp/ccoLQ6A6.s:202    .text._ZN6ThreadD2Ev:0000000000000000 .L0 
     /tmp/ccoLQ6A6.s:203    .text._ZN6ThreadD2Ev:0000000000000004 .L0 
     /tmp/ccoLQ6A6.s:206    .text._ZN6ThreadD2Ev:000000000000000c .L0 
     /tmp/ccoLQ6A6.s:207    .text._ZN6ThreadD2Ev:000000000000000c .L0 
     /tmp/ccoLQ6A6.s:209    .text._ZN6ThreadD2Ev:0000000000000010 .L0 
     /tmp/ccoLQ6A6.s:1727   .rodata._ZTV6Thread:0000000000000000 _ZTV6Thread
     /tmp/ccoLQ6A6.s:212    .text._ZN6ThreadD2Ev:0000000000000010 .L0 
     /tmp/ccoLQ6A6.s:215    .text._ZN6ThreadD2Ev:000000000000001c .L0 
     /tmp/ccoLQ6A6.s:216    .text._ZN6ThreadD2Ev:000000000000001c .L0 
     /tmp/ccoLQ6A6.s:220    .text._ZN6ThreadD2Ev:0000000000000024 .L0 
     /tmp/ccoLQ6A6.s:221    .text._ZN6ThreadD2Ev:0000000000000028 .L0 
     /tmp/ccoLQ6A6.s:223    .text._ZN6ThreadD2Ev:000000000000002c .L0 
     /tmp/ccoLQ6A6.s:224    .text._ZN6ThreadD2Ev:000000000000002c .L0 
     /tmp/ccoLQ6A6.s:226    .text._ZN6ThreadD2Ev:0000000000000030 .L0 
     /tmp/ccoLQ6A6.s:228    .text._ZN6ThreadD2Ev:0000000000000034 .L0 
     /tmp/ccoLQ6A6.s:195    .text._ZN6ThreadD2Ev:0000000000000000 _ZN6ThreadD1Ev
     /tmp/ccoLQ6A6.s:244    .text._ZN6ThreadD0Ev:0000000000000000 _ZN6ThreadD0Ev
     /tmp/ccoLQ6A6.s:247    .text._ZN6ThreadD0Ev:0000000000000000 .L0 
     /tmp/ccoLQ6A6.s:251    .text._ZN6ThreadD0Ev:0000000000000000 .L0 
     /tmp/ccoLQ6A6.s:252    .text._ZN6ThreadD0Ev:0000000000000004 .L0 
     /tmp/ccoLQ6A6.s:256    .text._ZN6ThreadD0Ev:0000000000000010 .L0 
     /tmp/ccoLQ6A6.s:257    .text._ZN6ThreadD0Ev:0000000000000010 .L0 
     /tmp/ccoLQ6A6.s:258    .text._ZN6ThreadD0Ev:0000000000000010 .L0 
     /tmp/ccoLQ6A6.s:260    .text._ZN6ThreadD0Ev:0000000000000014 .L0 
     /tmp/ccoLQ6A6.s:266    .text._ZN6ThreadD0Ev:0000000000000018 .L0 
     /tmp/ccoLQ6A6.s:269    .text._ZN6ThreadD0Ev:0000000000000024 .L0 
     /tmp/ccoLQ6A6.s:270    .text._ZN6ThreadD0Ev:0000000000000024 .L0 
     /tmp/ccoLQ6A6.s:275    .text._ZN6ThreadD0Ev:000000000000002c .L0 
     /tmp/ccoLQ6A6.s:279    .text._ZN6ThreadD0Ev:000000000000003c .L0 
     /tmp/ccoLQ6A6.s:281    .text._ZN6ThreadD0Ev:0000000000000040 .L0 
     /tmp/ccoLQ6A6.s:282    .text._ZN6ThreadD0Ev:0000000000000040 .L0 
     /tmp/ccoLQ6A6.s:284    .text._ZN6ThreadD0Ev:0000000000000044 .L0 
     /tmp/ccoLQ6A6.s:287    .text._ZN6ThreadD0Ev:0000000000000048 .L0 
     /tmp/ccoLQ6A6.s:289    .text._ZN6ThreadD0Ev:000000000000004c .L0 
     /tmp/ccoLQ6A6.s:303    .text._ZN12ConsumerSyncD2Ev:0000000000000000 _ZN12ConsumerSyncD2Ev
     /tmp/ccoLQ6A6.s:307    .text._ZN12ConsumerSyncD2Ev:0000000000000000 .L0 
     /tmp/ccoLQ6A6.s:311    .text._ZN12ConsumerSyncD2Ev:0000000000000000 .L0 
     /tmp/ccoLQ6A6.s:312    .text._ZN12ConsumerSyncD2Ev:0000000000000004 .L0 
     /tmp/ccoLQ6A6.s:315    .text._ZN12ConsumerSyncD2Ev:000000000000000c .L0 
     /tmp/ccoLQ6A6.s:316    .text._ZN12ConsumerSyncD2Ev:000000000000000c .L0 
     /tmp/ccoLQ6A6.s:318    .text._ZN12ConsumerSyncD2Ev:0000000000000010 .L0 
     /tmp/ccoLQ6A6.s:323    .text._ZN12ConsumerSyncD2Ev:0000000000000010 .L0 
     /tmp/ccoLQ6A6.s:326    .text._ZN12ConsumerSyncD2Ev:000000000000001c .L0 
GAS LISTING /tmp/ccoLQ6A6.s 			page 45


     /tmp/ccoLQ6A6.s:327    .text._ZN12ConsumerSyncD2Ev:000000000000001c .L0 
     /tmp/ccoLQ6A6.s:332    .text._ZN12ConsumerSyncD2Ev:0000000000000024 .L0 
     /tmp/ccoLQ6A6.s:333    .text._ZN12ConsumerSyncD2Ev:0000000000000028 .L0 
     /tmp/ccoLQ6A6.s:335    .text._ZN12ConsumerSyncD2Ev:000000000000002c .L0 
     /tmp/ccoLQ6A6.s:336    .text._ZN12ConsumerSyncD2Ev:000000000000002c .L0 
     /tmp/ccoLQ6A6.s:338    .text._ZN12ConsumerSyncD2Ev:0000000000000030 .L0 
     /tmp/ccoLQ6A6.s:340    .text._ZN12ConsumerSyncD2Ev:0000000000000034 .L0 
     /tmp/ccoLQ6A6.s:303    .text._ZN12ConsumerSyncD2Ev:0000000000000000 _ZN12ConsumerSyncD1Ev
     /tmp/ccoLQ6A6.s:356    .text._ZN12ConsumerSyncD0Ev:0000000000000000 _ZN12ConsumerSyncD0Ev
     /tmp/ccoLQ6A6.s:359    .text._ZN12ConsumerSyncD0Ev:0000000000000000 .L0 
     /tmp/ccoLQ6A6.s:363    .text._ZN12ConsumerSyncD0Ev:0000000000000000 .L0 
     /tmp/ccoLQ6A6.s:364    .text._ZN12ConsumerSyncD0Ev:0000000000000004 .L0 
     /tmp/ccoLQ6A6.s:368    .text._ZN12ConsumerSyncD0Ev:0000000000000010 .L0 
     /tmp/ccoLQ6A6.s:369    .text._ZN12ConsumerSyncD0Ev:0000000000000010 .L0 
     /tmp/ccoLQ6A6.s:370    .text._ZN12ConsumerSyncD0Ev:0000000000000010 .L0 
     /tmp/ccoLQ6A6.s:372    .text._ZN12ConsumerSyncD0Ev:0000000000000014 .L0 
     /tmp/ccoLQ6A6.s:379    .text._ZN12ConsumerSyncD0Ev:0000000000000018 .L0 
     /tmp/ccoLQ6A6.s:382    .text._ZN12ConsumerSyncD0Ev:0000000000000024 .L0 
     /tmp/ccoLQ6A6.s:383    .text._ZN12ConsumerSyncD0Ev:0000000000000024 .L0 
     /tmp/ccoLQ6A6.s:389    .text._ZN12ConsumerSyncD0Ev:000000000000002c .L0 
     /tmp/ccoLQ6A6.s:393    .text._ZN12ConsumerSyncD0Ev:000000000000003c .L0 
     /tmp/ccoLQ6A6.s:395    .text._ZN12ConsumerSyncD0Ev:0000000000000040 .L0 
     /tmp/ccoLQ6A6.s:396    .text._ZN12ConsumerSyncD0Ev:0000000000000040 .L0 
     /tmp/ccoLQ6A6.s:398    .text._ZN12ConsumerSyncD0Ev:0000000000000044 .L0 
     /tmp/ccoLQ6A6.s:401    .text._ZN12ConsumerSyncD0Ev:0000000000000048 .L0 
     /tmp/ccoLQ6A6.s:403    .text._ZN12ConsumerSyncD0Ev:000000000000004c .L0 
     /tmp/ccoLQ6A6.s:417    .text._ZN12ProducerSyncD2Ev:0000000000000000 _ZN12ProducerSyncD2Ev
     /tmp/ccoLQ6A6.s:420    .text._ZN12ProducerSyncD2Ev:0000000000000000 .L0 
     /tmp/ccoLQ6A6.s:424    .text._ZN12ProducerSyncD2Ev:0000000000000000 .L0 
     /tmp/ccoLQ6A6.s:425    .text._ZN12ProducerSyncD2Ev:0000000000000004 .L0 
     /tmp/ccoLQ6A6.s:428    .text._ZN12ProducerSyncD2Ev:000000000000000c .L0 
     /tmp/ccoLQ6A6.s:429    .text._ZN12ProducerSyncD2Ev:000000000000000c .L0 
     /tmp/ccoLQ6A6.s:431    .text._ZN12ProducerSyncD2Ev:0000000000000010 .L0 
     /tmp/ccoLQ6A6.s:436    .text._ZN12ProducerSyncD2Ev:0000000000000010 .L0 
     /tmp/ccoLQ6A6.s:439    .text._ZN12ProducerSyncD2Ev:000000000000001c .L0 
     /tmp/ccoLQ6A6.s:440    .text._ZN12ProducerSyncD2Ev:000000000000001c .L0 
     /tmp/ccoLQ6A6.s:445    .text._ZN12ProducerSyncD2Ev:0000000000000024 .L0 
     /tmp/ccoLQ6A6.s:446    .text._ZN12ProducerSyncD2Ev:0000000000000028 .L0 
     /tmp/ccoLQ6A6.s:448    .text._ZN12ProducerSyncD2Ev:000000000000002c .L0 
     /tmp/ccoLQ6A6.s:449    .text._ZN12ProducerSyncD2Ev:000000000000002c .L0 
     /tmp/ccoLQ6A6.s:451    .text._ZN12ProducerSyncD2Ev:0000000000000030 .L0 
     /tmp/ccoLQ6A6.s:453    .text._ZN12ProducerSyncD2Ev:0000000000000034 .L0 
     /tmp/ccoLQ6A6.s:417    .text._ZN12ProducerSyncD2Ev:0000000000000000 _ZN12ProducerSyncD1Ev
     /tmp/ccoLQ6A6.s:469    .text._ZN12ProducerSyncD0Ev:0000000000000000 _ZN12ProducerSyncD0Ev
     /tmp/ccoLQ6A6.s:472    .text._ZN12ProducerSyncD0Ev:0000000000000000 .L0 
     /tmp/ccoLQ6A6.s:476    .text._ZN12ProducerSyncD0Ev:0000000000000000 .L0 
     /tmp/ccoLQ6A6.s:477    .text._ZN12ProducerSyncD0Ev:0000000000000004 .L0 
     /tmp/ccoLQ6A6.s:481    .text._ZN12ProducerSyncD0Ev:0000000000000010 .L0 
     /tmp/ccoLQ6A6.s:482    .text._ZN12ProducerSyncD0Ev:0000000000000010 .L0 
     /tmp/ccoLQ6A6.s:483    .text._ZN12ProducerSyncD0Ev:0000000000000010 .L0 
     /tmp/ccoLQ6A6.s:485    .text._ZN12ProducerSyncD0Ev:0000000000000014 .L0 
     /tmp/ccoLQ6A6.s:492    .text._ZN12ProducerSyncD0Ev:0000000000000018 .L0 
     /tmp/ccoLQ6A6.s:495    .text._ZN12ProducerSyncD0Ev:0000000000000024 .L0 
     /tmp/ccoLQ6A6.s:496    .text._ZN12ProducerSyncD0Ev:0000000000000024 .L0 
     /tmp/ccoLQ6A6.s:502    .text._ZN12ProducerSyncD0Ev:000000000000002c .L0 
     /tmp/ccoLQ6A6.s:506    .text._ZN12ProducerSyncD0Ev:000000000000003c .L0 
     /tmp/ccoLQ6A6.s:508    .text._ZN12ProducerSyncD0Ev:0000000000000040 .L0 
GAS LISTING /tmp/ccoLQ6A6.s 			page 46


     /tmp/ccoLQ6A6.s:509    .text._ZN12ProducerSyncD0Ev:0000000000000040 .L0 
     /tmp/ccoLQ6A6.s:511    .text._ZN12ProducerSyncD0Ev:0000000000000044 .L0 
     /tmp/ccoLQ6A6.s:514    .text._ZN12ProducerSyncD0Ev:0000000000000048 .L0 
     /tmp/ccoLQ6A6.s:516    .text._ZN12ProducerSyncD0Ev:000000000000004c .L0 
     /tmp/ccoLQ6A6.s:530    .text._ZN16ProducerKeyboardD2Ev:0000000000000000 _ZN16ProducerKeyboardD2Ev
     /tmp/ccoLQ6A6.s:533    .text._ZN16ProducerKeyboardD2Ev:0000000000000000 .L0 
     /tmp/ccoLQ6A6.s:537    .text._ZN16ProducerKeyboardD2Ev:0000000000000000 .L0 
     /tmp/ccoLQ6A6.s:538    .text._ZN16ProducerKeyboardD2Ev:0000000000000004 .L0 
     /tmp/ccoLQ6A6.s:541    .text._ZN16ProducerKeyboardD2Ev:000000000000000c .L0 
     /tmp/ccoLQ6A6.s:542    .text._ZN16ProducerKeyboardD2Ev:000000000000000c .L0 
     /tmp/ccoLQ6A6.s:544    .text._ZN16ProducerKeyboardD2Ev:0000000000000010 .L0 
     /tmp/ccoLQ6A6.s:549    .text._ZN16ProducerKeyboardD2Ev:0000000000000010 .L0 
     /tmp/ccoLQ6A6.s:552    .text._ZN16ProducerKeyboardD2Ev:000000000000001c .L0 
     /tmp/ccoLQ6A6.s:553    .text._ZN16ProducerKeyboardD2Ev:000000000000001c .L0 
     /tmp/ccoLQ6A6.s:558    .text._ZN16ProducerKeyboardD2Ev:0000000000000024 .L0 
     /tmp/ccoLQ6A6.s:559    .text._ZN16ProducerKeyboardD2Ev:0000000000000028 .L0 
     /tmp/ccoLQ6A6.s:561    .text._ZN16ProducerKeyboardD2Ev:000000000000002c .L0 
     /tmp/ccoLQ6A6.s:562    .text._ZN16ProducerKeyboardD2Ev:000000000000002c .L0 
     /tmp/ccoLQ6A6.s:564    .text._ZN16ProducerKeyboardD2Ev:0000000000000030 .L0 
     /tmp/ccoLQ6A6.s:566    .text._ZN16ProducerKeyboardD2Ev:0000000000000034 .L0 
     /tmp/ccoLQ6A6.s:530    .text._ZN16ProducerKeyboardD2Ev:0000000000000000 _ZN16ProducerKeyboardD1Ev
     /tmp/ccoLQ6A6.s:582    .text._ZN16ProducerKeyboardD0Ev:0000000000000000 _ZN16ProducerKeyboardD0Ev
     /tmp/ccoLQ6A6.s:585    .text._ZN16ProducerKeyboardD0Ev:0000000000000000 .L0 
     /tmp/ccoLQ6A6.s:589    .text._ZN16ProducerKeyboardD0Ev:0000000000000000 .L0 
     /tmp/ccoLQ6A6.s:590    .text._ZN16ProducerKeyboardD0Ev:0000000000000004 .L0 
     /tmp/ccoLQ6A6.s:594    .text._ZN16ProducerKeyboardD0Ev:0000000000000010 .L0 
     /tmp/ccoLQ6A6.s:595    .text._ZN16ProducerKeyboardD0Ev:0000000000000010 .L0 
     /tmp/ccoLQ6A6.s:596    .text._ZN16ProducerKeyboardD0Ev:0000000000000010 .L0 
     /tmp/ccoLQ6A6.s:598    .text._ZN16ProducerKeyboardD0Ev:0000000000000014 .L0 
     /tmp/ccoLQ6A6.s:605    .text._ZN16ProducerKeyboardD0Ev:0000000000000018 .L0 
     /tmp/ccoLQ6A6.s:608    .text._ZN16ProducerKeyboardD0Ev:0000000000000024 .L0 
     /tmp/ccoLQ6A6.s:609    .text._ZN16ProducerKeyboardD0Ev:0000000000000024 .L0 
     /tmp/ccoLQ6A6.s:615    .text._ZN16ProducerKeyboardD0Ev:000000000000002c .L0 
     /tmp/ccoLQ6A6.s:619    .text._ZN16ProducerKeyboardD0Ev:000000000000003c .L0 
     /tmp/ccoLQ6A6.s:621    .text._ZN16ProducerKeyboardD0Ev:0000000000000040 .L0 
     /tmp/ccoLQ6A6.s:622    .text._ZN16ProducerKeyboardD0Ev:0000000000000040 .L0 
     /tmp/ccoLQ6A6.s:624    .text._ZN16ProducerKeyboardD0Ev:0000000000000044 .L0 
     /tmp/ccoLQ6A6.s:627    .text._ZN16ProducerKeyboardD0Ev:0000000000000048 .L0 
     /tmp/ccoLQ6A6.s:629    .text._ZN16ProducerKeyboardD0Ev:000000000000004c .L0 
     /tmp/ccoLQ6A6.s:643    .text:0000000000000000 _ZN16ProducerKeyboard16producerKeyboardEPv
     /tmp/ccoLQ6A6.s:646    .text:0000000000000000 .L0 
     /tmp/ccoLQ6A6.s:648    .text:0000000000000000 .L0 
     /tmp/ccoLQ6A6.s:649    .text:0000000000000004 .L0 
     /tmp/ccoLQ6A6.s:655    .text:0000000000000018 .L0 
     /tmp/ccoLQ6A6.s:656    .text:0000000000000018 .L0 
     /tmp/ccoLQ6A6.s:657    .text:0000000000000018 .L0 
     /tmp/ccoLQ6A6.s:658    .text:0000000000000018 .L0 
     /tmp/ccoLQ6A6.s:659    .text:0000000000000018 .L0 
     /tmp/ccoLQ6A6.s:661    .text:000000000000001c .L0 
     /tmp/ccoLQ6A6.s:666    .text:0000000000000024 .L0 
     /tmp/ccoLQ6A6.s:667    .text:0000000000000024 .L0 
     /tmp/ccoLQ6A6.s:668    .text:0000000000000024 .L0 
     /tmp/ccoLQ6A6.s:669    .text:0000000000000024 .L0 
     /tmp/ccoLQ6A6.s:676    .text:000000000000002c .L0 
     /tmp/ccoLQ6A6.s:677    .text:000000000000002c .L0 
     /tmp/ccoLQ6A6.s:678    .text:000000000000002c .L0 
     /tmp/ccoLQ6A6.s:684    .text:0000000000000034 .L0 
GAS LISTING /tmp/ccoLQ6A6.s 			page 47


     /tmp/ccoLQ6A6.s:685    .text:0000000000000034 .L0 
     /tmp/ccoLQ6A6.s:686    .text:0000000000000034 .L0 
     /tmp/ccoLQ6A6.s:689    .text:000000000000003c .L0 
     /tmp/ccoLQ6A6.s:692    .text:0000000000000040 .L0 
     /tmp/ccoLQ6A6.s:695    .text:0000000000000048 .L0 
     /tmp/ccoLQ6A6.s:696    .text:0000000000000048 .L0 
     /tmp/ccoLQ6A6.s:700    .text:0000000000000054 .L0 
     /tmp/ccoLQ6A6.s:701    .text:0000000000000054 .L0 
     /tmp/ccoLQ6A6.s:705    .text:000000000000005c .L0 
     /tmp/ccoLQ6A6.s:706    .text:000000000000005c .L0 
     /tmp/ccoLQ6A6.s:708    .text:0000000000000060 .L0 
     /tmp/ccoLQ6A6.s:712    .text:000000000000006c .L0 
     /tmp/ccoLQ6A6.s:714    .text:0000000000000070 .L0 
     /tmp/ccoLQ6A6.s:719    .text:0000000000000078 .L0 
     /tmp/ccoLQ6A6.s:720    .text:0000000000000078 .L0 
     /tmp/ccoLQ6A6.s:1780   .sbss:0000000000000000 _ZL9threadEnd
     /tmp/ccoLQ6A6.s:723    .text:0000000000000084 .L0 
     /tmp/ccoLQ6A6.s:725    .text:0000000000000088 .L0 
     /tmp/ccoLQ6A6.s:732    .text:0000000000000098 .L0 
     /tmp/ccoLQ6A6.s:733    .text:0000000000000098 .L0 
     /tmp/ccoLQ6A6.s:738    .text:000000000000009c .L0 
     /tmp/ccoLQ6A6.s:739    .text:000000000000009c .L0 
     /tmp/ccoLQ6A6.s:745    .text:00000000000000a8 .L0 
     /tmp/ccoLQ6A6.s:746    .text:00000000000000ac .L0 
     /tmp/ccoLQ6A6.s:748    .text:00000000000000b0 .L0 
     /tmp/ccoLQ6A6.s:749    .text:00000000000000b0 .L0 
     /tmp/ccoLQ6A6.s:751    .text:00000000000000b4 .L0 
     /tmp/ccoLQ6A6.s:754    .text:00000000000000b8 .L0 
     /tmp/ccoLQ6A6.s:757    .text:00000000000000bc .L0 
     /tmp/ccoLQ6A6.s:760    .text:00000000000000c0 .L0 
     /tmp/ccoLQ6A6.s:762    .text:00000000000000c4 .L0 
     /tmp/ccoLQ6A6.s:769    .text._ZN16ProducerKeyboard3runEv:0000000000000000 _ZN16ProducerKeyboard3runEv
     /tmp/ccoLQ6A6.s:772    .text._ZN16ProducerKeyboard3runEv:0000000000000000 .L0 
     /tmp/ccoLQ6A6.s:774    .text._ZN16ProducerKeyboard3runEv:0000000000000000 .L0 
     /tmp/ccoLQ6A6.s:775    .text._ZN16ProducerKeyboard3runEv:0000000000000004 .L0 
     /tmp/ccoLQ6A6.s:778    .text._ZN16ProducerKeyboard3runEv:000000000000000c .L0 
     /tmp/ccoLQ6A6.s:779    .text._ZN16ProducerKeyboard3runEv:000000000000000c .L0 
     /tmp/ccoLQ6A6.s:781    .text._ZN16ProducerKeyboard3runEv:0000000000000010 .L0 
     /tmp/ccoLQ6A6.s:783    .text._ZN16ProducerKeyboard3runEv:0000000000000010 .L0 
     /tmp/ccoLQ6A6.s:784    .text._ZN16ProducerKeyboard3runEv:0000000000000010 .L0 
     /tmp/ccoLQ6A6.s:788    .text._ZN16ProducerKeyboard3runEv:000000000000001c .L0 
     /tmp/ccoLQ6A6.s:789    .text._ZN16ProducerKeyboard3runEv:0000000000000020 .L0 
     /tmp/ccoLQ6A6.s:791    .text._ZN16ProducerKeyboard3runEv:0000000000000024 .L0 
     /tmp/ccoLQ6A6.s:792    .text._ZN16ProducerKeyboard3runEv:0000000000000024 .L0 
     /tmp/ccoLQ6A6.s:794    .text._ZN16ProducerKeyboard3runEv:0000000000000028 .L0 
     /tmp/ccoLQ6A6.s:796    .text._ZN16ProducerKeyboard3runEv:000000000000002c .L0 
     /tmp/ccoLQ6A6.s:803    .text:00000000000000c4 _ZN12ProducerSync8producerEPv
     /tmp/ccoLQ6A6.s:806    .text:00000000000000c4 .L0 
     /tmp/ccoLQ6A6.s:808    .text:00000000000000c4 .L0 
     /tmp/ccoLQ6A6.s:809    .text:00000000000000c8 .L0 
     /tmp/ccoLQ6A6.s:814    .text:00000000000000d8 .L0 
     /tmp/ccoLQ6A6.s:815    .text:00000000000000d8 .L0 
     /tmp/ccoLQ6A6.s:816    .text:00000000000000d8 .L0 
     /tmp/ccoLQ6A6.s:817    .text:00000000000000d8 .L0 
     /tmp/ccoLQ6A6.s:819    .text:00000000000000dc .L0 
     /tmp/ccoLQ6A6.s:823    .text:00000000000000e0 .L0 
     /tmp/ccoLQ6A6.s:824    .text:00000000000000e0 .L0 
GAS LISTING /tmp/ccoLQ6A6.s 			page 48


     /tmp/ccoLQ6A6.s:825    .text:00000000000000e0 .L0 
     /tmp/ccoLQ6A6.s:832    .text:00000000000000e8 .L0 
     /tmp/ccoLQ6A6.s:833    .text:00000000000000e8 .L0 
     /tmp/ccoLQ6A6.s:834    .text:00000000000000e8 .L0 
     /tmp/ccoLQ6A6.s:840    .text:00000000000000f0 .L0 
     /tmp/ccoLQ6A6.s:841    .text:00000000000000f0 .L0 
     /tmp/ccoLQ6A6.s:844    .text:00000000000000fc .L0 
     /tmp/ccoLQ6A6.s:845    .text:00000000000000fc .L0 
     /tmp/ccoLQ6A6.s:847    .text:0000000000000100 .L0 
     /tmp/ccoLQ6A6.s:852    .text:0000000000000110 .L0 
     /tmp/ccoLQ6A6.s:853    .text:0000000000000110 .L0 
     /tmp/ccoLQ6A6.s:857    .text:0000000000000118 .L0 
     /tmp/ccoLQ6A6.s:858    .text:0000000000000118 .L0 
     /tmp/ccoLQ6A6.s:860    .text:000000000000011c .L0 
     /tmp/ccoLQ6A6.s:864    .text:0000000000000128 .L0 
     /tmp/ccoLQ6A6.s:866    .text:000000000000012c .L0 
     /tmp/ccoLQ6A6.s:871    .text:0000000000000134 .L0 
     /tmp/ccoLQ6A6.s:872    .text:0000000000000134 .L0 
     /tmp/ccoLQ6A6.s:877    .text:0000000000000138 .L0 
     /tmp/ccoLQ6A6.s:878    .text:0000000000000138 .L0 
     /tmp/ccoLQ6A6.s:884    .text:0000000000000144 .L0 
     /tmp/ccoLQ6A6.s:885    .text:0000000000000148 .L0 
     /tmp/ccoLQ6A6.s:887    .text:000000000000014c .L0 
     /tmp/ccoLQ6A6.s:888    .text:000000000000014c .L0 
     /tmp/ccoLQ6A6.s:890    .text:0000000000000150 .L0 
     /tmp/ccoLQ6A6.s:893    .text:0000000000000154 .L0 
     /tmp/ccoLQ6A6.s:896    .text:0000000000000158 .L0 
     /tmp/ccoLQ6A6.s:898    .text:000000000000015c .L0 
     /tmp/ccoLQ6A6.s:905    .text._ZN12ProducerSync3runEv:0000000000000000 _ZN12ProducerSync3runEv
     /tmp/ccoLQ6A6.s:908    .text._ZN12ProducerSync3runEv:0000000000000000 .L0 
     /tmp/ccoLQ6A6.s:910    .text._ZN12ProducerSync3runEv:0000000000000000 .L0 
     /tmp/ccoLQ6A6.s:911    .text._ZN12ProducerSync3runEv:0000000000000004 .L0 
     /tmp/ccoLQ6A6.s:914    .text._ZN12ProducerSync3runEv:000000000000000c .L0 
     /tmp/ccoLQ6A6.s:915    .text._ZN12ProducerSync3runEv:000000000000000c .L0 
     /tmp/ccoLQ6A6.s:917    .text._ZN12ProducerSync3runEv:0000000000000010 .L0 
     /tmp/ccoLQ6A6.s:919    .text._ZN12ProducerSync3runEv:0000000000000010 .L0 
     /tmp/ccoLQ6A6.s:920    .text._ZN12ProducerSync3runEv:0000000000000010 .L0 
     /tmp/ccoLQ6A6.s:924    .text._ZN12ProducerSync3runEv:000000000000001c .L0 
     /tmp/ccoLQ6A6.s:925    .text._ZN12ProducerSync3runEv:0000000000000020 .L0 
     /tmp/ccoLQ6A6.s:927    .text._ZN12ProducerSync3runEv:0000000000000024 .L0 
     /tmp/ccoLQ6A6.s:928    .text._ZN12ProducerSync3runEv:0000000000000024 .L0 
     /tmp/ccoLQ6A6.s:930    .text._ZN12ProducerSync3runEv:0000000000000028 .L0 
     /tmp/ccoLQ6A6.s:932    .text._ZN12ProducerSync3runEv:000000000000002c .L0 
     /tmp/ccoLQ6A6.s:939    .text:000000000000015c _ZN12ConsumerSync8consumerEPv
     /tmp/ccoLQ6A6.s:942    .text:000000000000015c .L0 
     /tmp/ccoLQ6A6.s:944    .text:000000000000015c .L0 
     /tmp/ccoLQ6A6.s:945    .text:0000000000000160 .L0 
     /tmp/ccoLQ6A6.s:952    .text:0000000000000178 .L0 
     /tmp/ccoLQ6A6.s:953    .text:0000000000000178 .L0 
     /tmp/ccoLQ6A6.s:954    .text:0000000000000178 .L0 
     /tmp/ccoLQ6A6.s:955    .text:0000000000000178 .L0 
     /tmp/ccoLQ6A6.s:956    .text:0000000000000178 .L0 
     /tmp/ccoLQ6A6.s:957    .text:0000000000000178 .L0 
     /tmp/ccoLQ6A6.s:959    .text:000000000000017c .L0 
     /tmp/ccoLQ6A6.s:964    .text:0000000000000184 .L0 
     /tmp/ccoLQ6A6.s:965    .text:0000000000000184 .L0 
     /tmp/ccoLQ6A6.s:966    .text:0000000000000184 .L0 
GAS LISTING /tmp/ccoLQ6A6.s 			page 49


     /tmp/ccoLQ6A6.s:974    .text:000000000000018c .L0 
     /tmp/ccoLQ6A6.s:975    .text:000000000000018c .L0 
     /tmp/ccoLQ6A6.s:976    .text:000000000000018c .L0 
     /tmp/ccoLQ6A6.s:979    .text:0000000000000194 .L0 
     /tmp/ccoLQ6A6.s:985    .text:0000000000000198 .L0 
     /tmp/ccoLQ6A6.s:986    .text:0000000000000198 .L0 
     /tmp/ccoLQ6A6.s:992    .text:00000000000001a4 .L0 
     /tmp/ccoLQ6A6.s:993    .text:00000000000001a4 .L0 
     /tmp/ccoLQ6A6.s:997    .text:00000000000001b0 .L0 
     /tmp/ccoLQ6A6.s:998    .text:00000000000001b0 .L0 
     /tmp/ccoLQ6A6.s:1002   .text:00000000000001bc .L0 
     /tmp/ccoLQ6A6.s:1003   .text:00000000000001bc .L0 
     /tmp/ccoLQ6A6.s:1007   .text:00000000000001c4 .L0 
     /tmp/ccoLQ6A6.s:1008   .text:00000000000001c4 .L0 
     /tmp/ccoLQ6A6.s:1013   .text:00000000000001d0 .L0 
     /tmp/ccoLQ6A6.s:1014   .text:00000000000001d0 .L0 
     /tmp/ccoLQ6A6.s:1016   .text:00000000000001d4 .L0 
     /tmp/ccoLQ6A6.s:1019   .text:00000000000001dc .L0 
     /tmp/ccoLQ6A6.s:1021   .text:00000000000001e0 .L0 
     /tmp/ccoLQ6A6.s:1024   .text:00000000000001e4 .L0 
     /tmp/ccoLQ6A6.s:1025   .text:00000000000001e4 .L0 
     /tmp/ccoLQ6A6.s:1029   .text:00000000000001ec .L0 
     /tmp/ccoLQ6A6.s:1035   .text:00000000000001f4 .L0 
     /tmp/ccoLQ6A6.s:1036   .text:00000000000001f4 .L0 
     /tmp/ccoLQ6A6.s:1038   .text:00000000000001f8 .L0 
     /tmp/ccoLQ6A6.s:1042   .text:0000000000000204 .L0 
     /tmp/ccoLQ6A6.s:1043   .text:0000000000000204 .L0 
     /tmp/ccoLQ6A6.s:1050   .text:0000000000000210 .L0 
     /tmp/ccoLQ6A6.s:1051   .text:0000000000000210 .L0 
     /tmp/ccoLQ6A6.s:1052   .text:0000000000000210 .L0 
     /tmp/ccoLQ6A6.s:1054   .text:0000000000000214 .L0 
     /tmp/ccoLQ6A6.s:1058   .text:0000000000000220 .L0 
     /tmp/ccoLQ6A6.s:1060   .text:0000000000000224 .L0 
     /tmp/ccoLQ6A6.s:1061   .text:0000000000000224 .L0 
     /tmp/ccoLQ6A6.s:1066   .text:0000000000000228 .L0 
     /tmp/ccoLQ6A6.s:1067   .text:0000000000000228 .L0 
     /tmp/ccoLQ6A6.s:1073   .text:0000000000000234 .L0 
     /tmp/ccoLQ6A6.s:1074   .text:0000000000000238 .L0 
     /tmp/ccoLQ6A6.s:1076   .text:000000000000023c .L0 
     /tmp/ccoLQ6A6.s:1077   .text:000000000000023c .L0 
     /tmp/ccoLQ6A6.s:1079   .text:0000000000000240 .L0 
     /tmp/ccoLQ6A6.s:1081   .text:0000000000000244 .L0 
     /tmp/ccoLQ6A6.s:1084   .text:0000000000000248 .L0 
     /tmp/ccoLQ6A6.s:1087   .text:000000000000024c .L0 
     /tmp/ccoLQ6A6.s:1090   .text:0000000000000250 .L0 
     /tmp/ccoLQ6A6.s:1092   .text:0000000000000254 .L0 
     /tmp/ccoLQ6A6.s:1099   .text._ZN12ConsumerSync3runEv:0000000000000000 _ZN12ConsumerSync3runEv
     /tmp/ccoLQ6A6.s:1102   .text._ZN12ConsumerSync3runEv:0000000000000000 .L0 
     /tmp/ccoLQ6A6.s:1104   .text._ZN12ConsumerSync3runEv:0000000000000000 .L0 
     /tmp/ccoLQ6A6.s:1105   .text._ZN12ConsumerSync3runEv:0000000000000004 .L0 
     /tmp/ccoLQ6A6.s:1108   .text._ZN12ConsumerSync3runEv:000000000000000c .L0 
     /tmp/ccoLQ6A6.s:1109   .text._ZN12ConsumerSync3runEv:000000000000000c .L0 
     /tmp/ccoLQ6A6.s:1111   .text._ZN12ConsumerSync3runEv:0000000000000010 .L0 
     /tmp/ccoLQ6A6.s:1113   .text._ZN12ConsumerSync3runEv:0000000000000010 .L0 
     /tmp/ccoLQ6A6.s:1114   .text._ZN12ConsumerSync3runEv:0000000000000010 .L0 
     /tmp/ccoLQ6A6.s:1118   .text._ZN12ConsumerSync3runEv:000000000000001c .L0 
     /tmp/ccoLQ6A6.s:1119   .text._ZN12ConsumerSync3runEv:0000000000000020 .L0 
GAS LISTING /tmp/ccoLQ6A6.s 			page 50


     /tmp/ccoLQ6A6.s:1121   .text._ZN12ConsumerSync3runEv:0000000000000024 .L0 
     /tmp/ccoLQ6A6.s:1122   .text._ZN12ConsumerSync3runEv:0000000000000024 .L0 
     /tmp/ccoLQ6A6.s:1124   .text._ZN12ConsumerSync3runEv:0000000000000028 .L0 
     /tmp/ccoLQ6A6.s:1126   .text._ZN12ConsumerSync3runEv:000000000000002c .L0 
     /tmp/ccoLQ6A6.s:1155   .text:0000000000000254 _Z29producerConsumer_CPP_Sync_APIv
     /tmp/ccoLQ6A6.s:1158   .text:0000000000000254 .L0 
     /tmp/ccoLQ6A6.s:1161   .text:0000000000000254 .L0 
     /tmp/ccoLQ6A6.s:1162   .text:0000000000000258 .L0 
     /tmp/ccoLQ6A6.s:1173   .text:0000000000000280 .L0 
     /tmp/ccoLQ6A6.s:1174   .text:0000000000000280 .L0 
     /tmp/ccoLQ6A6.s:1175   .text:0000000000000280 .L0 
     /tmp/ccoLQ6A6.s:1176   .text:0000000000000280 .L0 
     /tmp/ccoLQ6A6.s:1177   .text:0000000000000280 .L0 
     /tmp/ccoLQ6A6.s:1178   .text:0000000000000280 .L0 
     /tmp/ccoLQ6A6.s:1179   .text:0000000000000280 .L0 
     /tmp/ccoLQ6A6.s:1180   .text:0000000000000280 .L0 
     /tmp/ccoLQ6A6.s:1181   .text:0000000000000280 .L0 
     /tmp/ccoLQ6A6.s:1182   .text:0000000000000280 .L0 
     /tmp/ccoLQ6A6.s:1184   .text:0000000000000284 .L0 
     /tmp/ccoLQ6A6.s:1186   .text:0000000000000284 .L0 
     /tmp/ccoLQ6A6.s:1188   .text:0000000000000288 .L0 
     /tmp/ccoLQ6A6.s:1189   .text:0000000000000288 .L0 
     /tmp/ccoLQ6A6.s:1190   .text:0000000000000288 .L0 
     /tmp/ccoLQ6A6.s:1191   .text:0000000000000288 .L0 
     /tmp/ccoLQ6A6.s:1196   .text:0000000000000298 .L0 
     /tmp/ccoLQ6A6.s:1197   .text:0000000000000298 .L0 
     /tmp/ccoLQ6A6.s:1202   .text:00000000000002a8 .L0 
     /tmp/ccoLQ6A6.s:1203   .text:00000000000002a8 .L0 
     /tmp/ccoLQ6A6.s:1209   .text:00000000000002b8 .L0 
     /tmp/ccoLQ6A6.s:1210   .text:00000000000002b8 .L0 
     /tmp/ccoLQ6A6.s:1214   .text:00000000000002c8 .L0 
     /tmp/ccoLQ6A6.s:1215   .text:00000000000002c8 .L0 
     /tmp/ccoLQ6A6.s:1220   .text:00000000000002d8 .L0 
     /tmp/ccoLQ6A6.s:1221   .text:00000000000002d8 .L0 
     /tmp/ccoLQ6A6.s:1227   .text:00000000000002e8 .L0 
     /tmp/ccoLQ6A6.s:1228   .text:00000000000002e8 .L0 
     /tmp/ccoLQ6A6.s:1232   .text:00000000000002f8 .L0 
     /tmp/ccoLQ6A6.s:1233   .text:00000000000002f8 .L0 
     /tmp/ccoLQ6A6.s:1239   .text:000000000000030c .L0 
     /tmp/ccoLQ6A6.s:1240   .text:000000000000030c .L0 
     /tmp/ccoLQ6A6.s:1244   .text:000000000000031c .L0 
     /tmp/ccoLQ6A6.s:1245   .text:000000000000031c .L0 
     /tmp/ccoLQ6A6.s:1251   .text:0000000000000330 .L0 
     /tmp/ccoLQ6A6.s:1252   .text:0000000000000330 .L0 
     /tmp/ccoLQ6A6.s:1256   .text:0000000000000340 .L0 
     /tmp/ccoLQ6A6.s:1258   .text:0000000000000344 .L0 
     /tmp/ccoLQ6A6.s:1260   .text:0000000000000348 .L0 
     /tmp/ccoLQ6A6.s:1261   .text:0000000000000348 .L0 
     /tmp/ccoLQ6A6.s:1274   .text:0000000000000368 .L0 
     /tmp/ccoLQ6A6.s:1275   .text:0000000000000368 .L0 
     /tmp/ccoLQ6A6.s:1280   .text:0000000000000378 .L0 
     /tmp/ccoLQ6A6.s:1283   .text:000000000000037c .L0 
     /tmp/ccoLQ6A6.s:1284   .text:000000000000037c .L0 
     /tmp/ccoLQ6A6.s:1289   .text:000000000000038c .L0 
     /tmp/ccoLQ6A6.s:1294   .text:0000000000000394 .L0 
     /tmp/ccoLQ6A6.s:1295   .text:0000000000000394 .L0 
     /tmp/ccoLQ6A6.s:1305   .text:00000000000003a4 .L0 
GAS LISTING /tmp/ccoLQ6A6.s 			page 51


     /tmp/ccoLQ6A6.s:1308   .text:00000000000003b0 .L0 
     /tmp/ccoLQ6A6.s:1309   .text:00000000000003b0 .L0 
     /tmp/ccoLQ6A6.s:1785   .sbss:0000000000000008 _ZL10waitForAll
     /tmp/ccoLQ6A6.s:1319   .text:00000000000003c0 .L0 
     /tmp/ccoLQ6A6.s:1322   .text:00000000000003c8 .L0 
     /tmp/ccoLQ6A6.s:1323   .text:00000000000003c8 .L0 
     /tmp/ccoLQ6A6.s:1330   .text:00000000000003dc .L0 
     /tmp/ccoLQ6A6.s:1331   .text:00000000000003dc .L0 
     /tmp/ccoLQ6A6.s:1332   .text:00000000000003dc .L0 
     /tmp/ccoLQ6A6.s:1335   .text:00000000000003e0 .L0 
     /tmp/ccoLQ6A6.s:1345   .text:00000000000003fc .L0 
     /tmp/ccoLQ6A6.s:1346   .text:00000000000003fc .L0 
     /tmp/ccoLQ6A6.s:1352   .text:0000000000000410 .L0 
     /tmp/ccoLQ6A6.s:1353   .text:0000000000000410 .L0 
     /tmp/ccoLQ6A6.s:1355   .text:0000000000000414 .L0 
     /tmp/ccoLQ6A6.s:1356   .text:0000000000000414 .L0 
     /tmp/ccoLQ6A6.s:1358   .text:0000000000000418 .L0 
     /tmp/ccoLQ6A6.s:1359   .text:0000000000000418 .L0 
     /tmp/ccoLQ6A6.s:1365   .text:0000000000000428 .L0 
     /tmp/ccoLQ6A6.s:1368   .text:0000000000000430 .L0 
     /tmp/ccoLQ6A6.s:1375   .text:0000000000000434 .L0 
     /tmp/ccoLQ6A6.s:1770   .rodata._ZTV12ConsumerSync:0000000000000000 _ZTV12ConsumerSync
     /tmp/ccoLQ6A6.s:1380   .text:0000000000000438 .L0 
     /tmp/ccoLQ6A6.s:1389   .text:0000000000000448 .L0 
     /tmp/ccoLQ6A6.s:1390   .text:0000000000000448 .L0 
     /tmp/ccoLQ6A6.s:1391   .text:0000000000000448 .L0 
     /tmp/ccoLQ6A6.s:1392   .text:0000000000000448 .L0 
     /tmp/ccoLQ6A6.s:1402   .text:0000000000000460 .L0 
     /tmp/ccoLQ6A6.s:1403   .text:0000000000000460 .L0 
     /tmp/ccoLQ6A6.s:1408   .text:0000000000000464 .L0 
     /tmp/ccoLQ6A6.s:1415   .text:0000000000000468 .L0 
     /tmp/ccoLQ6A6.s:1416   .text:0000000000000468 .L0 
     /tmp/ccoLQ6A6.s:1420   .text:0000000000000474 .L0 
     /tmp/ccoLQ6A6.s:1424   .text:0000000000000480 .L0 
     /tmp/ccoLQ6A6.s:1431   .text:0000000000000484 .L0 
     /tmp/ccoLQ6A6.s:1748   .rodata._ZTV16ProducerKeyboard:0000000000000000 _ZTV16ProducerKeyboard
     /tmp/ccoLQ6A6.s:1436   .text:0000000000000488 .L0 
     /tmp/ccoLQ6A6.s:1443   .text:0000000000000498 .L0 
     /tmp/ccoLQ6A6.s:1452   .text:00000000000004a8 .L0 
     /tmp/ccoLQ6A6.s:1453   .text:00000000000004a8 .L0 
     /tmp/ccoLQ6A6.s:1463   .text:00000000000004c0 .L0 
     /tmp/ccoLQ6A6.s:1464   .text:00000000000004c0 .L0 
     /tmp/ccoLQ6A6.s:1468   .text:00000000000004c4 .L0 
     /tmp/ccoLQ6A6.s:1470   .text:00000000000004c8 .L0 
     /tmp/ccoLQ6A6.s:1471   .text:00000000000004c8 .L0 
     /tmp/ccoLQ6A6.s:1477   .text:00000000000004dc .L0 
     /tmp/ccoLQ6A6.s:1478   .text:00000000000004dc .L0 
     /tmp/ccoLQ6A6.s:1480   .text:00000000000004e0 .L0 
     /tmp/ccoLQ6A6.s:1481   .text:00000000000004e0 .L0 
     /tmp/ccoLQ6A6.s:1484   .text:00000000000004ec .L0 
     /tmp/ccoLQ6A6.s:1486   .text:00000000000004f0 .L0 
     /tmp/ccoLQ6A6.s:1487   .text:00000000000004f0 .L0 
     /tmp/ccoLQ6A6.s:1491   .text:00000000000004fc .L0 
     /tmp/ccoLQ6A6.s:1495   .text:0000000000000508 .L0 
     /tmp/ccoLQ6A6.s:1502   .text:000000000000050c .L0 
     /tmp/ccoLQ6A6.s:1759   .rodata._ZTV12ProducerSync:0000000000000000 _ZTV12ProducerSync
     /tmp/ccoLQ6A6.s:1507   .text:0000000000000510 .L0 
GAS LISTING /tmp/ccoLQ6A6.s 			page 52


     /tmp/ccoLQ6A6.s:1514   .text:0000000000000520 .L0 
     /tmp/ccoLQ6A6.s:1519   .text:000000000000052c .L0 
     /tmp/ccoLQ6A6.s:1520   .text:000000000000052c .L0 
     /tmp/ccoLQ6A6.s:1527   .text:0000000000000538 .L0 
     /tmp/ccoLQ6A6.s:1528   .text:0000000000000538 .L0 
     /tmp/ccoLQ6A6.s:1530   .text:000000000000053c .L0 
     /tmp/ccoLQ6A6.s:1532   .text:0000000000000540 .L0 
     /tmp/ccoLQ6A6.s:1533   .text:0000000000000540 .L0 
     /tmp/ccoLQ6A6.s:1546   .text:0000000000000554 .L0 
     /tmp/ccoLQ6A6.s:1547   .text:0000000000000554 .L0 
     /tmp/ccoLQ6A6.s:1548   .text:0000000000000554 .L0 
     /tmp/ccoLQ6A6.s:1554   .text:000000000000055c .L0 
     /tmp/ccoLQ6A6.s:1558   .text:0000000000000560 .L0 
     /tmp/ccoLQ6A6.s:1563   .text:0000000000000564 .L0 
     /tmp/ccoLQ6A6.s:1564   .text:0000000000000564 .L0 
     /tmp/ccoLQ6A6.s:1565   .text:0000000000000564 .L0 
     /tmp/ccoLQ6A6.s:1572   .text:0000000000000578 .L0 
     /tmp/ccoLQ6A6.s:1580   .text:0000000000000580 .L0 
     /tmp/ccoLQ6A6.s:1586   .text:0000000000000588 .L0 
     /tmp/ccoLQ6A6.s:1590   .text:000000000000058c .L0 
     /tmp/ccoLQ6A6.s:1592   .text:0000000000000590 .L0 
     /tmp/ccoLQ6A6.s:1593   .text:0000000000000590 .L0 
     /tmp/ccoLQ6A6.s:1597   .text:000000000000059c .L0 
     /tmp/ccoLQ6A6.s:1599   .text:00000000000005a0 .L0 
     /tmp/ccoLQ6A6.s:1607   .text:00000000000005b0 .L0 
     /tmp/ccoLQ6A6.s:1608   .text:00000000000005b0 .L0 
     /tmp/ccoLQ6A6.s:1610   .text:00000000000005b4 .L0 
     /tmp/ccoLQ6A6.s:1617   .text:00000000000005c4 .L0 
     /tmp/ccoLQ6A6.s:1618   .text:00000000000005c4 .L0 
     /tmp/ccoLQ6A6.s:1620   .text:00000000000005cc .L0 
     /tmp/ccoLQ6A6.s:1622   .text:00000000000005d0 .L0 
     /tmp/ccoLQ6A6.s:1628   .text:00000000000005dc .L0 
     /tmp/ccoLQ6A6.s:1629   .text:00000000000005dc .L0 
     /tmp/ccoLQ6A6.s:1631   .text:00000000000005e0 .L0 
     /tmp/ccoLQ6A6.s:1642   .text:00000000000005fc .L0 
     /tmp/ccoLQ6A6.s:1643   .text:0000000000000600 .L0 
     /tmp/ccoLQ6A6.s:1644   .text:0000000000000600 .L0 
     /tmp/ccoLQ6A6.s:1646   .text:0000000000000604 .L0 
     /tmp/ccoLQ6A6.s:1648   .text:0000000000000608 .L0 
     /tmp/ccoLQ6A6.s:1650   .text:000000000000060c .L0 
     /tmp/ccoLQ6A6.s:1652   .text:0000000000000610 .L0 
     /tmp/ccoLQ6A6.s:1655   .text:0000000000000614 .L0 
     /tmp/ccoLQ6A6.s:1657   .text:0000000000000618 .L0 
     /tmp/ccoLQ6A6.s:1659   .text:000000000000061c .L0 
     /tmp/ccoLQ6A6.s:1661   .text:0000000000000620 .L0 
     /tmp/ccoLQ6A6.s:1663   .text:0000000000000624 .L0 
     /tmp/ccoLQ6A6.s:1665   .text:0000000000000628 .L0 
     /tmp/ccoLQ6A6.s:1667   .text:000000000000062c .L0 
     /tmp/ccoLQ6A6.s:1671   .text:0000000000000630 .L0 
     /tmp/ccoLQ6A6.s:1675   .text:0000000000000634 .L0 
     /tmp/ccoLQ6A6.s:1685   .text:0000000000000650 .L0 
     /tmp/ccoLQ6A6.s:1692   .text:0000000000000668 .L0 
     /tmp/ccoLQ6A6.s:35     .text._ZN6Thread3runEv:0000000000000018 .L0 
     /tmp/ccoLQ6A6.s:78     .text._ZN6Thread13threadWrapperEPv:0000000000000034 .L0 
     /tmp/ccoLQ6A6.s:130    .text._ZN9SemaphoreD2Ev:0000000000000038 .L0 
     /tmp/ccoLQ6A6.s:191    .text._ZN9SemaphoreD0Ev:0000000000000050 .L0 
     /tmp/ccoLQ6A6.s:240    .text._ZN6ThreadD2Ev:0000000000000034 .L0 
GAS LISTING /tmp/ccoLQ6A6.s 			page 53


     /tmp/ccoLQ6A6.s:299    .text._ZN6ThreadD0Ev:000000000000004c .L0 
     /tmp/ccoLQ6A6.s:352    .text._ZN12ConsumerSyncD2Ev:0000000000000034 .L0 
     /tmp/ccoLQ6A6.s:413    .text._ZN12ConsumerSyncD0Ev:000000000000004c .L0 
     /tmp/ccoLQ6A6.s:465    .text._ZN12ProducerSyncD2Ev:0000000000000034 .L0 
     /tmp/ccoLQ6A6.s:526    .text._ZN12ProducerSyncD0Ev:000000000000004c .L0 
     /tmp/ccoLQ6A6.s:578    .text._ZN16ProducerKeyboardD2Ev:0000000000000034 .L0 
     /tmp/ccoLQ6A6.s:639    .text._ZN16ProducerKeyboardD0Ev:000000000000004c .L0 
     /tmp/ccoLQ6A6.s:1793   .text:0000000000000668 .L0 
     /tmp/ccoLQ6A6.s:799    .text._ZN16ProducerKeyboard3runEv:000000000000002c .L0 
     /tmp/ccoLQ6A6.s:935    .text._ZN12ProducerSync3runEv:000000000000002c .L0 
     /tmp/ccoLQ6A6.s:1129   .text._ZN12ConsumerSync3runEv:000000000000002c .L0 
     /tmp/ccoLQ6A6.s:721    .text:000000000000007c .L0 
     /tmp/ccoLQ6A6.s:841    .text:00000000000000f0 .L0 
     /tmp/ccoLQ6A6.s:993    .text:00000000000001a4 .L0 
     /tmp/ccoLQ6A6.s:1131   .rodata.str1.8:0000000000000000 .LC0
     /tmp/ccoLQ6A6.s:1191   .text:0000000000000288 .L0 
     /tmp/ccoLQ6A6.s:1134   .rodata.str1.8:0000000000000020 .LC1
     /tmp/ccoLQ6A6.s:1210   .text:00000000000002b8 .L0 
     /tmp/ccoLQ6A6.s:1137   .rodata.str1.8:0000000000000040 .LC2
     /tmp/ccoLQ6A6.s:1228   .text:00000000000002e8 .L0 
     /tmp/ccoLQ6A6.s:1140   .rodata.str1.8:0000000000000058 .LC3
     /tmp/ccoLQ6A6.s:1240   .text:000000000000030c .L0 
     /tmp/ccoLQ6A6.s:1143   .rodata.str1.8:0000000000000070 .LC4
     /tmp/ccoLQ6A6.s:1252   .text:0000000000000330 .L0 
     /tmp/ccoLQ6A6.s:1146   .rodata.str1.8:0000000000000078 .LC5
     /tmp/ccoLQ6A6.s:1275   .text:0000000000000368 .L0 
     /tmp/ccoLQ6A6.s:1149   .rodata.str1.8:00000000000000b8 .LC6
     /tmp/ccoLQ6A6.s:1284   .text:000000000000037c .L0 
     /tmp/ccoLQ6A6.s:1305   .text:00000000000003a4 .L0 
     /tmp/ccoLQ6A6.s:1319   .text:00000000000003c0 .L0 
     /tmp/ccoLQ6A6.s:1380   .text:0000000000000438 .L0 
     /tmp/ccoLQ6A6.s:1393   .text:000000000000044c .L0 
     /tmp/ccoLQ6A6.s:1436   .text:0000000000000488 .L0 
     /tmp/ccoLQ6A6.s:1454   .text:00000000000004ac .L0 
     /tmp/ccoLQ6A6.s:1481   .text:00000000000004e0 .L0 
     /tmp/ccoLQ6A6.s:1507   .text:0000000000000510 .L0 
     /tmp/ccoLQ6A6.s:1565   .text:0000000000000564 .L0 
     /tmp/ccoLQ6A6.s:1618   .text:00000000000005c4 .L0 
     /tmp/ccoLQ6A6.s:680    .text:0000000000000034 .L30
     /tmp/ccoLQ6A6.s:717    .text:0000000000000078 .L31
     /tmp/ccoLQ6A6.s:672    .text:000000000000002c .L34
     /tmp/ccoLQ6A6.s:836    .text:00000000000000f0 .L38
     /tmp/ccoLQ6A6.s:869    .text:0000000000000134 .L39
     /tmp/ccoLQ6A6.s:828    .text:00000000000000e8 .L42
     /tmp/ccoLQ6A6.s:989    .text:00000000000001a4 .L46
     /tmp/ccoLQ6A6.s:1022   .text:00000000000001e4 .L48
     /tmp/ccoLQ6A6.s:1047   .text:0000000000000210 .L47
     /tmp/ccoLQ6A6.s:969    .text:000000000000018c .L52
     /tmp/ccoLQ6A6.s:981    .text:0000000000000198 .L53
     /tmp/ccoLQ6A6.s:1031   .text:00000000000001f4 .L54
     /tmp/ccoLQ6A6.s:1272   .text:0000000000000368 .L82
     /tmp/ccoLQ6A6.s:1281   .text:000000000000037c .L83
     /tmp/ccoLQ6A6.s:1291   .text:0000000000000394 .L84
     /tmp/ccoLQ6A6.s:1288   .text:000000000000038c .L59
     /tmp/ccoLQ6A6.s:1640   .text:00000000000005fc .L57
     /tmp/ccoLQ6A6.s:1466   .text:00000000000004c4 .L62
     /tmp/ccoLQ6A6.s:1517   .text:000000000000052c .L65
GAS LISTING /tmp/ccoLQ6A6.s 			page 54


     /tmp/ccoLQ6A6.s:1539   .text:0000000000000554 .L63
     /tmp/ccoLQ6A6.s:1410   .text:0000000000000468 .L64
     /tmp/ccoLQ6A6.s:1448   .text:00000000000004a8 .L85
     /tmp/ccoLQ6A6.s:1459   .text:00000000000004c0 .L67
     /tmp/ccoLQ6A6.s:1576   .text:0000000000000580 .L78
     /tmp/ccoLQ6A6.s:1556   .text:0000000000000560 .L69
     /tmp/ccoLQ6A6.s:1588   .text:000000000000058c .L68
     /tmp/ccoLQ6A6.s:1604   .text:00000000000005b0 .L70
     /tmp/ccoLQ6A6.s:1584   .text:0000000000000588 .L71
     /tmp/ccoLQ6A6.s:1615   .text:00000000000005c4 .L72
     /tmp/ccoLQ6A6.s:1626   .text:00000000000005dc .L73
     /tmp/ccoLQ6A6.s:1637   .text:00000000000005f8 .L74
     /tmp/ccoLQ6A6.s:73     .text._ZN6Thread13threadWrapperEPv:0000000000000030 .L6
     /tmp/ccoLQ6A6.s:99     .text._ZN9SemaphoreD2Ev:0000000000000010 .L0 
     /tmp/ccoLQ6A6.s:156    .text._ZN9SemaphoreD0Ev:0000000000000018 .L0 
     /tmp/ccoLQ6A6.s:212    .text._ZN6ThreadD2Ev:0000000000000010 .L0 
     /tmp/ccoLQ6A6.s:266    .text._ZN6ThreadD0Ev:0000000000000018 .L0 
     /tmp/ccoLQ6A6.s:323    .text._ZN12ConsumerSyncD2Ev:0000000000000010 .L0 
     /tmp/ccoLQ6A6.s:379    .text._ZN12ConsumerSyncD0Ev:0000000000000018 .L0 
     /tmp/ccoLQ6A6.s:436    .text._ZN12ProducerSyncD2Ev:0000000000000010 .L0 
     /tmp/ccoLQ6A6.s:492    .text._ZN12ProducerSyncD0Ev:0000000000000018 .L0 
     /tmp/ccoLQ6A6.s:549    .text._ZN16ProducerKeyboardD2Ev:0000000000000010 .L0 
     /tmp/ccoLQ6A6.s:605    .text._ZN16ProducerKeyboardD0Ev:0000000000000018 .L0 
     /tmp/ccoLQ6A6.s:1192   .text:0000000000000290 .LEHB0
     /tmp/ccoLQ6A6.s:1156   .text:0000000000000254 .LFB48
     /tmp/ccoLQ6A6.s:1264   .text:0000000000000354 .LEHE0
     /tmp/ccoLQ6A6.s:1267   .text:000000000000035c .LEHB1
     /tmp/ccoLQ6A6.s:1270   .text:0000000000000364 .LEHE1
     /tmp/ccoLQ6A6.s:1670   .text:0000000000000630 .L79
     /tmp/ccoLQ6A6.s:1276   .text:0000000000000370 .LEHB2
     /tmp/ccoLQ6A6.s:1298   .text:00000000000003a0 .LEHE2
     /tmp/ccoLQ6A6.s:1311   .text:00000000000003b8 .LEHB3
     /tmp/ccoLQ6A6.s:1314   .text:00000000000003c0 .LEHE3
     /tmp/ccoLQ6A6.s:1681   .text:000000000000064c .L80
     /tmp/ccoLQ6A6.s:1360   .text:000000000000041c .LEHB4
     /tmp/ccoLQ6A6.s:1691   .text:0000000000000668 .LEHE4
     /tmp/ccoLQ6A6.s:4439   .debug_abbrev:0000000000000000 .Ldebug_abbrev0
     /tmp/ccoLQ6A6.s:6567   .debug_str:00000000000000ee .LASF150
     /tmp/ccoLQ6A6.s:6851   .debug_str:0000000000000ad7 .LASF151
     /tmp/ccoLQ6A6.s:6641   .debug_str:00000000000003cf .LASF152
     /tmp/ccoLQ6A6.s:6475   .debug_ranges:0000000000000000 .Ldebug_ranges0
     /tmp/ccoLQ6A6.s:6535   .debug_line:0000000000000000 .Ldebug_line0
     /tmp/ccoLQ6A6.s:6713   .debug_str:000000000000063f .LASF0
     /tmp/ccoLQ6A6.s:6731   .debug_str:00000000000006da .LASF1
     /tmp/ccoLQ6A6.s:6693   .debug_str:0000000000000571 .LASF2
     /tmp/ccoLQ6A6.s:6659   .debug_str:0000000000000493 .LASF4
     /tmp/ccoLQ6A6.s:6783   .debug_str:000000000000085c .LASF3
     /tmp/ccoLQ6A6.s:6569   .debug_str:00000000000001b2 .LASF5
     /tmp/ccoLQ6A6.s:6603   .debug_str:00000000000002c1 .LASF6
     /tmp/ccoLQ6A6.s:6737   .debug_str:000000000000071b .LASF7
     /tmp/ccoLQ6A6.s:6711   .debug_str:000000000000062c .LASF8
     /tmp/ccoLQ6A6.s:6817   .debug_str:0000000000000980 .LASF9
     /tmp/ccoLQ6A6.s:6639   .debug_str:00000000000003c1 .LASF10
     /tmp/ccoLQ6A6.s:6751   .debug_str:0000000000000775 .LASF11
     /tmp/ccoLQ6A6.s:6801   .debug_str:00000000000008ec .LASF12
     /tmp/ccoLQ6A6.s:6573   .debug_str:00000000000001cd .LASF13
     /tmp/ccoLQ6A6.s:6543   .debug_str:000000000000002b .LASF14
GAS LISTING /tmp/ccoLQ6A6.s 			page 55


     /tmp/ccoLQ6A6.s:6587   .debug_str:000000000000023d .LASF15
     /tmp/ccoLQ6A6.s:6775   .debug_str:0000000000000810 .LASF16
     /tmp/ccoLQ6A6.s:6595   .debug_str:0000000000000289 .LASF17
     /tmp/ccoLQ6A6.s:6655   .debug_str:0000000000000486 .LASF20
     /tmp/ccoLQ6A6.s:6537   .debug_str:0000000000000000 .LASF18
     /tmp/ccoLQ6A6.s:6619   .debug_str:000000000000032d .LASF19
     /tmp/ccoLQ6A6.s:6657   .debug_str:000000000000048e .LASF21
     /tmp/ccoLQ6A6.s:6771   .debug_str:00000000000007ff .LASF29
     /tmp/ccoLQ6A6.s:6773   .debug_str:0000000000000809 .LASF22
     /tmp/ccoLQ6A6.s:6599   .debug_str:00000000000002ad .LASF23
     /tmp/ccoLQ6A6.s:6689   .debug_str:000000000000055f .LASF24
     /tmp/ccoLQ6A6.s:6617   .debug_str:000000000000031e .LASF25
     /tmp/ccoLQ6A6.s:6647   .debug_str:0000000000000412 .LASF26
     /tmp/ccoLQ6A6.s:6687   .debug_str:0000000000000555 .LASF27
     /tmp/ccoLQ6A6.s:6719   .debug_str:0000000000000678 .LASF28
     /tmp/ccoLQ6A6.s:6721   .debug_str:0000000000000682 .LASF31
     /tmp/ccoLQ6A6.s:6681   .debug_str:0000000000000531 .LASF30
     /tmp/ccoLQ6A6.s:6821   .debug_str:00000000000009a0 .LASF32
     /tmp/ccoLQ6A6.s:6649   .debug_str:0000000000000420 .LASF153
     /tmp/ccoLQ6A6.s:6571   .debug_str:00000000000001b9 .LASF154
     /tmp/ccoLQ6A6.s:6561   .debug_str:00000000000000c3 .LASF33
     /tmp/ccoLQ6A6.s:6565   .debug_str:00000000000000d7 .LASF34
     /tmp/ccoLQ6A6.s:6539   .debug_str:0000000000000009 .LASF35
     /tmp/ccoLQ6A6.s:6673   .debug_str:00000000000004e7 .LASF47
     /tmp/ccoLQ6A6.s:6699   .debug_str:00000000000005ab .LASF55
     /tmp/ccoLQ6A6.s:6803   .debug_str:00000000000008fb .LASF36
     /tmp/ccoLQ6A6.s:6663   .debug_str:00000000000004a4 .LASF58
     /tmp/ccoLQ6A6.s:6583   .debug_str:0000000000000213 .LASF60
     /tmp/ccoLQ6A6.s:6625   .debug_str:000000000000035f .LASF37
     /tmp/ccoLQ6A6.s:6767   .debug_str:00000000000007d3 .LASF39
     /tmp/ccoLQ6A6.s:6745   .debug_str:0000000000000751 .LASF38
     /tmp/ccoLQ6A6.s:6769   .debug_str:00000000000007e8 .LASF40
     /tmp/ccoLQ6A6.s:6829   .debug_str:00000000000009f1 .LASF41
     /tmp/ccoLQ6A6.s:6585   .debug_str:0000000000000225 .LASF42
     /tmp/ccoLQ6A6.s:6847   .debug_str:0000000000000aa9 .LASF43
     /tmp/ccoLQ6A6.s:6633   .debug_str:0000000000000398 .LASF44
     /tmp/ccoLQ6A6.s:6739   .debug_str:000000000000072e .LASF155
     /tmp/ccoLQ6A6.s:6661   .debug_str:000000000000049a .LASF45
     /tmp/ccoLQ6A6.s:6563   .debug_str:00000000000000ca .LASF46
     /tmp/ccoLQ6A6.s:6789   .debug_str:0000000000000887 .LASF48
     /tmp/ccoLQ6A6.s:6831   .debug_str:00000000000009f9 .LASF49
     /tmp/ccoLQ6A6.s:6575   .debug_str:00000000000001dd .LASF51
     /tmp/ccoLQ6A6.s:6723   .debug_str:0000000000000694 .LASF76
     /tmp/ccoLQ6A6.s:6717   .debug_str:0000000000000655 .LASF50
     /tmp/ccoLQ6A6.s:6807   .debug_str:000000000000091e .LASF67
     /tmp/ccoLQ6A6.s:6553   .debug_str:0000000000000085 .LASF52
     /tmp/ccoLQ6A6.s:6679   .debug_str:000000000000051b .LASF81
     /tmp/ccoLQ6A6.s:6811   .debug_str:0000000000000952 .LASF53
     /tmp/ccoLQ6A6.s:6733   .debug_str:00000000000006ed .LASF54
     /tmp/ccoLQ6A6.s:6691   .debug_str:0000000000000564 .LASF56
     /tmp/ccoLQ6A6.s:6755   .debug_str:000000000000078e .LASF57
     /tmp/ccoLQ6A6.s:6669   .debug_str:00000000000004c2 .LASF59
     /tmp/ccoLQ6A6.s:6725   .debug_str:00000000000006b2 .LASF61
     /tmp/ccoLQ6A6.s:6729   .debug_str:00000000000006d4 .LASF62
     /tmp/ccoLQ6A6.s:6833   .debug_str:0000000000000a12 .LASF63
     /tmp/ccoLQ6A6.s:6715   .debug_str:000000000000064c .LASF156
     /tmp/ccoLQ6A6.s:6635   .debug_str:00000000000003a3 .LASF157
GAS LISTING /tmp/ccoLQ6A6.s 			page 56


     /tmp/ccoLQ6A6.s:6853   .debug_str:0000000000000b03 .LASF64
     /tmp/ccoLQ6A6.s:6643   .debug_str:00000000000003fa .LASF65
     /tmp/ccoLQ6A6.s:6815   .debug_str:0000000000000971 .LASF66
     /tmp/ccoLQ6A6.s:6627   .debug_str:0000000000000364 .LASF68
     /tmp/ccoLQ6A6.s:6667   .debug_str:00000000000004b4 .LASF69
     /tmp/ccoLQ6A6.s:6671   .debug_str:00000000000004ca .LASF158
     /tmp/ccoLQ6A6.s:6785   .debug_str:000000000000086e .LASF70
     /tmp/ccoLQ6A6.s:6665   .debug_str:00000000000004af .LASF71
     /tmp/ccoLQ6A6.s:6757   .debug_str:00000000000007a5 .LASF72
     /tmp/ccoLQ6A6.s:6813   .debug_str:0000000000000959 .LASF73
     /tmp/ccoLQ6A6.s:6607   .debug_str:00000000000002dd .LASF74
     /tmp/ccoLQ6A6.s:6695   .debug_str:000000000000057f .LASF75
     /tmp/ccoLQ6A6.s:6827   .debug_str:00000000000009d3 .LASF77
     /tmp/ccoLQ6A6.s:6589   .debug_str:0000000000000249 .LASF78
     /tmp/ccoLQ6A6.s:6793   .debug_str:00000000000008a9 .LASF79
     /tmp/ccoLQ6A6.s:6581   .debug_str:0000000000000205 .LASF80
     /tmp/ccoLQ6A6.s:6797   .debug_str:00000000000008ca .LASF82
     /tmp/ccoLQ6A6.s:6845   .debug_str:0000000000000a98 .LASF83
     /tmp/ccoLQ6A6.s:6735   .debug_str:00000000000006ff .LASF84
     /tmp/ccoLQ6A6.s:6545   .debug_str:000000000000003b .LASF85
     /tmp/ccoLQ6A6.s:6805   .debug_str:000000000000090d .LASF86
     /tmp/ccoLQ6A6.s:6653   .debug_str:000000000000045b .LASF87
     /tmp/ccoLQ6A6.s:6651   .debug_str:0000000000000434 .LASF88
     /tmp/ccoLQ6A6.s:6809   .debug_str:0000000000000936 .LASF89
     /tmp/ccoLQ6A6.s:6547   .debug_str:0000000000000058 .LASF90
     /tmp/ccoLQ6A6.s:6837   .debug_str:0000000000000a35 .LASF91
     /tmp/ccoLQ6A6.s:6819   .debug_str:0000000000000990 .LASF159
     /tmp/ccoLQ6A6.s:6759   .debug_str:00000000000007b2 .LASF92
     /tmp/ccoLQ6A6.s:6753   .debug_str:0000000000000784 .LASF93
     /tmp/ccoLQ6A6.s:6631   .debug_str:000000000000037e .LASF94
     /tmp/ccoLQ6A6.s:583    .text._ZN16ProducerKeyboardD0Ev:0000000000000000 .LFB60
     /tmp/ccoLQ6A6.s:630    .text._ZN16ProducerKeyboardD0Ev:000000000000004c .LFE60
     /tmp/ccoLQ6A6.s:5592   .debug_loc:0000000000000000 .LLST20
     /tmp/ccoLQ6A6.s:601    .text._ZN16ProducerKeyboardD0Ev:0000000000000018 .LBB107
     /tmp/ccoLQ6A6.s:613    .text._ZN16ProducerKeyboardD0Ev:000000000000002c .LBE107
     /tmp/ccoLQ6A6.s:5610   .debug_loc:000000000000004c .LLST21
     /tmp/ccoLQ6A6.s:602    .text._ZN16ProducerKeyboardD0Ev:0000000000000018 .LBB108
     /tmp/ccoLQ6A6.s:612    .text._ZN16ProducerKeyboardD0Ev:000000000000002c .LBE108
     /tmp/ccoLQ6A6.s:610    .text._ZN16ProducerKeyboardD0Ev:000000000000002c .LVL41
     /tmp/ccoLQ6A6.s:617    .text._ZN16ProducerKeyboardD0Ev:0000000000000038 .LVL42
     /tmp/ccoLQ6A6.s:6707   .debug_str:0000000000000603 .LASF95
     /tmp/ccoLQ6A6.s:531    .text._ZN16ProducerKeyboardD2Ev:0000000000000000 .LFB58
     /tmp/ccoLQ6A6.s:567    .text._ZN16ProducerKeyboardD2Ev:0000000000000034 .LFE58
     /tmp/ccoLQ6A6.s:5621   .debug_loc:0000000000000082 .LLST18
     /tmp/ccoLQ6A6.s:546    .text._ZN16ProducerKeyboardD2Ev:0000000000000010 .LBB105
     /tmp/ccoLQ6A6.s:556    .text._ZN16ProducerKeyboardD2Ev:0000000000000024 .LBE105
     /tmp/ccoLQ6A6.s:5635   .debug_loc:00000000000000bb .LLST19
     /tmp/ccoLQ6A6.s:554    .text._ZN16ProducerKeyboardD2Ev:0000000000000024 .LVL38
     /tmp/ccoLQ6A6.s:6749   .debug_str:000000000000075f .LASF96
     /tmp/ccoLQ6A6.s:470    .text._ZN12ProducerSyncD0Ev:0000000000000000 .LFB56
     /tmp/ccoLQ6A6.s:517    .text._ZN12ProducerSyncD0Ev:000000000000004c .LFE56
     /tmp/ccoLQ6A6.s:5649   .debug_loc:00000000000000f4 .LLST15
     /tmp/ccoLQ6A6.s:488    .text._ZN12ProducerSyncD0Ev:0000000000000018 .LBB102
     /tmp/ccoLQ6A6.s:500    .text._ZN12ProducerSyncD0Ev:000000000000002c .LBE102
     /tmp/ccoLQ6A6.s:5667   .debug_loc:0000000000000140 .LLST16
     /tmp/ccoLQ6A6.s:489    .text._ZN12ProducerSyncD0Ev:0000000000000018 .LBB103
     /tmp/ccoLQ6A6.s:499    .text._ZN12ProducerSyncD0Ev:000000000000002c .LBE103
GAS LISTING /tmp/ccoLQ6A6.s 			page 57


     /tmp/ccoLQ6A6.s:497    .text._ZN12ProducerSyncD0Ev:000000000000002c .LVL33
     /tmp/ccoLQ6A6.s:504    .text._ZN12ProducerSyncD0Ev:0000000000000038 .LVL34
     /tmp/ccoLQ6A6.s:6677   .debug_str:0000000000000505 .LASF97
     /tmp/ccoLQ6A6.s:418    .text._ZN12ProducerSyncD2Ev:0000000000000000 .LFB54
     /tmp/ccoLQ6A6.s:454    .text._ZN12ProducerSyncD2Ev:0000000000000034 .LFE54
     /tmp/ccoLQ6A6.s:5678   .debug_loc:0000000000000176 .LLST13
     /tmp/ccoLQ6A6.s:433    .text._ZN12ProducerSyncD2Ev:0000000000000010 .LBB100
     /tmp/ccoLQ6A6.s:443    .text._ZN12ProducerSyncD2Ev:0000000000000024 .LBE100
     /tmp/ccoLQ6A6.s:5692   .debug_loc:00000000000001af .LLST14
     /tmp/ccoLQ6A6.s:441    .text._ZN12ProducerSyncD2Ev:0000000000000024 .LVL30
     /tmp/ccoLQ6A6.s:6823   .debug_str:00000000000009b2 .LASF98
     /tmp/ccoLQ6A6.s:357    .text._ZN12ConsumerSyncD0Ev:0000000000000000 .LFB52
     /tmp/ccoLQ6A6.s:404    .text._ZN12ConsumerSyncD0Ev:000000000000004c .LFE52
     /tmp/ccoLQ6A6.s:5706   .debug_loc:00000000000001e8 .LLST10
     /tmp/ccoLQ6A6.s:375    .text._ZN12ConsumerSyncD0Ev:0000000000000018 .LBB97
     /tmp/ccoLQ6A6.s:387    .text._ZN12ConsumerSyncD0Ev:000000000000002c .LBE97
     /tmp/ccoLQ6A6.s:5724   .debug_loc:0000000000000234 .LLST11
     /tmp/ccoLQ6A6.s:376    .text._ZN12ConsumerSyncD0Ev:0000000000000018 .LBB98
     /tmp/ccoLQ6A6.s:386    .text._ZN12ConsumerSyncD0Ev:000000000000002c .LBE98
     /tmp/ccoLQ6A6.s:384    .text._ZN12ConsumerSyncD0Ev:000000000000002c .LVL25
     /tmp/ccoLQ6A6.s:391    .text._ZN12ConsumerSyncD0Ev:0000000000000038 .LVL26
     /tmp/ccoLQ6A6.s:6779   .debug_str:0000000000000835 .LASF99
     /tmp/ccoLQ6A6.s:304    .text._ZN12ConsumerSyncD2Ev:0000000000000000 .LFB50
     /tmp/ccoLQ6A6.s:341    .text._ZN12ConsumerSyncD2Ev:0000000000000034 .LFE50
     /tmp/ccoLQ6A6.s:5735   .debug_loc:000000000000026a .LLST8
     /tmp/ccoLQ6A6.s:320    .text._ZN12ConsumerSyncD2Ev:0000000000000010 .LBB95
     /tmp/ccoLQ6A6.s:330    .text._ZN12ConsumerSyncD2Ev:0000000000000024 .LBE95
     /tmp/ccoLQ6A6.s:5749   .debug_loc:00000000000002a3 .LLST9
     /tmp/ccoLQ6A6.s:328    .text._ZN12ConsumerSyncD2Ev:0000000000000024 .LVL22
     /tmp/ccoLQ6A6.s:6559   .debug_str:00000000000000a5 .LASF100
     /tmp/ccoLQ6A6.s:6621   .debug_str:0000000000000333 .LASF101
     /tmp/ccoLQ6A6.s:1693   .text:0000000000000668 .LFE48
     /tmp/ccoLQ6A6.s:6555   .debug_str:0000000000000093 .LASF102
     /tmp/ccoLQ6A6.s:5763   .debug_loc:00000000000002dc .LLST46
     /tmp/ccoLQ6A6.s:6615   .debug_str:0000000000000314 .LASF103
     /tmp/ccoLQ6A6.s:5774   .debug_loc:0000000000000312 .LLST47
     /tmp/ccoLQ6A6.s:5785   .debug_loc:0000000000000348 .LLST48
     /tmp/ccoLQ6A6.s:6637   .debug_str:00000000000003b9 .LASF104
     /tmp/ccoLQ6A6.s:5796   .debug_loc:000000000000037e .LLST49
     /tmp/ccoLQ6A6.s:6839   .debug_str:0000000000000a4f .LASF105
     /tmp/ccoLQ6A6.s:5809   .debug_loc:00000000000003b6 .LLST50
     /tmp/ccoLQ6A6.s:6765   .debug_str:00000000000007ce .LASF106
     /tmp/ccoLQ6A6.s:5824   .debug_loc:00000000000003ff .LLST51
     /tmp/ccoLQ6A6.s:5832   .debug_loc:0000000000000423 .LLST58
     /tmp/ccoLQ6A6.s:1426   .text:0000000000000484 .LBB168
     /tmp/ccoLQ6A6.s:1441   .text:0000000000000498 .LBE168
     /tmp/ccoLQ6A6.s:5839   .debug_loc:0000000000000446 .LLST59
     /tmp/ccoLQ6A6.s:5846   .debug_loc:0000000000000469 .LLST60
     /tmp/ccoLQ6A6.s:1428   .text:0000000000000484 .LBB170
     /tmp/ccoLQ6A6.s:1434   .text:0000000000000488 .LBE170
     /tmp/ccoLQ6A6.s:5853   .debug_loc:000000000000048c .LLST61
     /tmp/ccoLQ6A6.s:1449   .text:00000000000004a8 .LBB172
     /tmp/ccoLQ6A6.s:5860   .debug_loc:00000000000004af .LLST62
     /tmp/ccoLQ6A6.s:1458   .text:00000000000004c0 .LVL137
     /tmp/ccoLQ6A6.s:1537   .text:0000000000000550 .LVL145
     /tmp/ccoLQ6A6.s:1497   .text:000000000000050c .LBB175
     /tmp/ccoLQ6A6.s:1512   .text:0000000000000520 .LBE175
GAS LISTING /tmp/ccoLQ6A6.s 			page 58


     /tmp/ccoLQ6A6.s:5881   .debug_loc:000000000000050d .LLST63
     /tmp/ccoLQ6A6.s:5888   .debug_loc:0000000000000530 .LLST64
     /tmp/ccoLQ6A6.s:1499   .text:000000000000050c .LBB177
     /tmp/ccoLQ6A6.s:1505   .text:0000000000000510 .LBE177
     /tmp/ccoLQ6A6.s:5895   .debug_loc:0000000000000553 .LLST65
     /tmp/ccoLQ6A6.s:1418   .text:0000000000000474 .LVL131
     /tmp/ccoLQ6A6.s:1489   .text:00000000000004fc .LVL139
     /tmp/ccoLQ6A6.s:1552   .text:000000000000055c .LBB184
     /tmp/ccoLQ6A6.s:1577   .text:0000000000000580 .LBE184
     /tmp/ccoLQ6A6.s:5902   .debug_loc:0000000000000576 .LLST66
     /tmp/ccoLQ6A6.s:1561   .text:0000000000000564 .LBB185
     /tmp/ccoLQ6A6.s:1570   .text:0000000000000578 .LBE185
     /tmp/ccoLQ6A6.s:5913   .debug_loc:00000000000005ac .LLST67
     /tmp/ccoLQ6A6.s:1568   .text:0000000000000578 .LVL149
     /tmp/ccoLQ6A6.s:1578   .text:0000000000000580 .LBB187
     /tmp/ccoLQ6A6.s:1605   .text:00000000000005b0 .LBE187
     /tmp/ccoLQ6A6.s:5921   .debug_loc:00000000000005d7 .LLST68
     /tmp/ccoLQ6A6.s:1301   .text:00000000000003a4 .LBB157
     /tmp/ccoLQ6A6.s:1317   .text:00000000000003c0 .LBE157
     /tmp/ccoLQ6A6.s:5928   .debug_loc:00000000000005fa .LLST52
     /tmp/ccoLQ6A6.s:5941   .debug_loc:0000000000000632 .LLST53
     /tmp/ccoLQ6A6.s:1313   .text:00000000000003c0 .LVL118
     /tmp/ccoLQ6A6.s:1370   .text:0000000000000434 .LBB160
     /tmp/ccoLQ6A6.s:1385   .text:0000000000000448 .LBE160
     /tmp/ccoLQ6A6.s:5952   .debug_loc:0000000000000668 .LLST54
     /tmp/ccoLQ6A6.s:5959   .debug_loc:000000000000068b .LLST55
     /tmp/ccoLQ6A6.s:1372   .text:0000000000000434 .LBB162
     /tmp/ccoLQ6A6.s:1378   .text:0000000000000438 .LBE162
     /tmp/ccoLQ6A6.s:5966   .debug_loc:00000000000006ae .LLST56
     /tmp/ccoLQ6A6.s:1387   .text:0000000000000448 .LBB164
     /tmp/ccoLQ6A6.s:5973   .debug_loc:00000000000006d1 .LLST57
     /tmp/ccoLQ6A6.s:1397   .text:0000000000000460 .LVL129
     /tmp/ccoLQ6A6.s:1544   .text:0000000000000554 .LBB182
     /tmp/ccoLQ6A6.s:1551   .text:000000000000055c .LBE182
     /tmp/ccoLQ6A6.s:1549   .text:000000000000055c .LVL146
     /tmp/ccoLQ6A6.s:1194   .text:0000000000000298 .LVL98
     /tmp/ccoLQ6A6.s:1200   .text:00000000000002a8 .LVL99
     /tmp/ccoLQ6A6.s:1205   .text:00000000000002b4 .LVL100
     /tmp/ccoLQ6A6.s:1212   .text:00000000000002c8 .LVL102
     /tmp/ccoLQ6A6.s:1218   .text:00000000000002d8 .LVL103
     /tmp/ccoLQ6A6.s:1223   .text:00000000000002e4 .LVL104
     /tmp/ccoLQ6A6.s:1230   .text:00000000000002f8 .LVL106
     /tmp/ccoLQ6A6.s:1237   .text:000000000000030c .LVL107
     /tmp/ccoLQ6A6.s:1242   .text:000000000000031c .LVL108
     /tmp/ccoLQ6A6.s:1249   .text:0000000000000330 .LVL109
     /tmp/ccoLQ6A6.s:1254   .text:0000000000000340 .LVL110
     /tmp/ccoLQ6A6.s:1263   .text:0000000000000354 .LVL111
     /tmp/ccoLQ6A6.s:1269   .text:0000000000000364 .LVL112
     /tmp/ccoLQ6A6.s:1278   .text:0000000000000378 .LVL113
     /tmp/ccoLQ6A6.s:1286   .text:000000000000038c .LVL114
     /tmp/ccoLQ6A6.s:1297   .text:00000000000003a0 .LVL116
     /tmp/ccoLQ6A6.s:1362   .text:0000000000000424 .LVL124
     /tmp/ccoLQ6A6.s:1614   .text:00000000000005c4 .LVL156
     /tmp/ccoLQ6A6.s:1633   .text:00000000000005ec .LVL158
     /tmp/ccoLQ6A6.s:1636   .text:00000000000005f8 .LVL159
     /tmp/ccoLQ6A6.s:1677   .text:0000000000000640 .LVL164
     /tmp/ccoLQ6A6.s:1680   .text:000000000000064c .LVL165
GAS LISTING /tmp/ccoLQ6A6.s 			page 59


     /tmp/ccoLQ6A6.s:1687   .text:000000000000065c .LVL167
     /tmp/ccoLQ6A6.s:1690   .text:0000000000000668 .LVL168
     /tmp/ccoLQ6A6.s:6743   .debug_str:000000000000074c .LASF107
     /tmp/ccoLQ6A6.s:940    .text:000000000000015c .LFB47
     /tmp/ccoLQ6A6.s:1093   .text:0000000000000254 .LFE47
     /tmp/ccoLQ6A6.s:5988   .debug_loc:000000000000071a .LLST36
     /tmp/ccoLQ6A6.s:6006   .debug_loc:0000000000000766 .LLST37
     /tmp/ccoLQ6A6.s:6024   .debug_loc:00000000000007b2 .LLST38
     /tmp/ccoLQ6A6.s:6042   .debug_loc:00000000000007fe .LLST39
     /tmp/ccoLQ6A6.s:6066   .debug_loc:000000000000086e .LLST40
     /tmp/ccoLQ6A6.s:972    .text:000000000000018c .LBB119
     /tmp/ccoLQ6A6.s:983    .text:0000000000000198 .LBE119
     /tmp/ccoLQ6A6.s:977    .text:0000000000000194 .LVL79
     /tmp/ccoLQ6A6.s:988    .text:00000000000001a4 .LVL81
     /tmp/ccoLQ6A6.s:1000   .text:00000000000001bc .LVL82
     /tmp/ccoLQ6A6.s:1011   .text:00000000000001d0 .LVL85
     /tmp/ccoLQ6A6.s:1033   .text:00000000000001f4 .LBB122
     /tmp/ccoLQ6A6.s:1048   .text:0000000000000210 .LBE122
     /tmp/ccoLQ6A6.s:6073   .debug_loc:0000000000000891 .LLST41
     /tmp/ccoLQ6A6.s:1040   .text:0000000000000204 .LVL87
     /tmp/ccoLQ6A6.s:1046   .text:0000000000000210 .LVL89
     /tmp/ccoLQ6A6.s:1063   .text:0000000000000228 .LBB123
     /tmp/ccoLQ6A6.s:1071   .text:0000000000000234 .LBE123
     /tmp/ccoLQ6A6.s:6080   .debug_loc:00000000000008b4 .LLST42
     /tmp/ccoLQ6A6.s:1069   .text:0000000000000234 .LVL92
     /tmp/ccoLQ6A6.s:1056   .text:0000000000000220 .LVL90
     /tmp/ccoLQ6A6.s:1100   .text._ZN12ConsumerSync3runEv:0000000000000000 .LFB46
     /tmp/ccoLQ6A6.s:1127   .text._ZN12ConsumerSync3runEv:000000000000002c .LFE46
     /tmp/ccoLQ6A6.s:6087   .debug_loc:00000000000008d7 .LLST43
     /tmp/ccoLQ6A6.s:1116   .text._ZN12ConsumerSync3runEv:000000000000001c .LVL97
     /tmp/ccoLQ6A6.s:6697   .debug_str:0000000000000588 .LASF108
     /tmp/ccoLQ6A6.s:804    .text:00000000000000c4 .LFB42
     /tmp/ccoLQ6A6.s:899    .text:000000000000015c .LFE42
     /tmp/ccoLQ6A6.s:6101   .debug_loc:0000000000000910 .LLST30
     /tmp/ccoLQ6A6.s:6115   .debug_loc:0000000000000949 .LLST31
     /tmp/ccoLQ6A6.s:6133   .debug_loc:0000000000000995 .LLST32
     /tmp/ccoLQ6A6.s:6151   .debug_loc:00000000000009e1 .LLST33
     /tmp/ccoLQ6A6.s:830    .text:00000000000000e8 .LBB114
     /tmp/ccoLQ6A6.s:838    .text:00000000000000f0 .LBE114
     /tmp/ccoLQ6A6.s:835    .text:00000000000000f0 .LVL66
     /tmp/ccoLQ6A6.s:874    .text:0000000000000138 .LBB116
     /tmp/ccoLQ6A6.s:882    .text:0000000000000144 .LBE116
     /tmp/ccoLQ6A6.s:6175   .debug_loc:0000000000000a51 .LLST34
     /tmp/ccoLQ6A6.s:880    .text:0000000000000144 .LVL71
     /tmp/ccoLQ6A6.s:850    .text:0000000000000110 .LVL67
     /tmp/ccoLQ6A6.s:906    .text._ZN12ProducerSync3runEv:0000000000000000 .LFB41
     /tmp/ccoLQ6A6.s:933    .text._ZN12ProducerSync3runEv:000000000000002c .LFE41
     /tmp/ccoLQ6A6.s:6182   .debug_loc:0000000000000a74 .LLST35
     /tmp/ccoLQ6A6.s:922    .text._ZN12ProducerSync3runEv:000000000000001c .LVL75
     /tmp/ccoLQ6A6.s:6703   .debug_str:00000000000005cb .LASF109
     /tmp/ccoLQ6A6.s:644    .text:0000000000000000 .LFB37
     /tmp/ccoLQ6A6.s:763    .text:00000000000000c4 .LFE37
     /tmp/ccoLQ6A6.s:6196   .debug_loc:0000000000000aad .LLST23
     /tmp/ccoLQ6A6.s:6214   .debug_loc:0000000000000af9 .LLST24
     /tmp/ccoLQ6A6.s:6232   .debug_loc:0000000000000b45 .LLST25
     /tmp/ccoLQ6A6.s:6250   .debug_loc:0000000000000b91 .LLST26
     /tmp/ccoLQ6A6.s:6265   .debug_loc:0000000000000bda .LLST27
GAS LISTING /tmp/ccoLQ6A6.s 			page 60


     /tmp/ccoLQ6A6.s:674    .text:000000000000002c .LBB110
     /tmp/ccoLQ6A6.s:682    .text:0000000000000034 .LBE110
     /tmp/ccoLQ6A6.s:679    .text:0000000000000034 .LVL47
     /tmp/ccoLQ6A6.s:735    .text:000000000000009c .LBB112
     /tmp/ccoLQ6A6.s:743    .text:00000000000000a8 .LBE112
     /tmp/ccoLQ6A6.s:6289   .debug_loc:0000000000000c4a .LLST28
     /tmp/ccoLQ6A6.s:741    .text:00000000000000a8 .LVL57
     /tmp/ccoLQ6A6.s:687    .text:000000000000003c .LVL48
     /tmp/ccoLQ6A6.s:698    .text:0000000000000054 .LVL50
     /tmp/ccoLQ6A6.s:730    .text:0000000000000098 .LVL55
     /tmp/ccoLQ6A6.s:770    .text._ZN16ProducerKeyboard3runEv:0000000000000000 .LFB36
     /tmp/ccoLQ6A6.s:797    .text._ZN16ProducerKeyboard3runEv:000000000000002c .LFE36
     /tmp/ccoLQ6A6.s:6296   .debug_loc:0000000000000c6d .LLST29
     /tmp/ccoLQ6A6.s:786    .text._ZN16ProducerKeyboard3runEv:000000000000001c .LVL62
     /tmp/ccoLQ6A6.s:6843   .debug_str:0000000000000a71 .LASF110
     /tmp/ccoLQ6A6.s:6855   .debug_str:0000000000000b09 .LASF111
     /tmp/ccoLQ6A6.s:135    .text._ZN9SemaphoreD0Ev:0000000000000000 .LFB28
     /tmp/ccoLQ6A6.s:182    .text._ZN9SemaphoreD0Ev:0000000000000050 .LFE28
     /tmp/ccoLQ6A6.s:6310   .debug_loc:0000000000000ca6 .LLST3
     /tmp/ccoLQ6A6.s:153    .text._ZN9SemaphoreD0Ev:0000000000000018 .LBB90
     /tmp/ccoLQ6A6.s:165    .text._ZN9SemaphoreD0Ev:0000000000000030 .LBE90
     /tmp/ccoLQ6A6.s:6328   .debug_loc:0000000000000cf2 .LLST4
     /tmp/ccoLQ6A6.s:163    .text._ZN9SemaphoreD0Ev:0000000000000030 .LVL10
     /tmp/ccoLQ6A6.s:169    .text._ZN9SemaphoreD0Ev:000000000000003c .LVL11
     /tmp/ccoLQ6A6.s:6577   .debug_str:00000000000001e6 .LASF112
     /tmp/ccoLQ6A6.s:83     .text._ZN9SemaphoreD2Ev:0000000000000000 .LFB26
     /tmp/ccoLQ6A6.s:118    .text._ZN9SemaphoreD2Ev:0000000000000038 .LFE26
     /tmp/ccoLQ6A6.s:6339   .debug_loc:0000000000000d28 .LLST2
     /tmp/ccoLQ6A6.s:106    .text._ZN9SemaphoreD2Ev:0000000000000028 .LVL6
     /tmp/ccoLQ6A6.s:6645   .debug_str:000000000000040d .LASF113
     /tmp/ccoLQ6A6.s:6763   .debug_str:00000000000007bc .LASF114
     /tmp/ccoLQ6A6.s:40     .text._ZN6Thread13threadWrapperEPv:0000000000000000 .LFB21
     /tmp/ccoLQ6A6.s:76     .text._ZN6Thread13threadWrapperEPv:0000000000000034 .LFE21
     /tmp/ccoLQ6A6.s:6353   .debug_loc:0000000000000d61 .LLST0
     /tmp/ccoLQ6A6.s:6371   .debug_loc:0000000000000dad .LLST1
     /tmp/ccoLQ6A6.s:62     .text._ZN6Thread13threadWrapperEPv:0000000000000020 .LVL2
     /tmp/ccoLQ6A6.s:14     .text._ZN6Thread3runEv:0000000000000000 .LFB20
     /tmp/ccoLQ6A6.s:33     .text._ZN6Thread3runEv:0000000000000018 .LFE20
     /tmp/ccoLQ6A6.s:6601   .debug_str:00000000000002b2 .LASF115
     /tmp/ccoLQ6A6.s:6551   .debug_str:0000000000000076 .LASF116
     /tmp/ccoLQ6A6.s:245    .text._ZN6ThreadD0Ev:0000000000000000 .LFB14
     /tmp/ccoLQ6A6.s:290    .text._ZN6ThreadD0Ev:000000000000004c .LFE14
     /tmp/ccoLQ6A6.s:6389   .debug_loc:0000000000000df9 .LLST6
     /tmp/ccoLQ6A6.s:263    .text._ZN6ThreadD0Ev:0000000000000018 .LBB93
     /tmp/ccoLQ6A6.s:273    .text._ZN6ThreadD0Ev:000000000000002c .LBE93
     /tmp/ccoLQ6A6.s:6407   .debug_loc:0000000000000e45 .LLST7
     /tmp/ccoLQ6A6.s:271    .text._ZN6ThreadD0Ev:000000000000002c .LVL17
     /tmp/ccoLQ6A6.s:277    .text._ZN6ThreadD0Ev:0000000000000038 .LVL18
     /tmp/ccoLQ6A6.s:6613   .debug_str:0000000000000305 .LASF117
     /tmp/ccoLQ6A6.s:196    .text._ZN6ThreadD2Ev:0000000000000000 .LFB12
     /tmp/ccoLQ6A6.s:229    .text._ZN6ThreadD2Ev:0000000000000034 .LFE12
     /tmp/ccoLQ6A6.s:6418   .debug_loc:0000000000000e7b .LLST5
     /tmp/ccoLQ6A6.s:217    .text._ZN6ThreadD2Ev:0000000000000024 .LVL14
     /tmp/ccoLQ6A6.s:6781   .debug_str:000000000000084b .LASF118
     /tmp/ccoLQ6A6.s:6557   .debug_str:0000000000000099 .LASF120
     /tmp/ccoLQ6A6.s:6747   .debug_str:0000000000000758 .LASF122
     /tmp/ccoLQ6A6.s:6787   .debug_str:0000000000000877 .LASF124
GAS LISTING /tmp/ccoLQ6A6.s 			page 61


     /tmp/ccoLQ6A6.s:6849   .debug_str:0000000000000ab2 .LASF119
     /tmp/ccoLQ6A6.s:6597   .debug_str:000000000000029f .LASF121
     /tmp/ccoLQ6A6.s:6685   .debug_str:000000000000054f .LASF123
     /tmp/ccoLQ6A6.s:6579   .debug_str:00000000000001f8 .LASF125
     /tmp/ccoLQ6A6.s:6741   .debug_str:000000000000073a .LASF126
     /tmp/ccoLQ6A6.s:6591   .debug_str:000000000000026c .LASF127
     /tmp/ccoLQ6A6.s:6593   .debug_str:0000000000000275 .LASF128
     /tmp/ccoLQ6A6.s:6623   .debug_str:0000000000000356 .LASF129
     /tmp/ccoLQ6A6.s:6605   .debug_str:00000000000002c8 .LASF130
     /tmp/ccoLQ6A6.s:6701   .debug_str:00000000000005bb .LASF131
     /tmp/ccoLQ6A6.s:6841   .debug_str:0000000000000a5e .LASF132
     /tmp/ccoLQ6A6.s:6549   .debug_str:000000000000006a .LASF133
     /tmp/ccoLQ6A6.s:6835   .debug_str:0000000000000a25 .LASF134
     /tmp/ccoLQ6A6.s:6609   .debug_str:00000000000002f6 .LASF135
     /tmp/ccoLQ6A6.s:6727   .debug_str:00000000000006c1 .LASF136
     /tmp/ccoLQ6A6.s:6799   .debug_str:00000000000008e0 .LASF137
     /tmp/ccoLQ6A6.s:6709   .debug_str:000000000000061d .LASF138
     /tmp/ccoLQ6A6.s:6629   .debug_str:0000000000000375 .LASF139
     /tmp/ccoLQ6A6.s:6777   .debug_str:0000000000000826 .LASF140
     /tmp/ccoLQ6A6.s:6541   .debug_str:0000000000000013 .LASF141
     /tmp/ccoLQ6A6.s:6795   .debug_str:00000000000008c1 .LASF142
     /tmp/ccoLQ6A6.s:6611   .debug_str:0000000000000300 .LASF143
     /tmp/ccoLQ6A6.s:6705   .debug_str:00000000000005ee .LASF144
     /tmp/ccoLQ6A6.s:6825   .debug_str:00000000000009c8 .LASF145
     /tmp/ccoLQ6A6.s:6675   .debug_str:00000000000004fc .LASF146
     /tmp/ccoLQ6A6.s:6761   .debug_str:00000000000007b7 .LASF147
     /tmp/ccoLQ6A6.s:6683   .debug_str:000000000000053c .LASF148
     /tmp/ccoLQ6A6.s:6791   .debug_str:000000000000089f .LASF149
     /tmp/ccoLQ6A6.s:588    .text._ZN16ProducerKeyboardD0Ev:0000000000000000 .LVL39
     /tmp/ccoLQ6A6.s:625    .text._ZN16ProducerKeyboardD0Ev:0000000000000044 .LVL43
     /tmp/ccoLQ6A6.s:600    .text._ZN16ProducerKeyboardD0Ev:0000000000000018 .LVL40
     /tmp/ccoLQ6A6.s:536    .text._ZN16ProducerKeyboardD2Ev:0000000000000000 .LVL36
     /tmp/ccoLQ6A6.s:545    .text._ZN16ProducerKeyboardD2Ev:0000000000000010 .LVL37
     /tmp/ccoLQ6A6.s:475    .text._ZN12ProducerSyncD0Ev:0000000000000000 .LVL31
     /tmp/ccoLQ6A6.s:512    .text._ZN12ProducerSyncD0Ev:0000000000000044 .LVL35
     /tmp/ccoLQ6A6.s:487    .text._ZN12ProducerSyncD0Ev:0000000000000018 .LVL32
     /tmp/ccoLQ6A6.s:423    .text._ZN12ProducerSyncD2Ev:0000000000000000 .LVL28
     /tmp/ccoLQ6A6.s:432    .text._ZN12ProducerSyncD2Ev:0000000000000010 .LVL29
     /tmp/ccoLQ6A6.s:362    .text._ZN12ConsumerSyncD0Ev:0000000000000000 .LVL23
     /tmp/ccoLQ6A6.s:399    .text._ZN12ConsumerSyncD0Ev:0000000000000044 .LVL27
     /tmp/ccoLQ6A6.s:374    .text._ZN12ConsumerSyncD0Ev:0000000000000018 .LVL24
     /tmp/ccoLQ6A6.s:310    .text._ZN12ConsumerSyncD2Ev:0000000000000000 .LVL20
     /tmp/ccoLQ6A6.s:319    .text._ZN12ConsumerSyncD2Ev:0000000000000010 .LVL21
     /tmp/ccoLQ6A6.s:1225   .text:00000000000002e8 .LVL105
     /tmp/ccoLQ6A6.s:1300   .text:00000000000003a4 .LVL117
     /tmp/ccoLQ6A6.s:1669   .text:0000000000000630 .LVL162
     /tmp/ccoLQ6A6.s:1673   .text:0000000000000634 .LVL163
     /tmp/ccoLQ6A6.s:1207   .text:00000000000002b8 .LVL101
     /tmp/ccoLQ6A6.s:1653   .text:0000000000000610 .LVL161
     /tmp/ccoLQ6A6.s:1683   .text:0000000000000650 .LVL166
     /tmp/ccoLQ6A6.s:1292   .text:0000000000000394 .LVL115
     /tmp/ccoLQ6A6.s:1639   .text:00000000000005fc .LVL160
     /tmp/ccoLQ6A6.s:1328   .text:00000000000003dc .LVL120
     /tmp/ccoLQ6A6.s:1341   .text:00000000000003f8 .LVL122
     /tmp/ccoLQ6A6.s:1383   .text:0000000000000448 .LVL127
     /tmp/ccoLQ6A6.s:1395   .text:0000000000000458 .LVL128
     /tmp/ccoLQ6A6.s:1343   .text:00000000000003fc .LVL123
GAS LISTING /tmp/ccoLQ6A6.s 			page 62


     /tmp/ccoLQ6A6.s:1409   .text:0000000000000468 .LVL130
     /tmp/ccoLQ6A6.s:1555   .text:0000000000000560 .LVL147
     /tmp/ccoLQ6A6.s:1425   .text:0000000000000484 .LVL132
     /tmp/ccoLQ6A6.s:1439   .text:0000000000000498 .LVL134
     /tmp/ccoLQ6A6.s:1432   .text:0000000000000488 .LVL133
     /tmp/ccoLQ6A6.s:1447   .text:00000000000004a8 .LVL135
     /tmp/ccoLQ6A6.s:1456   .text:00000000000004b8 .LVL136
     /tmp/ccoLQ6A6.s:1523   .text:0000000000000538 .LVL143
     /tmp/ccoLQ6A6.s:1535   .text:0000000000000548 .LVL144
     /tmp/ccoLQ6A6.s:1496   .text:000000000000050c .LVL140
     /tmp/ccoLQ6A6.s:1510   .text:0000000000000520 .LVL142
     /tmp/ccoLQ6A6.s:1503   .text:0000000000000510 .LVL141
     /tmp/ccoLQ6A6.s:1573   .text:000000000000057c .LVL150
     /tmp/ccoLQ6A6.s:1575   .text:0000000000000580 .LVL151
     /tmp/ccoLQ6A6.s:1581   .text:0000000000000584 .LVL152
     /tmp/ccoLQ6A6.s:1560   .text:0000000000000564 .LVL148
     /tmp/ccoLQ6A6.s:1583   .text:0000000000000588 .LVL153
     /tmp/ccoLQ6A6.s:1369   .text:0000000000000434 .LVL125
     /tmp/ccoLQ6A6.s:1376   .text:0000000000000438 .LVL126
     /tmp/ccoLQ6A6.s:943    .text:000000000000015c .LVL76
     /tmp/ccoLQ6A6.s:968    .text:000000000000018c .LVL78
     /tmp/ccoLQ6A6.s:1085   .text:0000000000000248 .LVL94
     /tmp/ccoLQ6A6.s:1082   .text:0000000000000244 .LVL93
     /tmp/ccoLQ6A6.s:963    .text:0000000000000184 .LVL77
     /tmp/ccoLQ6A6.s:980    .text:0000000000000198 .LVL80
     /tmp/ccoLQ6A6.s:1005   .text:00000000000001c4 .LVL83
     /tmp/ccoLQ6A6.s:1027   .text:00000000000001ec .LVL86
     /tmp/ccoLQ6A6.s:1088   .text:000000000000024c .LVL95
     /tmp/ccoLQ6A6.s:1009   .text:00000000000001c8 .LVL84
     /tmp/ccoLQ6A6.s:1044   .text:0000000000000208 .LVL88
     /tmp/ccoLQ6A6.s:1062   .text:0000000000000228 .LVL91
     /tmp/ccoLQ6A6.s:1103   .text._ZN12ConsumerSync3runEv:0000000000000000 .LVL96
     /tmp/ccoLQ6A6.s:807    .text:00000000000000c4 .LVL63
     /tmp/ccoLQ6A6.s:827    .text:00000000000000e8 .LVL65
     /tmp/ccoLQ6A6.s:891    .text:0000000000000150 .LVL72
     /tmp/ccoLQ6A6.s:822    .text:00000000000000e0 .LVL64
     /tmp/ccoLQ6A6.s:855    .text:0000000000000118 .LVL68
     /tmp/ccoLQ6A6.s:868    .text:0000000000000134 .LVL69
     /tmp/ccoLQ6A6.s:894    .text:0000000000000154 .LVL73
     /tmp/ccoLQ6A6.s:873    .text:0000000000000138 .LVL70
     /tmp/ccoLQ6A6.s:909    .text._ZN12ProducerSync3runEv:0000000000000000 .LVL74
     /tmp/ccoLQ6A6.s:647    .text:0000000000000000 .LVL44
     /tmp/ccoLQ6A6.s:671    .text:000000000000002c .LVL46
     /tmp/ccoLQ6A6.s:758    .text:00000000000000bc .LVL60
     /tmp/ccoLQ6A6.s:752    .text:00000000000000b4 .LVL58
     /tmp/ccoLQ6A6.s:665    .text:0000000000000024 .LVL45
     /tmp/ccoLQ6A6.s:690    .text:0000000000000040 .LVL49
     /tmp/ccoLQ6A6.s:716    .text:0000000000000078 .LVL52
     /tmp/ccoLQ6A6.s:726    .text:000000000000008c .LVL53
     /tmp/ccoLQ6A6.s:728    .text:0000000000000090 .LVL54
     /tmp/ccoLQ6A6.s:703    .text:000000000000005c .LVL51
     /tmp/ccoLQ6A6.s:755    .text:00000000000000b8 .LVL59
     /tmp/ccoLQ6A6.s:734    .text:000000000000009c .LVL56
     /tmp/ccoLQ6A6.s:773    .text._ZN16ProducerKeyboard3runEv:0000000000000000 .LVL61
     /tmp/ccoLQ6A6.s:140    .text._ZN9SemaphoreD0Ev:0000000000000000 .LVL7
     /tmp/ccoLQ6A6.s:161    .text._ZN9SemaphoreD0Ev:0000000000000028 .LVL9
     /tmp/ccoLQ6A6.s:177    .text._ZN9SemaphoreD0Ev:0000000000000048 .LVL12
GAS LISTING /tmp/ccoLQ6A6.s 			page 63


     /tmp/ccoLQ6A6.s:152    .text._ZN9SemaphoreD0Ev:0000000000000018 .LVL8
     /tmp/ccoLQ6A6.s:88     .text._ZN9SemaphoreD2Ev:0000000000000000 .LVL4
     /tmp/ccoLQ6A6.s:104    .text._ZN9SemaphoreD2Ev:0000000000000020 .LVL5
     /tmp/ccoLQ6A6.s:43     .text._ZN6Thread13threadWrapperEPv:0000000000000000 .LVL1
     /tmp/ccoLQ6A6.s:72     .text._ZN6Thread13threadWrapperEPv:0000000000000030 .LVL3
     /tmp/ccoLQ6A6.s:250    .text._ZN6ThreadD0Ev:0000000000000000 .LVL15
     /tmp/ccoLQ6A6.s:285    .text._ZN6ThreadD0Ev:0000000000000044 .LVL19
     /tmp/ccoLQ6A6.s:262    .text._ZN6ThreadD0Ev:0000000000000018 .LVL16
     /tmp/ccoLQ6A6.s:201    .text._ZN6ThreadD2Ev:0000000000000000 .LVL13
     /tmp/ccoLQ6A6.s:1794   .debug_info:0000000000000000 .Ldebug_info0
     /tmp/ccoLQ6A6.s:8      .text:0000000000000000 .Ltext0
     /tmp/ccoLQ6A6.s:1788   .text:0000000000000668 .Letext0
     /tmp/ccoLQ6A6.s:970    .text:000000000000018c .LBB118
     /tmp/ccoLQ6A6.s:990    .text:00000000000001a4 .LBE118
     /tmp/ccoLQ6A6.s:995    .text:00000000000001b0 .LBB121
     /tmp/ccoLQ6A6.s:1032   .text:00000000000001f4 .LBE121
     /tmp/ccoLQ6A6.s:1400   .text:0000000000000460 .LBE164
     /tmp/ccoLQ6A6.s:1405   .text:0000000000000464 .LBB180
     /tmp/ccoLQ6A6.s:1412   .text:0000000000000468 .LBE180
     /tmp/ccoLQ6A6.s:1401   .text:0000000000000460 .LBB167
     /tmp/ccoLQ6A6.s:1404   .text:0000000000000464 .LBE167
     /tmp/ccoLQ6A6.s:1413   .text:0000000000000468 .LBB181
     /tmp/ccoLQ6A6.s:1542   .text:0000000000000554 .LBE181
     /tmp/ccoLQ6A6.s:1462   .text:00000000000004c0 .LBE172
     /tmp/ccoLQ6A6.s:1524   .text:0000000000000538 .LBB179
     /tmp/ccoLQ6A6.s:1541   .text:0000000000000554 .LBE179
     /tmp/ccoLQ6A6.s:121    .gcc_except_table._ZN9SemaphoreD2Ev:0000000000000000 .LLSDA26
     /tmp/ccoLQ6A6.s:184    .gcc_except_table._ZN9SemaphoreD0Ev:0000000000000000 .LLSDA28
     /tmp/ccoLQ6A6.s:231    .gcc_except_table._ZN6ThreadD2Ev:0000000000000000 .LLSDA12
     /tmp/ccoLQ6A6.s:292    .gcc_except_table._ZN6ThreadD0Ev:0000000000000000 .LLSDA14
     /tmp/ccoLQ6A6.s:343    .gcc_except_table._ZN12ConsumerSyncD2Ev:0000000000000000 .LLSDA50
     /tmp/ccoLQ6A6.s:406    .gcc_except_table._ZN12ConsumerSyncD0Ev:0000000000000000 .LLSDA52
     /tmp/ccoLQ6A6.s:456    .gcc_except_table._ZN12ProducerSyncD2Ev:0000000000000000 .LLSDA54
     /tmp/ccoLQ6A6.s:519    .gcc_except_table._ZN12ProducerSyncD0Ev:0000000000000000 .LLSDA56
     /tmp/ccoLQ6A6.s:569    .gcc_except_table._ZN16ProducerKeyboardD2Ev:0000000000000000 .LLSDA58
     /tmp/ccoLQ6A6.s:632    .gcc_except_table._ZN16ProducerKeyboardD0Ev:0000000000000000 .LLSDA60
     /tmp/ccoLQ6A6.s:1695   .gcc_except_table:0000000000000000 .LLSDA48
                           .group:0000000000000000 _ZN9SemaphoreD5Ev
                           .group:0000000000000000 _ZN6ThreadD5Ev
                           .group:0000000000000000 _ZN12ConsumerSyncD5Ev
                           .group:0000000000000000 _ZN12ProducerSyncD5Ev
                           .group:0000000000000000 _ZN16ProducerKeyboardD5Ev

UNDEFINED SYMBOLS
_Z9sem_closeP4_sem
__gxx_personality_v0
_ZdlPv
_Z11thread_exitv
_Z15thread_dispatchv
_Z4getcv
_ZN9BufferCPP3putEi
_Z10sem_signalP4_sem
_Z4putcc
_ZN9BufferCPP3getEv
_ZN9BufferCPP6getCntEv
_Z11printStringPKc
_Z9getStringPci
GAS LISTING /tmp/ccoLQ6A6.s 			page 64


_Z11stringToIntPKc
_Z8printIntiii
_Znwm
_ZN9BufferCPPC1Ei
_Z8sem_openPP4_semj
_Z13thread_createPP7_threadPFvPvES2_
_Z8sem_waitP4_sem
_ZN9BufferCPPD1Ev
_Unwind_Resume
