GAS LISTING /tmp/ccbuzvWS.s 			page 1


   1              		.file	"Threads_CPP_API_test.cpp"
   2              		.option nopic
   3              		.option norelax
   4              		.attribute arch, "rv64i2p0_m2p0_a2p0"
   5              		.attribute unaligned_access, 0
   6              		.attribute stack_align, 16
   7              		.text
   8              	.Ltext0:
   9              		.section	.text._ZN6Thread3runEv,"axG",@progbits,_ZN6Thread3runEv,comdat
  10              		.align	2
  11              		.weak	_ZN6Thread3runEv
  13              	_ZN6Thread3runEv:
  14              	.LFB20:
  15              		.file 1 "test/../h/syscall_cpp.hpp"
   1:test/../h/syscall_cpp.hpp **** //
   2:test/../h/syscall_cpp.hpp **** // Created by basara on 19.6.24..
   3:test/../h/syscall_cpp.hpp **** //
   4:test/../h/syscall_cpp.hpp **** 
   5:test/../h/syscall_cpp.hpp **** #ifndef OS_PROJEKAT_SYSCALL_CPP_HPP
   6:test/../h/syscall_cpp.hpp **** #define OS_PROJEKAT_SYSCALL_CPP_HPP
   7:test/../h/syscall_cpp.hpp **** 
   8:test/../h/syscall_cpp.hpp **** #include "syscall_c.hpp"
   9:test/../h/syscall_cpp.hpp **** 
  10:test/../h/syscall_cpp.hpp **** 
  11:test/../h/syscall_cpp.hpp **** //void* ::operator new(size_t);
  12:test/../h/syscall_cpp.hpp **** //void ::operator delete(void*);
  13:test/../h/syscall_cpp.hpp **** 
  14:test/../h/syscall_cpp.hpp **** class Thread {
  15:test/../h/syscall_cpp.hpp **** 
  16:test/../h/syscall_cpp.hpp **** public:
  17:test/../h/syscall_cpp.hpp ****     Thread(void (*body)(void*), void* arg):body(body), arg(arg){}
  18:test/../h/syscall_cpp.hpp ****     virtual ~Thread() { thread_exit();}
  19:test/../h/syscall_cpp.hpp **** 
  20:test/../h/syscall_cpp.hpp ****     int start(){
  21:test/../h/syscall_cpp.hpp ****         if (body == nullptr){
  22:test/../h/syscall_cpp.hpp ****             thread_create(&myhandle, &threadWrapper,this);
  23:test/../h/syscall_cpp.hpp ****         }
  24:test/../h/syscall_cpp.hpp ****         else {
  25:test/../h/syscall_cpp.hpp ****             thread_create(&myhandle, body,arg);
  26:test/../h/syscall_cpp.hpp ****         }
  27:test/../h/syscall_cpp.hpp ****         return 0;
  28:test/../h/syscall_cpp.hpp ****     }
  29:test/../h/syscall_cpp.hpp **** 
  30:test/../h/syscall_cpp.hpp ****     static void dispatch() {thread_dispatch();}
  31:test/../h/syscall_cpp.hpp ****     static int sleep(time_t);
  32:test/../h/syscall_cpp.hpp **** 
  33:test/../h/syscall_cpp.hpp **** protected:
  34:test/../h/syscall_cpp.hpp ****     Thread(){};
  35:test/../h/syscall_cpp.hpp ****     virtual void run(){}
  16              		.loc 1 35 18
  17              		.cfi_startproc
  18              	.LVL0:
  19 0000 130101FF 		addi	sp,sp,-16
  20              		.cfi_def_cfa_offset 16
  21 0004 23348100 		sd	s0,8(sp)
  22              		.cfi_offset 8, -8
  23 0008 13040101 		addi	s0,sp,16
GAS LISTING /tmp/ccbuzvWS.s 			page 2


  24              		.cfi_def_cfa 8, 0
  25              		.loc 1 35 24 is_stmt 0
  26 000c 03348100 		ld	s0,8(sp)
  27              		.cfi_restore 8
  28              		.cfi_def_cfa 2, 16
  29 0010 13010101 		addi	sp,sp,16
  30              		.cfi_def_cfa_offset 0
  31 0014 67800000 		jr	ra
  32              		.cfi_endproc
  33              	.LFE20:
  35              		.section	.text._ZN6Thread13threadWrapperEPv,"axG",@progbits,_ZN6Thread13threadWrapperEPv,comdat
  36              		.align	2
  37              		.weak	_ZN6Thread13threadWrapperEPv
  39              	_ZN6Thread13threadWrapperEPv:
  40              	.LFB21:
  36:test/../h/syscall_cpp.hpp **** 
  37:test/../h/syscall_cpp.hpp **** private:
  38:test/../h/syscall_cpp.hpp ****     static void threadWrapper(void* p){
  41              		.loc 1 38 17 is_stmt 1
  42              		.cfi_startproc
  43              	.LVL1:
  39:test/../h/syscall_cpp.hpp ****         Thread* thr = (Thread*)p;
  44              		.loc 1 39 9
  40:test/../h/syscall_cpp.hpp ****         if (thr) thr->run();
  45              		.loc 1 40 9
  46 0000 63080502 		beqz	a0,.L6
  38:test/../h/syscall_cpp.hpp ****         Thread* thr = (Thread*)p;
  47              		.loc 1 38 17 is_stmt 0 discriminator 1
  48 0004 130101FF 		addi	sp,sp,-16
  49              		.cfi_def_cfa_offset 16
  50 0008 23341100 		sd	ra,8(sp)
  51 000c 23308100 		sd	s0,0(sp)
  52              		.cfi_offset 1, -8
  53              		.cfi_offset 8, -16
  54 0010 13040101 		addi	s0,sp,16
  55              		.cfi_def_cfa 8, 0
  56              		.loc 1 40 18 is_stmt 1 discriminator 1
  57              		.loc 1 40 27 is_stmt 0 discriminator 1
  58 0014 83370500 		ld	a5,0(a0)
  59 0018 83B70701 		ld	a5,16(a5)
  60              		.loc 1 40 26 discriminator 1
  61 001c E7800700 		jalr	a5
  62              	.LVL2:
  41:test/../h/syscall_cpp.hpp ****     }
  63              		.loc 1 41 5 discriminator 1
  64 0020 83308100 		ld	ra,8(sp)
  65              		.cfi_restore 1
  66 0024 03340100 		ld	s0,0(sp)
  67              		.cfi_restore 8
  68              		.cfi_def_cfa 2, 16
  69 0028 13010101 		addi	sp,sp,16
  70              		.cfi_def_cfa_offset 0
  71 002c 67800000 		jr	ra
  72              	.LVL3:
  73              	.L6:
  74 0030 67800000 		ret
  75              		.cfi_endproc
GAS LISTING /tmp/ccbuzvWS.s 			page 3


  76              	.LFE21:
  78              		.text
  79              		.align	2
  81              	_ZL9fibonaccim:
  82              	.LFB32:
  83              		.file 2 "test/Threads_CPP_API_test.cpp"
   1:test/Threads_CPP_API_test.cpp **** #include "../h/syscall_cpp.hpp"
   2:test/Threads_CPP_API_test.cpp **** 
   3:test/Threads_CPP_API_test.cpp **** #include "printing.hpp"
   4:test/Threads_CPP_API_test.cpp **** 
   5:test/Threads_CPP_API_test.cpp **** static volatile bool finishedA = false;
   6:test/Threads_CPP_API_test.cpp **** static volatile bool finishedB = false;
   7:test/Threads_CPP_API_test.cpp **** static volatile bool finishedC = false;
   8:test/Threads_CPP_API_test.cpp **** static volatile bool finishedD = false;
   9:test/Threads_CPP_API_test.cpp **** 
  10:test/Threads_CPP_API_test.cpp **** static uint64 fibonacci(uint64 n) {
  84              		.loc 2 10 35 is_stmt 1
  85              		.cfi_startproc
  86              	.LVL4:
  87 0000 130101FE 		addi	sp,sp,-32
  88              		.cfi_def_cfa_offset 32
  89 0004 233C1100 		sd	ra,24(sp)
  90 0008 23388100 		sd	s0,16(sp)
  91 000c 23349100 		sd	s1,8(sp)
  92 0010 23302101 		sd	s2,0(sp)
  93              		.cfi_offset 1, -8
  94              		.cfi_offset 8, -16
  95              		.cfi_offset 9, -24
  96              		.cfi_offset 18, -32
  97 0014 13040102 		addi	s0,sp,32
  98              		.cfi_def_cfa 8, 0
  99 0018 93040500 		mv	s1,a0
  11:test/Threads_CPP_API_test.cpp ****     if (n == 0 || n == 1) { return n; }
 100              		.loc 2 11 5
 101 001c 93071000 		li	a5,1
 102 0020 63F8A702 		bleu	a0,a5,.L9
  12:test/Threads_CPP_API_test.cpp ****     if (n % 10 == 0) { thread_dispatch(); }
 103              		.loc 2 12 5
 104              		.loc 2 12 11 is_stmt 0
 105 0024 9307A000 		li	a5,10
 106 0028 B377F502 		remu	a5,a0,a5
 107              		.loc 2 12 5
 108 002c 638E0702 		beqz	a5,.L14
 109              	.LVL5:
 110              	.L11:
  13:test/Threads_CPP_API_test.cpp ****     return fibonacci(n - 1) + fibonacci(n - 2);
 111              		.loc 2 13 5 is_stmt 1
 112              		.loc 2 13 21 is_stmt 0
 113 0030 1385F4FF 		addi	a0,s1,-1
 114 0034 97000000 		call	_ZL9fibonaccim
 114      E7800000 
 115              	.LVL6:
 116 003c 13090500 		mv	s2,a0
 117              		.loc 2 13 40
 118 0040 1385E4FF 		addi	a0,s1,-2
 119 0044 97000000 		call	_ZL9fibonaccim
 119      E7800000 
GAS LISTING /tmp/ccbuzvWS.s 			page 4


 120              	.LVL7:
 121              		.loc 2 13 46
 122 004c 3305A900 		add	a0,s2,a0
 123              	.L9:
  14:test/Threads_CPP_API_test.cpp **** }
 124              		.loc 2 14 1
 125 0050 83308101 		ld	ra,24(sp)
 126              		.cfi_remember_state
 127              		.cfi_restore 1
 128 0054 03340101 		ld	s0,16(sp)
 129              		.cfi_restore 8
 130              		.cfi_def_cfa 2, 32
 131 0058 83348100 		ld	s1,8(sp)
 132              		.cfi_restore 9
 133              	.LVL8:
 134 005c 03390100 		ld	s2,0(sp)
 135              		.cfi_restore 18
 136 0060 13010102 		addi	sp,sp,32
 137              		.cfi_def_cfa_offset 0
 138 0064 67800000 		jr	ra
 139              	.LVL9:
 140              	.L14:
 141              		.cfi_restore_state
  12:test/Threads_CPP_API_test.cpp ****     if (n % 10 == 0) { thread_dispatch(); }
 142              		.loc 2 12 24 is_stmt 1 discriminator 1
  12:test/Threads_CPP_API_test.cpp ****     if (n % 10 == 0) { thread_dispatch(); }
 143              		.loc 2 12 39 is_stmt 0 discriminator 1
 144 0068 97000000 		call	_Z15thread_dispatchv
 144      E7800000 
 145              	.LVL10:
 146 0070 6FF01FFC 		j	.L11
 147              		.cfi_endproc
 148              	.LFE32:
 150              		.section	.text._ZN6ThreadD2Ev,"axG",@progbits,_ZN6ThreadD5Ev,comdat
 151              		.align	2
 152              		.weak	_ZN6ThreadD2Ev
 154              	_ZN6ThreadD2Ev:
 155              	.LFB12:
  18:test/../h/syscall_cpp.hpp **** 
 156              		.loc 1 18 13 is_stmt 1
 157              		.cfi_startproc
 158              		.cfi_personality 0x9b,DW.ref.__gxx_personality_v0
 159              		.cfi_lsda 0x1b,.LLSDA12
 160              	.LVL11:
 161 0000 130101FF 		addi	sp,sp,-16
 162              		.cfi_def_cfa_offset 16
 163 0004 23341100 		sd	ra,8(sp)
 164 0008 23308100 		sd	s0,0(sp)
 165              		.cfi_offset 1, -8
 166              		.cfi_offset 8, -16
 167 000c 13040101 		addi	s0,sp,16
 168              		.cfi_def_cfa 8, 0
 169              	.LBB85:
  18:test/../h/syscall_cpp.hpp **** 
 170              		.loc 1 18 23 is_stmt 0
 171 0010 97070000 		lla	a5,_ZTV6Thread+16
 171      93870700 
GAS LISTING /tmp/ccbuzvWS.s 			page 5


 172 0018 2330F500 		sd	a5,0(a0)
  18:test/../h/syscall_cpp.hpp **** 
 173              		.loc 1 18 25 is_stmt 1
  18:test/../h/syscall_cpp.hpp **** 
 174              		.loc 1 18 36 is_stmt 0
 175 001c 97000000 		call	_Z11thread_exitv
 175      E7800000 
 176              	.LVL12:
 177              	.LBE85:
  18:test/../h/syscall_cpp.hpp **** 
 178              		.loc 1 18 39
 179 0024 83308100 		ld	ra,8(sp)
 180              		.cfi_restore 1
 181 0028 03340100 		ld	s0,0(sp)
 182              		.cfi_restore 8
 183              		.cfi_def_cfa 2, 16
 184 002c 13010101 		addi	sp,sp,16
 185              		.cfi_def_cfa_offset 0
 186 0030 67800000 		jr	ra
 187              		.cfi_endproc
 188              	.LFE12:
 189              		.globl	__gxx_personality_v0
 190              		.section	.gcc_except_table._ZN6ThreadD2Ev,"awG",@progbits,_ZN6ThreadD5Ev,comdat
 191              	.LLSDA12:
 192 0000 FF       		.byte	0xff
 193 0001 FF       		.byte	0xff
 194 0002 03       		.byte	0x3
 195 0003 00       		.byte	0
 196              		.section	.text._ZN6ThreadD2Ev,"axG",@progbits,_ZN6ThreadD5Ev,comdat
 198              		.weak	_ZN6ThreadD1Ev
 199              		.set	_ZN6ThreadD1Ev,_ZN6ThreadD2Ev
 200              		.section	.text._ZN6ThreadD0Ev,"axG",@progbits,_ZN6ThreadD5Ev,comdat
 201              		.align	2
 202              		.weak	_ZN6ThreadD0Ev
 204              	_ZN6ThreadD0Ev:
 205              	.LFB14:
  18:test/../h/syscall_cpp.hpp **** 
 206              		.loc 1 18 13 is_stmt 1
 207              		.cfi_startproc
 208              		.cfi_personality 0x9b,DW.ref.__gxx_personality_v0
 209              		.cfi_lsda 0x1b,.LLSDA14
 210              	.LVL13:
 211 0000 130101FE 		addi	sp,sp,-32
 212              		.cfi_def_cfa_offset 32
 213 0004 233C1100 		sd	ra,24(sp)
 214 0008 23388100 		sd	s0,16(sp)
 215 000c 23349100 		sd	s1,8(sp)
 216              		.cfi_offset 1, -8
 217              		.cfi_offset 8, -16
 218              		.cfi_offset 9, -24
 219 0010 13040102 		addi	s0,sp,32
 220              		.cfi_def_cfa 8, 0
 221 0014 93040500 		mv	s1,a0
 222              	.LVL14:
 223              	.LBB86:
 224              	.LBB87:
  18:test/../h/syscall_cpp.hpp **** 
GAS LISTING /tmp/ccbuzvWS.s 			page 6


 225              		.loc 1 18 23 is_stmt 0
 226 0018 97070000 		lla	a5,_ZTV6Thread+16
 226      93870700 
 227 0020 2330F500 		sd	a5,0(a0)
  18:test/../h/syscall_cpp.hpp **** 
 228              		.loc 1 18 25 is_stmt 1
  18:test/../h/syscall_cpp.hpp **** 
 229              		.loc 1 18 36 is_stmt 0
 230 0024 97000000 		call	_Z11thread_exitv
 230      E7800000 
 231              	.LVL15:
 232              	.LBE87:
 233              	.LBE86:
  18:test/../h/syscall_cpp.hpp **** 
 234              		.loc 1 18 39
 235 002c 13850400 		mv	a0,s1
 236 0030 97000000 		call	_ZdlPv
 236      E7800000 
 237              	.LVL16:
 238 0038 83308101 		ld	ra,24(sp)
 239              		.cfi_restore 1
 240 003c 03340101 		ld	s0,16(sp)
 241              		.cfi_restore 8
 242              		.cfi_def_cfa 2, 32
 243 0040 83348100 		ld	s1,8(sp)
 244              		.cfi_restore 9
 245              	.LVL17:
 246 0044 13010102 		addi	sp,sp,32
 247              		.cfi_def_cfa_offset 0
 248 0048 67800000 		jr	ra
 249              		.cfi_endproc
 250              	.LFE14:
 251              		.section	.gcc_except_table._ZN6ThreadD0Ev,"awG",@progbits,_ZN6ThreadD5Ev,comdat
 252              	.LLSDA14:
 253 0000 FF       		.byte	0xff
 254 0001 FF       		.byte	0xff
 255 0002 03       		.byte	0x3
 256 0003 00       		.byte	0
 257              		.section	.text._ZN6ThreadD0Ev,"axG",@progbits,_ZN6ThreadD5Ev,comdat
 259              		.section	.text._ZN7WorkerAD2Ev,"axG",@progbits,_ZN7WorkerAD5Ev,comdat
 260              		.align	2
 261              		.weak	_ZN7WorkerAD2Ev
 263              	_ZN7WorkerAD2Ev:
 264              	.LFB67:
  15:test/Threads_CPP_API_test.cpp **** 
  16:test/Threads_CPP_API_test.cpp **** class WorkerA: public Thread {
 265              		.loc 2 16 7 is_stmt 1
 266              		.cfi_startproc
 267              		.cfi_personality 0x9b,DW.ref.__gxx_personality_v0
 268              		.cfi_lsda 0x1b,.LLSDA67
 269              	.LVL18:
 270 0000 130101FF 		addi	sp,sp,-16
 271              		.cfi_def_cfa_offset 16
 272 0004 23341100 		sd	ra,8(sp)
 273 0008 23308100 		sd	s0,0(sp)
 274              		.cfi_offset 1, -8
 275              		.cfi_offset 8, -16
GAS LISTING /tmp/ccbuzvWS.s 			page 7


 276 000c 13040101 		addi	s0,sp,16
 277              		.cfi_def_cfa 8, 0
 278              	.LVL19:
 279              	.LBB88:
 280              	.LBB89:
  18:test/../h/syscall_cpp.hpp **** 
 281              		.loc 1 18 23 is_stmt 0
 282 0010 97070000 		lla	a5,_ZTV6Thread+16
 282      93870700 
 283 0018 2330F500 		sd	a5,0(a0)
  18:test/../h/syscall_cpp.hpp **** 
 284              		.loc 1 18 25 is_stmt 1
  18:test/../h/syscall_cpp.hpp **** 
 285              		.loc 1 18 36 is_stmt 0
 286 001c 97000000 		call	_Z11thread_exitv
 286      E7800000 
 287              	.LVL20:
 288              	.LBE89:
 289              	.LBE88:
 290              		.loc 2 16 7
 291 0024 83308100 		ld	ra,8(sp)
 292              		.cfi_restore 1
 293 0028 03340100 		ld	s0,0(sp)
 294              		.cfi_restore 8
 295              		.cfi_def_cfa 2, 16
 296 002c 13010101 		addi	sp,sp,16
 297              		.cfi_def_cfa_offset 0
 298 0030 67800000 		jr	ra
 299              		.cfi_endproc
 300              	.LFE67:
 301              		.section	.gcc_except_table._ZN7WorkerAD2Ev,"awG",@progbits,_ZN7WorkerAD5Ev,comdat
 302              	.LLSDA67:
 303 0000 FF       		.byte	0xff
 304 0001 FF       		.byte	0xff
 305 0002 03       		.byte	0x3
 306 0003 00       		.byte	0
 307              		.section	.text._ZN7WorkerAD2Ev,"axG",@progbits,_ZN7WorkerAD5Ev,comdat
 309              		.weak	_ZN7WorkerAD1Ev
 310              		.set	_ZN7WorkerAD1Ev,_ZN7WorkerAD2Ev
 311              		.section	.text._ZN7WorkerAD0Ev,"axG",@progbits,_ZN7WorkerAD5Ev,comdat
 312              		.align	2
 313              		.weak	_ZN7WorkerAD0Ev
 315              	_ZN7WorkerAD0Ev:
 316              	.LFB69:
 317              		.loc 2 16 7 is_stmt 1
 318              		.cfi_startproc
 319              		.cfi_personality 0x9b,DW.ref.__gxx_personality_v0
 320              		.cfi_lsda 0x1b,.LLSDA69
 321              	.LVL21:
 322 0000 130101FE 		addi	sp,sp,-32
 323              		.cfi_def_cfa_offset 32
 324 0004 233C1100 		sd	ra,24(sp)
 325 0008 23388100 		sd	s0,16(sp)
 326 000c 23349100 		sd	s1,8(sp)
 327              		.cfi_offset 1, -8
 328              		.cfi_offset 8, -16
 329              		.cfi_offset 9, -24
GAS LISTING /tmp/ccbuzvWS.s 			page 8


 330 0010 13040102 		addi	s0,sp,32
 331              		.cfi_def_cfa 8, 0
 332 0014 93040500 		mv	s1,a0
 333              	.LVL22:
 334              	.LBB90:
 335              	.LBB91:
 336              	.LBB92:
  18:test/../h/syscall_cpp.hpp **** 
 337              		.loc 1 18 23 is_stmt 0
 338 0018 97070000 		lla	a5,_ZTV6Thread+16
 338      93870700 
 339 0020 2330F500 		sd	a5,0(a0)
  18:test/../h/syscall_cpp.hpp **** 
 340              		.loc 1 18 25 is_stmt 1
  18:test/../h/syscall_cpp.hpp **** 
 341              		.loc 1 18 36 is_stmt 0
 342 0024 97000000 		call	_Z11thread_exitv
 342      E7800000 
 343              	.LVL23:
 344              	.LBE92:
 345              	.LBE91:
 346              	.LBE90:
 347              		.loc 2 16 7
 348 002c 13850400 		mv	a0,s1
 349 0030 97000000 		call	_ZdlPv
 349      E7800000 
 350              	.LVL24:
 351 0038 83308101 		ld	ra,24(sp)
 352              		.cfi_restore 1
 353 003c 03340101 		ld	s0,16(sp)
 354              		.cfi_restore 8
 355              		.cfi_def_cfa 2, 32
 356 0040 83348100 		ld	s1,8(sp)
 357              		.cfi_restore 9
 358              	.LVL25:
 359 0044 13010102 		addi	sp,sp,32
 360              		.cfi_def_cfa_offset 0
 361 0048 67800000 		jr	ra
 362              		.cfi_endproc
 363              	.LFE69:
 364              		.section	.gcc_except_table._ZN7WorkerAD0Ev,"awG",@progbits,_ZN7WorkerAD5Ev,comdat
 365              	.LLSDA69:
 366 0000 FF       		.byte	0xff
 367 0001 FF       		.byte	0xff
 368 0002 03       		.byte	0x3
 369 0003 00       		.byte	0
 370              		.section	.text._ZN7WorkerAD0Ev,"axG",@progbits,_ZN7WorkerAD5Ev,comdat
 372              		.section	.text._ZN7WorkerBD2Ev,"axG",@progbits,_ZN7WorkerBD5Ev,comdat
 373              		.align	2
 374              		.weak	_ZN7WorkerBD2Ev
 376              	_ZN7WorkerBD2Ev:
 377              	.LFB63:
  17:test/Threads_CPP_API_test.cpp ****     void workerBodyA(void* arg);
  18:test/Threads_CPP_API_test.cpp **** public:
  19:test/Threads_CPP_API_test.cpp ****     WorkerA():Thread() {}
  20:test/Threads_CPP_API_test.cpp **** 
  21:test/Threads_CPP_API_test.cpp ****     void run() override {
GAS LISTING /tmp/ccbuzvWS.s 			page 9


  22:test/Threads_CPP_API_test.cpp ****         workerBodyA(nullptr);
  23:test/Threads_CPP_API_test.cpp ****     }
  24:test/Threads_CPP_API_test.cpp **** };
  25:test/Threads_CPP_API_test.cpp **** 
  26:test/Threads_CPP_API_test.cpp **** class WorkerB: public Thread {
 378              		.loc 2 26 7 is_stmt 1
 379              		.cfi_startproc
 380              		.cfi_personality 0x9b,DW.ref.__gxx_personality_v0
 381              		.cfi_lsda 0x1b,.LLSDA63
 382              	.LVL26:
 383 0000 130101FF 		addi	sp,sp,-16
 384              		.cfi_def_cfa_offset 16
 385 0004 23341100 		sd	ra,8(sp)
 386 0008 23308100 		sd	s0,0(sp)
 387              		.cfi_offset 1, -8
 388              		.cfi_offset 8, -16
 389 000c 13040101 		addi	s0,sp,16
 390              		.cfi_def_cfa 8, 0
 391              	.LVL27:
 392              	.LBB93:
 393              	.LBB94:
  18:test/../h/syscall_cpp.hpp **** 
 394              		.loc 1 18 23 is_stmt 0
 395 0010 97070000 		lla	a5,_ZTV6Thread+16
 395      93870700 
 396 0018 2330F500 		sd	a5,0(a0)
  18:test/../h/syscall_cpp.hpp **** 
 397              		.loc 1 18 25 is_stmt 1
  18:test/../h/syscall_cpp.hpp **** 
 398              		.loc 1 18 36 is_stmt 0
 399 001c 97000000 		call	_Z11thread_exitv
 399      E7800000 
 400              	.LVL28:
 401              	.LBE94:
 402              	.LBE93:
 403              		.loc 2 26 7
 404 0024 83308100 		ld	ra,8(sp)
 405              		.cfi_restore 1
 406 0028 03340100 		ld	s0,0(sp)
 407              		.cfi_restore 8
 408              		.cfi_def_cfa 2, 16
 409 002c 13010101 		addi	sp,sp,16
 410              		.cfi_def_cfa_offset 0
 411 0030 67800000 		jr	ra
 412              		.cfi_endproc
 413              	.LFE63:
 414              		.section	.gcc_except_table._ZN7WorkerBD2Ev,"awG",@progbits,_ZN7WorkerBD5Ev,comdat
 415              	.LLSDA63:
 416 0000 FF       		.byte	0xff
 417 0001 FF       		.byte	0xff
 418 0002 03       		.byte	0x3
 419 0003 00       		.byte	0
 420              		.section	.text._ZN7WorkerBD2Ev,"axG",@progbits,_ZN7WorkerBD5Ev,comdat
 422              		.weak	_ZN7WorkerBD1Ev
 423              		.set	_ZN7WorkerBD1Ev,_ZN7WorkerBD2Ev
 424              		.section	.text._ZN7WorkerBD0Ev,"axG",@progbits,_ZN7WorkerBD5Ev,comdat
 425              		.align	2
GAS LISTING /tmp/ccbuzvWS.s 			page 10


 426              		.weak	_ZN7WorkerBD0Ev
 428              	_ZN7WorkerBD0Ev:
 429              	.LFB65:
 430              		.loc 2 26 7 is_stmt 1
 431              		.cfi_startproc
 432              		.cfi_personality 0x9b,DW.ref.__gxx_personality_v0
 433              		.cfi_lsda 0x1b,.LLSDA65
 434              	.LVL29:
 435 0000 130101FE 		addi	sp,sp,-32
 436              		.cfi_def_cfa_offset 32
 437 0004 233C1100 		sd	ra,24(sp)
 438 0008 23388100 		sd	s0,16(sp)
 439 000c 23349100 		sd	s1,8(sp)
 440              		.cfi_offset 1, -8
 441              		.cfi_offset 8, -16
 442              		.cfi_offset 9, -24
 443 0010 13040102 		addi	s0,sp,32
 444              		.cfi_def_cfa 8, 0
 445 0014 93040500 		mv	s1,a0
 446              	.LVL30:
 447              	.LBB95:
 448              	.LBB96:
 449              	.LBB97:
  18:test/../h/syscall_cpp.hpp **** 
 450              		.loc 1 18 23 is_stmt 0
 451 0018 97070000 		lla	a5,_ZTV6Thread+16
 451      93870700 
 452 0020 2330F500 		sd	a5,0(a0)
  18:test/../h/syscall_cpp.hpp **** 
 453              		.loc 1 18 25 is_stmt 1
  18:test/../h/syscall_cpp.hpp **** 
 454              		.loc 1 18 36 is_stmt 0
 455 0024 97000000 		call	_Z11thread_exitv
 455      E7800000 
 456              	.LVL31:
 457              	.LBE97:
 458              	.LBE96:
 459              	.LBE95:
 460              		.loc 2 26 7
 461 002c 13850400 		mv	a0,s1
 462 0030 97000000 		call	_ZdlPv
 462      E7800000 
 463              	.LVL32:
 464 0038 83308101 		ld	ra,24(sp)
 465              		.cfi_restore 1
 466 003c 03340101 		ld	s0,16(sp)
 467              		.cfi_restore 8
 468              		.cfi_def_cfa 2, 32
 469 0040 83348100 		ld	s1,8(sp)
 470              		.cfi_restore 9
 471              	.LVL33:
 472 0044 13010102 		addi	sp,sp,32
 473              		.cfi_def_cfa_offset 0
 474 0048 67800000 		jr	ra
 475              		.cfi_endproc
 476              	.LFE65:
 477              		.section	.gcc_except_table._ZN7WorkerBD0Ev,"awG",@progbits,_ZN7WorkerBD5Ev,comdat
GAS LISTING /tmp/ccbuzvWS.s 			page 11


 478              	.LLSDA65:
 479 0000 FF       		.byte	0xff
 480 0001 FF       		.byte	0xff
 481 0002 03       		.byte	0x3
 482 0003 00       		.byte	0
 483              		.section	.text._ZN7WorkerBD0Ev,"axG",@progbits,_ZN7WorkerBD5Ev,comdat
 485              		.section	.text._ZN7WorkerCD2Ev,"axG",@progbits,_ZN7WorkerCD5Ev,comdat
 486              		.align	2
 487              		.weak	_ZN7WorkerCD2Ev
 489              	_ZN7WorkerCD2Ev:
 490              	.LFB59:
  27:test/Threads_CPP_API_test.cpp ****     void workerBodyB(void* arg);
  28:test/Threads_CPP_API_test.cpp **** public:
  29:test/Threads_CPP_API_test.cpp ****     WorkerB():Thread() {}
  30:test/Threads_CPP_API_test.cpp **** 
  31:test/Threads_CPP_API_test.cpp ****     void run() override {
  32:test/Threads_CPP_API_test.cpp ****         workerBodyB(nullptr);
  33:test/Threads_CPP_API_test.cpp ****     }
  34:test/Threads_CPP_API_test.cpp **** };
  35:test/Threads_CPP_API_test.cpp **** 
  36:test/Threads_CPP_API_test.cpp **** class WorkerC: public Thread {
 491              		.loc 2 36 7 is_stmt 1
 492              		.cfi_startproc
 493              		.cfi_personality 0x9b,DW.ref.__gxx_personality_v0
 494              		.cfi_lsda 0x1b,.LLSDA59
 495              	.LVL34:
 496 0000 130101FF 		addi	sp,sp,-16
 497              		.cfi_def_cfa_offset 16
 498 0004 23341100 		sd	ra,8(sp)
 499 0008 23308100 		sd	s0,0(sp)
 500              		.cfi_offset 1, -8
 501              		.cfi_offset 8, -16
 502 000c 13040101 		addi	s0,sp,16
 503              		.cfi_def_cfa 8, 0
 504              	.LVL35:
 505              	.LBB98:
 506              	.LBB99:
  18:test/../h/syscall_cpp.hpp **** 
 507              		.loc 1 18 23 is_stmt 0
 508 0010 97070000 		lla	a5,_ZTV6Thread+16
 508      93870700 
 509 0018 2330F500 		sd	a5,0(a0)
  18:test/../h/syscall_cpp.hpp **** 
 510              		.loc 1 18 25 is_stmt 1
  18:test/../h/syscall_cpp.hpp **** 
 511              		.loc 1 18 36 is_stmt 0
 512 001c 97000000 		call	_Z11thread_exitv
 512      E7800000 
 513              	.LVL36:
 514              	.LBE99:
 515              	.LBE98:
 516              		.loc 2 36 7
 517 0024 83308100 		ld	ra,8(sp)
 518              		.cfi_restore 1
 519 0028 03340100 		ld	s0,0(sp)
 520              		.cfi_restore 8
 521              		.cfi_def_cfa 2, 16
GAS LISTING /tmp/ccbuzvWS.s 			page 12


 522 002c 13010101 		addi	sp,sp,16
 523              		.cfi_def_cfa_offset 0
 524 0030 67800000 		jr	ra
 525              		.cfi_endproc
 526              	.LFE59:
 527              		.section	.gcc_except_table._ZN7WorkerCD2Ev,"awG",@progbits,_ZN7WorkerCD5Ev,comdat
 528              	.LLSDA59:
 529 0000 FF       		.byte	0xff
 530 0001 FF       		.byte	0xff
 531 0002 03       		.byte	0x3
 532 0003 00       		.byte	0
 533              		.section	.text._ZN7WorkerCD2Ev,"axG",@progbits,_ZN7WorkerCD5Ev,comdat
 535              		.weak	_ZN7WorkerCD1Ev
 536              		.set	_ZN7WorkerCD1Ev,_ZN7WorkerCD2Ev
 537              		.section	.text._ZN7WorkerCD0Ev,"axG",@progbits,_ZN7WorkerCD5Ev,comdat
 538              		.align	2
 539              		.weak	_ZN7WorkerCD0Ev
 541              	_ZN7WorkerCD0Ev:
 542              	.LFB61:
 543              		.loc 2 36 7 is_stmt 1
 544              		.cfi_startproc
 545              		.cfi_personality 0x9b,DW.ref.__gxx_personality_v0
 546              		.cfi_lsda 0x1b,.LLSDA61
 547              	.LVL37:
 548 0000 130101FE 		addi	sp,sp,-32
 549              		.cfi_def_cfa_offset 32
 550 0004 233C1100 		sd	ra,24(sp)
 551 0008 23388100 		sd	s0,16(sp)
 552 000c 23349100 		sd	s1,8(sp)
 553              		.cfi_offset 1, -8
 554              		.cfi_offset 8, -16
 555              		.cfi_offset 9, -24
 556 0010 13040102 		addi	s0,sp,32
 557              		.cfi_def_cfa 8, 0
 558 0014 93040500 		mv	s1,a0
 559              	.LVL38:
 560              	.LBB100:
 561              	.LBB101:
 562              	.LBB102:
  18:test/../h/syscall_cpp.hpp **** 
 563              		.loc 1 18 23 is_stmt 0
 564 0018 97070000 		lla	a5,_ZTV6Thread+16
 564      93870700 
 565 0020 2330F500 		sd	a5,0(a0)
  18:test/../h/syscall_cpp.hpp **** 
 566              		.loc 1 18 25 is_stmt 1
  18:test/../h/syscall_cpp.hpp **** 
 567              		.loc 1 18 36 is_stmt 0
 568 0024 97000000 		call	_Z11thread_exitv
 568      E7800000 
 569              	.LVL39:
 570              	.LBE102:
 571              	.LBE101:
 572              	.LBE100:
 573              		.loc 2 36 7
 574 002c 13850400 		mv	a0,s1
 575 0030 97000000 		call	_ZdlPv
GAS LISTING /tmp/ccbuzvWS.s 			page 13


 575      E7800000 
 576              	.LVL40:
 577 0038 83308101 		ld	ra,24(sp)
 578              		.cfi_restore 1
 579 003c 03340101 		ld	s0,16(sp)
 580              		.cfi_restore 8
 581              		.cfi_def_cfa 2, 32
 582 0040 83348100 		ld	s1,8(sp)
 583              		.cfi_restore 9
 584              	.LVL41:
 585 0044 13010102 		addi	sp,sp,32
 586              		.cfi_def_cfa_offset 0
 587 0048 67800000 		jr	ra
 588              		.cfi_endproc
 589              	.LFE61:
 590              		.section	.gcc_except_table._ZN7WorkerCD0Ev,"awG",@progbits,_ZN7WorkerCD5Ev,comdat
 591              	.LLSDA61:
 592 0000 FF       		.byte	0xff
 593 0001 FF       		.byte	0xff
 594 0002 03       		.byte	0x3
 595 0003 00       		.byte	0
 596              		.section	.text._ZN7WorkerCD0Ev,"axG",@progbits,_ZN7WorkerCD5Ev,comdat
 598              		.section	.text._ZN7WorkerDD2Ev,"axG",@progbits,_ZN7WorkerDD5Ev,comdat
 599              		.align	2
 600              		.weak	_ZN7WorkerDD2Ev
 602              	_ZN7WorkerDD2Ev:
 603              	.LFB55:
  37:test/Threads_CPP_API_test.cpp ****     void workerBodyC(void* arg);
  38:test/Threads_CPP_API_test.cpp **** public:
  39:test/Threads_CPP_API_test.cpp ****     WorkerC():Thread() {}
  40:test/Threads_CPP_API_test.cpp **** 
  41:test/Threads_CPP_API_test.cpp ****     void run() override {
  42:test/Threads_CPP_API_test.cpp ****         workerBodyC(nullptr);
  43:test/Threads_CPP_API_test.cpp ****     }
  44:test/Threads_CPP_API_test.cpp **** };
  45:test/Threads_CPP_API_test.cpp **** 
  46:test/Threads_CPP_API_test.cpp **** class WorkerD: public Thread {
 604              		.loc 2 46 7 is_stmt 1
 605              		.cfi_startproc
 606              		.cfi_personality 0x9b,DW.ref.__gxx_personality_v0
 607              		.cfi_lsda 0x1b,.LLSDA55
 608              	.LVL42:
 609 0000 130101FF 		addi	sp,sp,-16
 610              		.cfi_def_cfa_offset 16
 611 0004 23341100 		sd	ra,8(sp)
 612 0008 23308100 		sd	s0,0(sp)
 613              		.cfi_offset 1, -8
 614              		.cfi_offset 8, -16
 615 000c 13040101 		addi	s0,sp,16
 616              		.cfi_def_cfa 8, 0
 617              	.LVL43:
 618              	.LBB103:
 619              	.LBB104:
  18:test/../h/syscall_cpp.hpp **** 
 620              		.loc 1 18 23 is_stmt 0
 621 0010 97070000 		lla	a5,_ZTV6Thread+16
 621      93870700 
GAS LISTING /tmp/ccbuzvWS.s 			page 14


 622 0018 2330F500 		sd	a5,0(a0)
  18:test/../h/syscall_cpp.hpp **** 
 623              		.loc 1 18 25 is_stmt 1
  18:test/../h/syscall_cpp.hpp **** 
 624              		.loc 1 18 36 is_stmt 0
 625 001c 97000000 		call	_Z11thread_exitv
 625      E7800000 
 626              	.LVL44:
 627              	.LBE104:
 628              	.LBE103:
 629              		.loc 2 46 7
 630 0024 83308100 		ld	ra,8(sp)
 631              		.cfi_restore 1
 632 0028 03340100 		ld	s0,0(sp)
 633              		.cfi_restore 8
 634              		.cfi_def_cfa 2, 16
 635 002c 13010101 		addi	sp,sp,16
 636              		.cfi_def_cfa_offset 0
 637 0030 67800000 		jr	ra
 638              		.cfi_endproc
 639              	.LFE55:
 640              		.section	.gcc_except_table._ZN7WorkerDD2Ev,"awG",@progbits,_ZN7WorkerDD5Ev,comdat
 641              	.LLSDA55:
 642 0000 FF       		.byte	0xff
 643 0001 FF       		.byte	0xff
 644 0002 03       		.byte	0x3
 645 0003 00       		.byte	0
 646              		.section	.text._ZN7WorkerDD2Ev,"axG",@progbits,_ZN7WorkerDD5Ev,comdat
 648              		.weak	_ZN7WorkerDD1Ev
 649              		.set	_ZN7WorkerDD1Ev,_ZN7WorkerDD2Ev
 650              		.section	.text._ZN7WorkerDD0Ev,"axG",@progbits,_ZN7WorkerDD5Ev,comdat
 651              		.align	2
 652              		.weak	_ZN7WorkerDD0Ev
 654              	_ZN7WorkerDD0Ev:
 655              	.LFB57:
 656              		.loc 2 46 7 is_stmt 1
 657              		.cfi_startproc
 658              		.cfi_personality 0x9b,DW.ref.__gxx_personality_v0
 659              		.cfi_lsda 0x1b,.LLSDA57
 660              	.LVL45:
 661 0000 130101FE 		addi	sp,sp,-32
 662              		.cfi_def_cfa_offset 32
 663 0004 233C1100 		sd	ra,24(sp)
 664 0008 23388100 		sd	s0,16(sp)
 665 000c 23349100 		sd	s1,8(sp)
 666              		.cfi_offset 1, -8
 667              		.cfi_offset 8, -16
 668              		.cfi_offset 9, -24
 669 0010 13040102 		addi	s0,sp,32
 670              		.cfi_def_cfa 8, 0
 671 0014 93040500 		mv	s1,a0
 672              	.LVL46:
 673              	.LBB105:
 674              	.LBB106:
 675              	.LBB107:
  18:test/../h/syscall_cpp.hpp **** 
 676              		.loc 1 18 23 is_stmt 0
GAS LISTING /tmp/ccbuzvWS.s 			page 15


 677 0018 97070000 		lla	a5,_ZTV6Thread+16
 677      93870700 
 678 0020 2330F500 		sd	a5,0(a0)
  18:test/../h/syscall_cpp.hpp **** 
 679              		.loc 1 18 25 is_stmt 1
  18:test/../h/syscall_cpp.hpp **** 
 680              		.loc 1 18 36 is_stmt 0
 681 0024 97000000 		call	_Z11thread_exitv
 681      E7800000 
 682              	.LVL47:
 683              	.LBE107:
 684              	.LBE106:
 685              	.LBE105:
 686              		.loc 2 46 7
 687 002c 13850400 		mv	a0,s1
 688 0030 97000000 		call	_ZdlPv
 688      E7800000 
 689              	.LVL48:
 690 0038 83308101 		ld	ra,24(sp)
 691              		.cfi_restore 1
 692 003c 03340101 		ld	s0,16(sp)
 693              		.cfi_restore 8
 694              		.cfi_def_cfa 2, 32
 695 0040 83348100 		ld	s1,8(sp)
 696              		.cfi_restore 9
 697              	.LVL49:
 698 0044 13010102 		addi	sp,sp,32
 699              		.cfi_def_cfa_offset 0
 700 0048 67800000 		jr	ra
 701              		.cfi_endproc
 702              	.LFE57:
 703              		.section	.gcc_except_table._ZN7WorkerDD0Ev,"awG",@progbits,_ZN7WorkerDD5Ev,comdat
 704              	.LLSDA57:
 705 0000 FF       		.byte	0xff
 706 0001 FF       		.byte	0xff
 707 0002 03       		.byte	0x3
 708 0003 00       		.byte	0
 709              		.section	.text._ZN7WorkerDD0Ev,"axG",@progbits,_ZN7WorkerDD5Ev,comdat
 711              		.section	.rodata.str1.8,"aMS",@progbits,1
 712              		.align	3
 713              	.LC0:
 714 0000 413A2069 		.string	"A: i="
 714      3D00
 715 0006 0000     		.align	3
 716              	.LC1:
 717 0008 0A00     		.string	"\n"
 718 000a 00000000 		.align	3
 718      0000
 719              	.LC2:
 720 0010 41206669 		.string	"A finished!\n"
 720      6E697368 
 720      6564210A 
 720      00
 721              		.text
 722              		.align	2
 723              		.globl	_ZN7WorkerA11workerBodyAEPv
 725              	_ZN7WorkerA11workerBodyAEPv:
GAS LISTING /tmp/ccbuzvWS.s 			page 16


 726              	.LFB49:
  47:test/Threads_CPP_API_test.cpp ****     void workerBodyD(void* arg);
  48:test/Threads_CPP_API_test.cpp **** public:
  49:test/Threads_CPP_API_test.cpp ****     WorkerD():Thread() {}
  50:test/Threads_CPP_API_test.cpp **** 
  51:test/Threads_CPP_API_test.cpp ****     void run() override {
  52:test/Threads_CPP_API_test.cpp ****         workerBodyD(nullptr);
  53:test/Threads_CPP_API_test.cpp ****     }
  54:test/Threads_CPP_API_test.cpp **** };
  55:test/Threads_CPP_API_test.cpp **** 
  56:test/Threads_CPP_API_test.cpp **** void WorkerA::workerBodyA(void *arg) {
 727              		.loc 2 56 38 is_stmt 1
 728              		.cfi_startproc
 729              	.LVL50:
 730 0074 130101FE 		addi	sp,sp,-32
 731              		.cfi_def_cfa_offset 32
 732 0078 233C1100 		sd	ra,24(sp)
 733 007c 23388100 		sd	s0,16(sp)
 734 0080 23349100 		sd	s1,8(sp)
 735 0084 23302101 		sd	s2,0(sp)
 736              		.cfi_offset 1, -8
 737              		.cfi_offset 8, -16
 738              		.cfi_offset 9, -24
 739              		.cfi_offset 18, -32
 740 0088 13040102 		addi	s0,sp,32
 741              		.cfi_def_cfa 8, 0
  57:test/Threads_CPP_API_test.cpp ****     for (uint64 i = 0; i < 10; i++) {
 742              		.loc 2 57 5
 743              	.LVL51:
 744              	.LBB108:
 745              		.loc 2 57 17 is_stmt 0
 746 008c 13090000 		li	s2,0
 747 0090 6F008003 		j	.L41
 748              	.LVL52:
 749              	.L38:
 750              	.LBB109:
 751              	.LBB110:
 752              	.LBB111:
  58:test/Threads_CPP_API_test.cpp ****         printString("A: i="); printInt(i); printString("\n");
  59:test/Threads_CPP_API_test.cpp ****         for (uint64 j = 0; j < 10000; j++) {
  60:test/Threads_CPP_API_test.cpp ****             for (uint64 k = 0; k < 30000; k++) { /* busy wait */ }
  61:test/Threads_CPP_API_test.cpp ****             thread_dispatch();
 753              		.loc 2 61 13 is_stmt 1 discriminator 2
 754              		.loc 2 61 28 is_stmt 0 discriminator 2
 755 0094 97000000 		call	_Z15thread_dispatchv
 755      E7800000 
 756              	.LVL53:
 757              	.LBE111:
  59:test/Threads_CPP_API_test.cpp ****             for (uint64 k = 0; k < 30000; k++) { /* busy wait */ }
 758              		.loc 2 59 9 is_stmt 1 discriminator 2
 759 009c 93841400 		addi	s1,s1,1
 760              	.LVL54:
 761              	.L40:
  59:test/Threads_CPP_API_test.cpp ****             for (uint64 k = 0; k < 30000; k++) { /* busy wait */ }
 762              		.loc 2 59 30 discriminator 1
 763 00a0 B7270000 		li	a5,8192
 764 00a4 9387F770 		addi	a5,a5,1807
GAS LISTING /tmp/ccbuzvWS.s 			page 17


 765 00a8 63EE9700 		bgtu	s1,a5,.L37
 766              	.LBB113:
 767              	.LBB112:
  60:test/Threads_CPP_API_test.cpp ****             thread_dispatch();
 768              		.loc 2 60 25 is_stmt 0
 769 00ac 13070000 		li	a4,0
 770              	.L39:
 771              	.LVL55:
  60:test/Threads_CPP_API_test.cpp ****             thread_dispatch();
 772              		.loc 2 60 34 is_stmt 1 discriminator 3
 773 00b0 B7770000 		li	a5,28672
 774 00b4 9387F752 		addi	a5,a5,1327
 775 00b8 E3EEE7FC 		bgtu	a4,a5,.L38
  60:test/Threads_CPP_API_test.cpp ****             thread_dispatch();
 776              		.loc 2 60 13 discriminator 2
 777 00bc 13071700 		addi	a4,a4,1
 778              	.LVL56:
 779 00c0 6FF01FFF 		j	.L39
 780              	.LVL57:
 781              	.L37:
 782              	.LBE112:
 783              	.LBE113:
 784              	.LBE110:
 785              	.LBE109:
  57:test/Threads_CPP_API_test.cpp ****         printString("A: i="); printInt(i); printString("\n");
 786              		.loc 2 57 5 discriminator 2
 787 00c4 13091900 		addi	s2,s2,1
 788              	.LVL58:
 789              	.L41:
  57:test/Threads_CPP_API_test.cpp ****         printString("A: i="); printInt(i); printString("\n");
 790              		.loc 2 57 26 discriminator 1
 791 00c8 93079000 		li	a5,9
 792 00cc 63E02705 		bgtu	s2,a5,.L36
 793              	.LBB115:
  58:test/Threads_CPP_API_test.cpp ****         for (uint64 j = 0; j < 10000; j++) {
 794              		.loc 2 58 9
  58:test/Threads_CPP_API_test.cpp ****         for (uint64 j = 0; j < 10000; j++) {
 795              		.loc 2 58 20 is_stmt 0
 796 00d0 17050000 		lla	a0,.LC0
 796      13050500 
 797 00d8 97000000 		call	_Z11printStringPKc
 797      E7800000 
 798              	.LVL59:
  58:test/Threads_CPP_API_test.cpp ****         for (uint64 j = 0; j < 10000; j++) {
 799              		.loc 2 58 31 is_stmt 1
  58:test/Threads_CPP_API_test.cpp ****         for (uint64 j = 0; j < 10000; j++) {
 800              		.loc 2 58 39 is_stmt 0
 801 00e0 13060000 		li	a2,0
 802 00e4 9305A000 		li	a1,10
 803 00e8 1B050900 		sext.w	a0,s2
 804 00ec 97000000 		call	_Z8printIntiii
 804      E7800000 
 805              	.LVL60:
  58:test/Threads_CPP_API_test.cpp ****         for (uint64 j = 0; j < 10000; j++) {
 806              		.loc 2 58 44 is_stmt 1
  58:test/Threads_CPP_API_test.cpp ****         for (uint64 j = 0; j < 10000; j++) {
 807              		.loc 2 58 55 is_stmt 0
GAS LISTING /tmp/ccbuzvWS.s 			page 18


 808 00f4 17050000 		lla	a0,.LC1
 808      13050500 
 809 00fc 97000000 		call	_Z11printStringPKc
 809      E7800000 
 810              	.LVL61:
  59:test/Threads_CPP_API_test.cpp ****             for (uint64 k = 0; k < 30000; k++) { /* busy wait */ }
 811              		.loc 2 59 9 is_stmt 1
 812              	.LBB114:
  59:test/Threads_CPP_API_test.cpp ****             for (uint64 k = 0; k < 30000; k++) { /* busy wait */ }
 813              		.loc 2 59 21 is_stmt 0
 814 0104 93040000 		li	s1,0
 815 0108 6FF09FF9 		j	.L40
 816              	.LVL62:
 817              	.L36:
 818              	.LBE114:
 819              	.LBE115:
 820              	.LBE108:
  62:test/Threads_CPP_API_test.cpp ****         }
  63:test/Threads_CPP_API_test.cpp ****     }
  64:test/Threads_CPP_API_test.cpp ****     printString("A finished!\n");
 821              		.loc 2 64 5 is_stmt 1
 822              		.loc 2 64 16 is_stmt 0
 823 010c 17050000 		lla	a0,.LC2
 823      13050500 
 824 0114 97000000 		call	_Z11printStringPKc
 824      E7800000 
 825              	.LVL63:
  65:test/Threads_CPP_API_test.cpp ****     finishedA = true;
 826              		.loc 2 65 5 is_stmt 1
 827              		.loc 2 65 15 is_stmt 0
 828 011c 93071000 		li	a5,1
 829 0120 17070000 		sb	a5,_ZL9finishedA,a4
 829      2300F700 
  66:test/Threads_CPP_API_test.cpp **** }
 830              		.loc 2 66 1
 831 0128 83308101 		ld	ra,24(sp)
 832              		.cfi_restore 1
 833 012c 03340101 		ld	s0,16(sp)
 834              		.cfi_restore 8
 835              		.cfi_def_cfa 2, 32
 836 0130 83348100 		ld	s1,8(sp)
 837              		.cfi_restore 9
 838 0134 03390100 		ld	s2,0(sp)
 839              		.cfi_restore 18
 840              	.LVL64:
 841 0138 13010102 		addi	sp,sp,32
 842              		.cfi_def_cfa_offset 0
 843 013c 67800000 		jr	ra
 844              		.cfi_endproc
 845              	.LFE49:
 847              		.section	.text._ZN7WorkerA3runEv,"axG",@progbits,_ZN7WorkerA3runEv,comdat
 848              		.align	2
 849              		.weak	_ZN7WorkerA3runEv
 851              	_ZN7WorkerA3runEv:
 852              	.LFB36:
  21:test/Threads_CPP_API_test.cpp ****         workerBodyA(nullptr);
 853              		.loc 2 21 10 is_stmt 1
GAS LISTING /tmp/ccbuzvWS.s 			page 19


 854              		.cfi_startproc
 855              	.LVL65:
 856 0000 130101FF 		addi	sp,sp,-16
 857              		.cfi_def_cfa_offset 16
 858 0004 23341100 		sd	ra,8(sp)
 859 0008 23308100 		sd	s0,0(sp)
 860              		.cfi_offset 1, -8
 861              		.cfi_offset 8, -16
 862 000c 13040101 		addi	s0,sp,16
 863              		.cfi_def_cfa 8, 0
  22:test/Threads_CPP_API_test.cpp ****     }
 864              		.loc 2 22 9
  22:test/Threads_CPP_API_test.cpp ****     }
 865              		.loc 2 22 20 is_stmt 0
 866 0010 93050000 		li	a1,0
 867 0014 97000000 		call	_ZN7WorkerA11workerBodyAEPv
 867      E7800000 
 868              	.LVL66:
  23:test/Threads_CPP_API_test.cpp **** };
 869              		.loc 2 23 5
 870 001c 83308100 		ld	ra,8(sp)
 871              		.cfi_restore 1
 872 0020 03340100 		ld	s0,0(sp)
 873              		.cfi_restore 8
 874              		.cfi_def_cfa 2, 16
 875 0024 13010101 		addi	sp,sp,16
 876              		.cfi_def_cfa_offset 0
 877 0028 67800000 		jr	ra
 878              		.cfi_endproc
 879              	.LFE36:
 881              		.section	.rodata.str1.8
 882 001d 000000   		.align	3
 883              	.LC3:
 884 0020 423A2069 		.string	"B: i="
 884      3D00
 885 0026 0000     		.align	3
 886              	.LC4:
 887 0028 42206669 		.string	"B finished!\n"
 887      6E697368 
 887      6564210A 
 887      00
 888              		.text
 889              		.align	2
 890              		.globl	_ZN7WorkerB11workerBodyBEPv
 892              	_ZN7WorkerB11workerBodyBEPv:
 893              	.LFB50:
  67:test/Threads_CPP_API_test.cpp **** 
  68:test/Threads_CPP_API_test.cpp **** void WorkerB::workerBodyB(void *arg) {
 894              		.loc 2 68 38 is_stmt 1
 895              		.cfi_startproc
 896              	.LVL67:
 897 0140 130101FE 		addi	sp,sp,-32
 898              		.cfi_def_cfa_offset 32
 899 0144 233C1100 		sd	ra,24(sp)
 900 0148 23388100 		sd	s0,16(sp)
 901 014c 23349100 		sd	s1,8(sp)
 902 0150 23302101 		sd	s2,0(sp)
GAS LISTING /tmp/ccbuzvWS.s 			page 20


 903              		.cfi_offset 1, -8
 904              		.cfi_offset 8, -16
 905              		.cfi_offset 9, -24
 906              		.cfi_offset 18, -32
 907 0154 13040102 		addi	s0,sp,32
 908              		.cfi_def_cfa 8, 0
  69:test/Threads_CPP_API_test.cpp ****     for (uint64 i = 0; i < 16; i++) {
 909              		.loc 2 69 5
 910              	.LVL68:
 911              	.LBB116:
 912              		.loc 2 69 17 is_stmt 0
 913 0158 13090000 		li	s2,0
 914 015c 6F008003 		j	.L51
 915              	.LVL69:
 916              	.L48:
 917              	.LBB117:
 918              	.LBB118:
 919              	.LBB119:
  70:test/Threads_CPP_API_test.cpp ****         printString("B: i="); printInt(i); printString("\n");
  71:test/Threads_CPP_API_test.cpp ****         for (uint64 j = 0; j < 10000; j++) {
  72:test/Threads_CPP_API_test.cpp ****             for (uint64 k = 0; k < 30000; k++) { /* busy wait */ }
  73:test/Threads_CPP_API_test.cpp ****             thread_dispatch();
 920              		.loc 2 73 13 is_stmt 1 discriminator 2
 921              		.loc 2 73 28 is_stmt 0 discriminator 2
 922 0160 97000000 		call	_Z15thread_dispatchv
 922      E7800000 
 923              	.LVL70:
 924              	.LBE119:
  71:test/Threads_CPP_API_test.cpp ****             for (uint64 k = 0; k < 30000; k++) { /* busy wait */ }
 925              		.loc 2 71 9 is_stmt 1 discriminator 2
 926 0168 93841400 		addi	s1,s1,1
 927              	.LVL71:
 928              	.L50:
  71:test/Threads_CPP_API_test.cpp ****             for (uint64 k = 0; k < 30000; k++) { /* busy wait */ }
 929              		.loc 2 71 30 discriminator 1
 930 016c B7270000 		li	a5,8192
 931 0170 9387F770 		addi	a5,a5,1807
 932 0174 63EE9700 		bgtu	s1,a5,.L47
 933              	.LBB121:
 934              	.LBB120:
  72:test/Threads_CPP_API_test.cpp ****             thread_dispatch();
 935              		.loc 2 72 25 is_stmt 0
 936 0178 13070000 		li	a4,0
 937              	.L49:
 938              	.LVL72:
  72:test/Threads_CPP_API_test.cpp ****             thread_dispatch();
 939              		.loc 2 72 34 is_stmt 1 discriminator 3
 940 017c B7770000 		li	a5,28672
 941 0180 9387F752 		addi	a5,a5,1327
 942 0184 E3EEE7FC 		bgtu	a4,a5,.L48
  72:test/Threads_CPP_API_test.cpp ****             thread_dispatch();
 943              		.loc 2 72 13 discriminator 2
 944 0188 13071700 		addi	a4,a4,1
 945              	.LVL73:
 946 018c 6FF01FFF 		j	.L49
 947              	.LVL74:
 948              	.L47:
GAS LISTING /tmp/ccbuzvWS.s 			page 21


 949              	.LBE120:
 950              	.LBE121:
 951              	.LBE118:
 952              	.LBE117:
  69:test/Threads_CPP_API_test.cpp ****         printString("B: i="); printInt(i); printString("\n");
 953              		.loc 2 69 5 discriminator 2
 954 0190 13091900 		addi	s2,s2,1
 955              	.LVL75:
 956              	.L51:
  69:test/Threads_CPP_API_test.cpp ****         printString("B: i="); printInt(i); printString("\n");
 957              		.loc 2 69 26 discriminator 1
 958 0194 9307F000 		li	a5,15
 959 0198 63E02705 		bgtu	s2,a5,.L46
 960              	.LBB123:
  70:test/Threads_CPP_API_test.cpp ****         for (uint64 j = 0; j < 10000; j++) {
 961              		.loc 2 70 9
  70:test/Threads_CPP_API_test.cpp ****         for (uint64 j = 0; j < 10000; j++) {
 962              		.loc 2 70 20 is_stmt 0
 963 019c 17050000 		lla	a0,.LC3
 963      13050500 
 964 01a4 97000000 		call	_Z11printStringPKc
 964      E7800000 
 965              	.LVL76:
  70:test/Threads_CPP_API_test.cpp ****         for (uint64 j = 0; j < 10000; j++) {
 966              		.loc 2 70 31 is_stmt 1
  70:test/Threads_CPP_API_test.cpp ****         for (uint64 j = 0; j < 10000; j++) {
 967              		.loc 2 70 39 is_stmt 0
 968 01ac 13060000 		li	a2,0
 969 01b0 9305A000 		li	a1,10
 970 01b4 1B050900 		sext.w	a0,s2
 971 01b8 97000000 		call	_Z8printIntiii
 971      E7800000 
 972              	.LVL77:
  70:test/Threads_CPP_API_test.cpp ****         for (uint64 j = 0; j < 10000; j++) {
 973              		.loc 2 70 44 is_stmt 1
  70:test/Threads_CPP_API_test.cpp ****         for (uint64 j = 0; j < 10000; j++) {
 974              		.loc 2 70 55 is_stmt 0
 975 01c0 17050000 		lla	a0,.LC1
 975      13050500 
 976 01c8 97000000 		call	_Z11printStringPKc
 976      E7800000 
 977              	.LVL78:
  71:test/Threads_CPP_API_test.cpp ****             for (uint64 k = 0; k < 30000; k++) { /* busy wait */ }
 978              		.loc 2 71 9 is_stmt 1
 979              	.LBB122:
  71:test/Threads_CPP_API_test.cpp ****             for (uint64 k = 0; k < 30000; k++) { /* busy wait */ }
 980              		.loc 2 71 21 is_stmt 0
 981 01d0 93040000 		li	s1,0
 982 01d4 6FF09FF9 		j	.L50
 983              	.LVL79:
 984              	.L46:
 985              	.LBE122:
 986              	.LBE123:
 987              	.LBE116:
  74:test/Threads_CPP_API_test.cpp ****         }
  75:test/Threads_CPP_API_test.cpp ****     }
  76:test/Threads_CPP_API_test.cpp ****     printString("B finished!\n");
GAS LISTING /tmp/ccbuzvWS.s 			page 22


 988              		.loc 2 76 5 is_stmt 1
 989              		.loc 2 76 16 is_stmt 0
 990 01d8 17050000 		lla	a0,.LC4
 990      13050500 
 991 01e0 97000000 		call	_Z11printStringPKc
 991      E7800000 
 992              	.LVL80:
  77:test/Threads_CPP_API_test.cpp ****     finishedB = true;
 993              		.loc 2 77 5 is_stmt 1
 994              		.loc 2 77 15 is_stmt 0
 995 01e8 93071000 		li	a5,1
 996 01ec 17070000 		sb	a5,_ZL9finishedB,a4
 996      2300F700 
  78:test/Threads_CPP_API_test.cpp ****     thread_dispatch();
 997              		.loc 2 78 5 is_stmt 1
 998              		.loc 2 78 20 is_stmt 0
 999 01f4 97000000 		call	_Z15thread_dispatchv
 999      E7800000 
 1000              	.LVL81:
  79:test/Threads_CPP_API_test.cpp **** }
 1001              		.loc 2 79 1
 1002 01fc 83308101 		ld	ra,24(sp)
 1003              		.cfi_restore 1
 1004 0200 03340101 		ld	s0,16(sp)
 1005              		.cfi_restore 8
 1006              		.cfi_def_cfa 2, 32
 1007 0204 83348100 		ld	s1,8(sp)
 1008              		.cfi_restore 9
 1009 0208 03390100 		ld	s2,0(sp)
 1010              		.cfi_restore 18
 1011              	.LVL82:
 1012 020c 13010102 		addi	sp,sp,32
 1013              		.cfi_def_cfa_offset 0
 1014 0210 67800000 		jr	ra
 1015              		.cfi_endproc
 1016              	.LFE50:
 1018              		.section	.text._ZN7WorkerB3runEv,"axG",@progbits,_ZN7WorkerB3runEv,comdat
 1019              		.align	2
 1020              		.weak	_ZN7WorkerB3runEv
 1022              	_ZN7WorkerB3runEv:
 1023              	.LFB40:
  31:test/Threads_CPP_API_test.cpp ****         workerBodyB(nullptr);
 1024              		.loc 2 31 10 is_stmt 1
 1025              		.cfi_startproc
 1026              	.LVL83:
 1027 0000 130101FF 		addi	sp,sp,-16
 1028              		.cfi_def_cfa_offset 16
 1029 0004 23341100 		sd	ra,8(sp)
 1030 0008 23308100 		sd	s0,0(sp)
 1031              		.cfi_offset 1, -8
 1032              		.cfi_offset 8, -16
 1033 000c 13040101 		addi	s0,sp,16
 1034              		.cfi_def_cfa 8, 0
  32:test/Threads_CPP_API_test.cpp ****     }
 1035              		.loc 2 32 9
  32:test/Threads_CPP_API_test.cpp ****     }
 1036              		.loc 2 32 20 is_stmt 0
GAS LISTING /tmp/ccbuzvWS.s 			page 23


 1037 0010 93050000 		li	a1,0
 1038 0014 97000000 		call	_ZN7WorkerB11workerBodyBEPv
 1038      E7800000 
 1039              	.LVL84:
  33:test/Threads_CPP_API_test.cpp **** };
 1040              		.loc 2 33 5
 1041 001c 83308100 		ld	ra,8(sp)
 1042              		.cfi_restore 1
 1043 0020 03340100 		ld	s0,0(sp)
 1044              		.cfi_restore 8
 1045              		.cfi_def_cfa 2, 16
 1046 0024 13010101 		addi	sp,sp,16
 1047              		.cfi_def_cfa_offset 0
 1048 0028 67800000 		jr	ra
 1049              		.cfi_endproc
 1050              	.LFE40:
 1052              		.section	.rodata.str1.8
 1053 0035 000000   		.align	3
 1054              	.LC5:
 1055 0038 433A2069 		.string	"C: i="
 1055      3D00
 1056 003e 0000     		.align	3
 1057              	.LC6:
 1058 0040 433A2064 		.string	"C: dispatch\n"
 1058      69737061 
 1058      7463680A 
 1058      00
 1059 004d 000000   		.align	3
 1060              	.LC7:
 1061 0050 433A2074 		.string	"C: t1="
 1061      313D00
 1062 0057 00       		.align	3
 1063              	.LC8:
 1064 0058 433A2066 		.string	"C: fibonaci="
 1064      69626F6E 
 1064      6163693D 
 1064      00
 1065 0065 000000   		.align	3
 1066              	.LC9:
 1067 0068 43206669 		.string	"C finished!\n"
 1067      6E697368 
 1067      6564210A 
 1067      00
 1068              		.text
 1069              		.align	2
 1070              		.globl	_ZN7WorkerC11workerBodyCEPv
 1072              	_ZN7WorkerC11workerBodyCEPv:
 1073              	.LFB51:
  80:test/Threads_CPP_API_test.cpp **** 
  81:test/Threads_CPP_API_test.cpp **** void WorkerC::workerBodyC(void *arg) {
 1074              		.loc 2 81 38 is_stmt 1
 1075              		.cfi_startproc
 1076              	.LVL85:
 1077 0214 130101FE 		addi	sp,sp,-32
 1078              		.cfi_def_cfa_offset 32
 1079 0218 233C1100 		sd	ra,24(sp)
 1080 021c 23388100 		sd	s0,16(sp)
GAS LISTING /tmp/ccbuzvWS.s 			page 24


 1081 0220 23349100 		sd	s1,8(sp)
 1082 0224 23302101 		sd	s2,0(sp)
 1083              		.cfi_offset 1, -8
 1084              		.cfi_offset 8, -16
 1085              		.cfi_offset 9, -24
 1086              		.cfi_offset 18, -32
 1087 0228 13040102 		addi	s0,sp,32
 1088              		.cfi_def_cfa 8, 0
  82:test/Threads_CPP_API_test.cpp ****     uint8 i = 0;
 1089              		.loc 2 82 5
 1090              	.LVL86:
 1091              		.loc 2 82 11 is_stmt 0
 1092 022c 93040000 		li	s1,0
 1093 0230 6F000004 		j	.L57
 1094              	.LVL87:
 1095              	.L61:
  83:test/Threads_CPP_API_test.cpp ****     for (; i < 3; i++) {
  84:test/Threads_CPP_API_test.cpp ****         printString("C: i="); printInt(i); printString("\n");
 1096              		.loc 2 84 9 is_stmt 1 discriminator 1
 1097              		.loc 2 84 20 is_stmt 0 discriminator 1
 1098 0234 17050000 		lla	a0,.LC5
 1098      13050500 
 1099 023c 97000000 		call	_Z11printStringPKc
 1099      E7800000 
 1100              	.LVL88:
 1101              		.loc 2 84 31 is_stmt 1 discriminator 1
 1102              		.loc 2 84 39 is_stmt 0 discriminator 1
 1103 0244 13060000 		li	a2,0
 1104 0248 9305A000 		li	a1,10
 1105 024c 13850400 		mv	a0,s1
 1106 0250 97000000 		call	_Z8printIntiii
 1106      E7800000 
 1107              	.LVL89:
 1108              		.loc 2 84 44 is_stmt 1 discriminator 1
 1109              		.loc 2 84 55 is_stmt 0 discriminator 1
 1110 0258 17050000 		lla	a0,.LC1
 1110      13050500 
 1111 0260 97000000 		call	_Z11printStringPKc
 1111      E7800000 
 1112              	.LVL90:
  83:test/Threads_CPP_API_test.cpp ****     for (; i < 3; i++) {
 1113              		.loc 2 83 5 is_stmt 1 discriminator 1
 1114 0268 9B841400 		addiw	s1,s1,1
 1115              	.LVL91:
 1116 026c 93F4F40F 		andi	s1,s1,0xff
 1117              	.LVL92:
 1118              	.L57:
  83:test/Threads_CPP_API_test.cpp ****     for (; i < 3; i++) {
 1119              		.loc 2 83 5 discriminator 2
  83:test/Threads_CPP_API_test.cpp ****     for (; i < 3; i++) {
 1120              		.loc 2 83 14 discriminator 2
 1121 0270 93072000 		li	a5,2
 1122 0274 E3F097FC 		bleu	s1,a5,.L61
  85:test/Threads_CPP_API_test.cpp ****     }
  86:test/Threads_CPP_API_test.cpp **** 
  87:test/Threads_CPP_API_test.cpp ****     printString("C: dispatch\n");
 1123              		.loc 2 87 5
GAS LISTING /tmp/ccbuzvWS.s 			page 25


 1124              		.loc 2 87 16 is_stmt 0
 1125 0278 17050000 		lla	a0,.LC6
 1125      13050500 
 1126 0280 97000000 		call	_Z11printStringPKc
 1126      E7800000 
 1127              	.LVL93:
  88:test/Threads_CPP_API_test.cpp ****     __asm__ ("li t1, 7");
 1128              		.loc 2 88 5 is_stmt 1
 1129              		.loc 2 88 25 is_stmt 0
 1130              	 #APP
 1131              	# 88 "test/Threads_CPP_API_test.cpp" 1
  89              	    thread_dispatch();
 1132              		li t1, 7
 1133              	# 0 "" 2
 1134              		.loc 2 89 5 is_stmt 1
 1135              		.loc 2 89 20 is_stmt 0
 1136              	 #NO_APP
 1137 028c 97000000 		call	_Z15thread_dispatchv
 1137      E7800000 
 1138              	.LVL94:
  90:test/Threads_CPP_API_test.cpp **** 
  91:test/Threads_CPP_API_test.cpp ****     uint64 t1 = 0;
 1139              		.loc 2 91 5 is_stmt 1
  92:test/Threads_CPP_API_test.cpp ****     __asm__ ("mv %[t1], t1" : [t1] "=r"(t1));
 1140              		.loc 2 92 5
 1141              		.loc 2 92 45 is_stmt 0
 1142              	 #APP
 1143              	# 92 "test/Threads_CPP_API_test.cpp" 1
  93              	
 1144              		mv s2, t1
 1145              	# 0 "" 2
 1146              	.LVL95:
  94:test/Threads_CPP_API_test.cpp ****     printString("C: t1="); printInt(t1); printString("\n");
 1147              		.loc 2 94 5 is_stmt 1
 1148              		.loc 2 94 16 is_stmt 0
 1149              	 #NO_APP
 1150 0298 17050000 		lla	a0,.LC7
 1150      13050500 
 1151 02a0 97000000 		call	_Z11printStringPKc
 1151      E7800000 
 1152              	.LVL96:
 1153              		.loc 2 94 28 is_stmt 1
 1154              		.loc 2 94 36 is_stmt 0
 1155 02a8 13060000 		li	a2,0
 1156 02ac 9305A000 		li	a1,10
 1157 02b0 1B050900 		sext.w	a0,s2
 1158 02b4 97000000 		call	_Z8printIntiii
 1158      E7800000 
 1159              	.LVL97:
 1160              		.loc 2 94 42 is_stmt 1
 1161              		.loc 2 94 53 is_stmt 0
 1162 02bc 17050000 		lla	a0,.LC1
 1162      13050500 
 1163 02c4 97000000 		call	_Z11printStringPKc
 1163      E7800000 
 1164              	.LVL98:
  95:test/Threads_CPP_API_test.cpp **** 
GAS LISTING /tmp/ccbuzvWS.s 			page 26


  96:test/Threads_CPP_API_test.cpp ****     uint64 result = fibonacci(12);
 1165              		.loc 2 96 5 is_stmt 1
 1166              		.loc 2 96 30 is_stmt 0
 1167 02cc 1305C000 		li	a0,12
 1168 02d0 97000000 		call	_ZL9fibonaccim
 1168      E7800000 
 1169              	.LVL99:
 1170 02d8 13090500 		mv	s2,a0
 1171              	.LVL100:
  97:test/Threads_CPP_API_test.cpp ****     printString("C: fibonaci="); printInt(result); printString("\n");
 1172              		.loc 2 97 5 is_stmt 1
 1173              		.loc 2 97 16 is_stmt 0
 1174 02dc 17050000 		lla	a0,.LC8
 1174      13050500 
 1175              	.LVL101:
 1176 02e4 97000000 		call	_Z11printStringPKc
 1176      E7800000 
 1177              	.LVL102:
 1178              		.loc 2 97 34 is_stmt 1
 1179              		.loc 2 97 42 is_stmt 0
 1180 02ec 13060000 		li	a2,0
 1181 02f0 9305A000 		li	a1,10
 1182 02f4 1B050900 		sext.w	a0,s2
 1183 02f8 97000000 		call	_Z8printIntiii
 1183      E7800000 
 1184              	.LVL103:
 1185              		.loc 2 97 52 is_stmt 1
 1186              		.loc 2 97 63 is_stmt 0
 1187 0300 17050000 		lla	a0,.LC1
 1187      13050500 
 1188 0308 97000000 		call	_Z11printStringPKc
 1188      E7800000 
 1189              	.LVL104:
 1190 0310 6F000004 		j	.L59
 1191              	.L62:
  98:test/Threads_CPP_API_test.cpp **** 
  99:test/Threads_CPP_API_test.cpp ****     for (; i < 6; i++) {
 100:test/Threads_CPP_API_test.cpp ****         printString("C: i="); printInt(i); printString("\n");
 1192              		.loc 2 100 9 is_stmt 1 discriminator 1
 1193              		.loc 2 100 20 is_stmt 0 discriminator 1
 1194 0314 17050000 		lla	a0,.LC5
 1194      13050500 
 1195 031c 97000000 		call	_Z11printStringPKc
 1195      E7800000 
 1196              	.LVL105:
 1197              		.loc 2 100 31 is_stmt 1 discriminator 1
 1198              		.loc 2 100 39 is_stmt 0 discriminator 1
 1199 0324 13060000 		li	a2,0
 1200 0328 9305A000 		li	a1,10
 1201 032c 13850400 		mv	a0,s1
 1202 0330 97000000 		call	_Z8printIntiii
 1202      E7800000 
 1203              	.LVL106:
 1204              		.loc 2 100 44 is_stmt 1 discriminator 1
 1205              		.loc 2 100 55 is_stmt 0 discriminator 1
 1206 0338 17050000 		lla	a0,.LC1
 1206      13050500 
GAS LISTING /tmp/ccbuzvWS.s 			page 27


 1207 0340 97000000 		call	_Z11printStringPKc
 1207      E7800000 
 1208              	.LVL107:
  99:test/Threads_CPP_API_test.cpp ****         printString("C: i="); printInt(i); printString("\n");
 1209              		.loc 2 99 5 is_stmt 1 discriminator 1
 1210 0348 9B841400 		addiw	s1,s1,1
 1211              	.LVL108:
 1212 034c 93F4F40F 		andi	s1,s1,0xff
 1213              	.LVL109:
 1214              	.L59:
  99:test/Threads_CPP_API_test.cpp ****         printString("C: i="); printInt(i); printString("\n");
 1215              		.loc 2 99 5 discriminator 2
  99:test/Threads_CPP_API_test.cpp ****         printString("C: i="); printInt(i); printString("\n");
 1216              		.loc 2 99 14 discriminator 2
 1217 0350 93075000 		li	a5,5
 1218 0354 E3F097FC 		bleu	s1,a5,.L62
 101:test/Threads_CPP_API_test.cpp ****     }
 102:test/Threads_CPP_API_test.cpp **** 
 103:test/Threads_CPP_API_test.cpp ****     printString("C finished!\n");
 1219              		.loc 2 103 5
 1220              		.loc 2 103 16 is_stmt 0
 1221 0358 17050000 		lla	a0,.LC9
 1221      13050500 
 1222 0360 97000000 		call	_Z11printStringPKc
 1222      E7800000 
 1223              	.LVL110:
 104:test/Threads_CPP_API_test.cpp ****     finishedC = true;
 1224              		.loc 2 104 5 is_stmt 1
 1225              		.loc 2 104 15 is_stmt 0
 1226 0368 93071000 		li	a5,1
 1227 036c 17070000 		sb	a5,_ZL9finishedC,a4
 1227      2300F700 
 105:test/Threads_CPP_API_test.cpp ****     thread_dispatch();
 1228              		.loc 2 105 5 is_stmt 1
 1229              		.loc 2 105 20 is_stmt 0
 1230 0374 97000000 		call	_Z15thread_dispatchv
 1230      E7800000 
 1231              	.LVL111:
 106:test/Threads_CPP_API_test.cpp **** }
 1232              		.loc 2 106 1
 1233 037c 83308101 		ld	ra,24(sp)
 1234              		.cfi_restore 1
 1235 0380 03340101 		ld	s0,16(sp)
 1236              		.cfi_restore 8
 1237              		.cfi_def_cfa 2, 32
 1238 0384 83348100 		ld	s1,8(sp)
 1239              		.cfi_restore 9
 1240              	.LVL112:
 1241 0388 03390100 		ld	s2,0(sp)
 1242              		.cfi_restore 18
 1243              	.LVL113:
 1244 038c 13010102 		addi	sp,sp,32
 1245              		.cfi_def_cfa_offset 0
 1246 0390 67800000 		jr	ra
 1247              		.cfi_endproc
 1248              	.LFE51:
 1250              		.section	.text._ZN7WorkerC3runEv,"axG",@progbits,_ZN7WorkerC3runEv,comdat
GAS LISTING /tmp/ccbuzvWS.s 			page 28


 1251              		.align	2
 1252              		.weak	_ZN7WorkerC3runEv
 1254              	_ZN7WorkerC3runEv:
 1255              	.LFB44:
  41:test/Threads_CPP_API_test.cpp ****         workerBodyC(nullptr);
 1256              		.loc 2 41 10 is_stmt 1
 1257              		.cfi_startproc
 1258              	.LVL114:
 1259 0000 130101FF 		addi	sp,sp,-16
 1260              		.cfi_def_cfa_offset 16
 1261 0004 23341100 		sd	ra,8(sp)
 1262 0008 23308100 		sd	s0,0(sp)
 1263              		.cfi_offset 1, -8
 1264              		.cfi_offset 8, -16
 1265 000c 13040101 		addi	s0,sp,16
 1266              		.cfi_def_cfa 8, 0
  42:test/Threads_CPP_API_test.cpp ****     }
 1267              		.loc 2 42 9
  42:test/Threads_CPP_API_test.cpp ****     }
 1268              		.loc 2 42 20 is_stmt 0
 1269 0010 93050000 		li	a1,0
 1270 0014 97000000 		call	_ZN7WorkerC11workerBodyCEPv
 1270      E7800000 
 1271              	.LVL115:
  43:test/Threads_CPP_API_test.cpp **** };
 1272              		.loc 2 43 5
 1273 001c 83308100 		ld	ra,8(sp)
 1274              		.cfi_restore 1
 1275 0020 03340100 		ld	s0,0(sp)
 1276              		.cfi_restore 8
 1277              		.cfi_def_cfa 2, 16
 1278 0024 13010101 		addi	sp,sp,16
 1279              		.cfi_def_cfa_offset 0
 1280 0028 67800000 		jr	ra
 1281              		.cfi_endproc
 1282              	.LFE44:
 1284              		.section	.rodata.str1.8
 1285 0075 000000   		.align	3
 1286              	.LC10:
 1287 0078 443A2069 		.string	"D: i="
 1287      3D00
 1288 007e 0000     		.align	3
 1289              	.LC11:
 1290 0080 443A2064 		.string	"D: dispatch\n"
 1290      69737061 
 1290      7463680A 
 1290      00
 1291 008d 000000   		.align	3
 1292              	.LC12:
 1293 0090 443A2066 		.string	"D: fibonaci="
 1293      69626F6E 
 1293      6163693D 
 1293      00
 1294 009d 000000   		.align	3
 1295              	.LC13:
 1296 00a0 44206669 		.string	"D finished!\n"
 1296      6E697368 
GAS LISTING /tmp/ccbuzvWS.s 			page 29


 1296      6564210A 
 1296      00
 1297              		.text
 1298              		.align	2
 1299              		.globl	_ZN7WorkerD11workerBodyDEPv
 1301              	_ZN7WorkerD11workerBodyDEPv:
 1302              	.LFB52:
 107:test/Threads_CPP_API_test.cpp **** 
 108:test/Threads_CPP_API_test.cpp **** void WorkerD::workerBodyD(void* arg) {
 1303              		.loc 2 108 38 is_stmt 1
 1304              		.cfi_startproc
 1305              	.LVL116:
 1306 0394 130101FE 		addi	sp,sp,-32
 1307              		.cfi_def_cfa_offset 32
 1308 0398 233C1100 		sd	ra,24(sp)
 1309 039c 23388100 		sd	s0,16(sp)
 1310 03a0 23349100 		sd	s1,8(sp)
 1311 03a4 23302101 		sd	s2,0(sp)
 1312              		.cfi_offset 1, -8
 1313              		.cfi_offset 8, -16
 1314              		.cfi_offset 9, -24
 1315              		.cfi_offset 18, -32
 1316 03a8 13040102 		addi	s0,sp,32
 1317              		.cfi_def_cfa 8, 0
 109:test/Threads_CPP_API_test.cpp ****     uint8 i = 10;
 1318              		.loc 2 109 5
 1319              	.LVL117:
 1320              		.loc 2 109 11 is_stmt 0
 1321 03ac 9304A000 		li	s1,10
 1322 03b0 6F000004 		j	.L67
 1323              	.LVL118:
 1324              	.L71:
 110:test/Threads_CPP_API_test.cpp ****     for (; i < 13; i++) {
 111:test/Threads_CPP_API_test.cpp ****         printString("D: i="); printInt(i); printString("\n");
 1325              		.loc 2 111 9 is_stmt 1 discriminator 1
 1326              		.loc 2 111 20 is_stmt 0 discriminator 1
 1327 03b4 17050000 		lla	a0,.LC10
 1327      13050500 
 1328 03bc 97000000 		call	_Z11printStringPKc
 1328      E7800000 
 1329              	.LVL119:
 1330              		.loc 2 111 31 is_stmt 1 discriminator 1
 1331              		.loc 2 111 39 is_stmt 0 discriminator 1
 1332 03c4 13060000 		li	a2,0
 1333 03c8 9305A000 		li	a1,10
 1334 03cc 13850400 		mv	a0,s1
 1335 03d0 97000000 		call	_Z8printIntiii
 1335      E7800000 
 1336              	.LVL120:
 1337              		.loc 2 111 44 is_stmt 1 discriminator 1
 1338              		.loc 2 111 55 is_stmt 0 discriminator 1
 1339 03d8 17050000 		lla	a0,.LC1
 1339      13050500 
 1340 03e0 97000000 		call	_Z11printStringPKc
 1340      E7800000 
 1341              	.LVL121:
 110:test/Threads_CPP_API_test.cpp ****     for (; i < 13; i++) {
GAS LISTING /tmp/ccbuzvWS.s 			page 30


 1342              		.loc 2 110 5 is_stmt 1 discriminator 1
 1343 03e8 9B841400 		addiw	s1,s1,1
 1344              	.LVL122:
 1345 03ec 93F4F40F 		andi	s1,s1,0xff
 1346              	.LVL123:
 1347              	.L67:
 110:test/Threads_CPP_API_test.cpp ****     for (; i < 13; i++) {
 1348              		.loc 2 110 5 discriminator 2
 110:test/Threads_CPP_API_test.cpp ****     for (; i < 13; i++) {
 1349              		.loc 2 110 14 discriminator 2
 1350 03f0 9307C000 		li	a5,12
 1351 03f4 E3F097FC 		bleu	s1,a5,.L71
 112:test/Threads_CPP_API_test.cpp ****     }
 113:test/Threads_CPP_API_test.cpp **** 
 114:test/Threads_CPP_API_test.cpp ****     printString("D: dispatch\n");
 1352              		.loc 2 114 5
 1353              		.loc 2 114 16 is_stmt 0
 1354 03f8 17050000 		lla	a0,.LC11
 1354      13050500 
 1355 0400 97000000 		call	_Z11printStringPKc
 1355      E7800000 
 1356              	.LVL124:
 115:test/Threads_CPP_API_test.cpp ****     __asm__ ("li t1, 5");
 1357              		.loc 2 115 5 is_stmt 1
 1358              		.loc 2 115 25 is_stmt 0
 1359              	 #APP
 1360              	# 115 "test/Threads_CPP_API_test.cpp" 1
 116              	    thread_dispatch();
 1361              		li t1, 5
 1362              	# 0 "" 2
 1363              		.loc 2 116 5 is_stmt 1
 1364              		.loc 2 116 20 is_stmt 0
 1365              	 #NO_APP
 1366 040c 97000000 		call	_Z15thread_dispatchv
 1366      E7800000 
 1367              	.LVL125:
 117:test/Threads_CPP_API_test.cpp **** 
 118:test/Threads_CPP_API_test.cpp ****     uint64 result = fibonacci(16);
 1368              		.loc 2 118 5 is_stmt 1
 1369              		.loc 2 118 30 is_stmt 0
 1370 0414 13050001 		li	a0,16
 1371 0418 97000000 		call	_ZL9fibonaccim
 1371      E7800000 
 1372              	.LVL126:
 1373 0420 13090500 		mv	s2,a0
 1374              	.LVL127:
 119:test/Threads_CPP_API_test.cpp ****     printString("D: fibonaci="); printInt(result); printString("\n");
 1375              		.loc 2 119 5 is_stmt 1
 1376              		.loc 2 119 16 is_stmt 0
 1377 0424 17050000 		lla	a0,.LC12
 1377      13050500 
 1378              	.LVL128:
 1379 042c 97000000 		call	_Z11printStringPKc
 1379      E7800000 
 1380              	.LVL129:
 1381              		.loc 2 119 34 is_stmt 1
 1382              		.loc 2 119 42 is_stmt 0
GAS LISTING /tmp/ccbuzvWS.s 			page 31


 1383 0434 13060000 		li	a2,0
 1384 0438 9305A000 		li	a1,10
 1385 043c 1B050900 		sext.w	a0,s2
 1386 0440 97000000 		call	_Z8printIntiii
 1386      E7800000 
 1387              	.LVL130:
 1388              		.loc 2 119 52 is_stmt 1
 1389              		.loc 2 119 63 is_stmt 0
 1390 0448 17050000 		lla	a0,.LC1
 1390      13050500 
 1391 0450 97000000 		call	_Z11printStringPKc
 1391      E7800000 
 1392              	.LVL131:
 1393 0458 6F000004 		j	.L69
 1394              	.L72:
 120:test/Threads_CPP_API_test.cpp **** 
 121:test/Threads_CPP_API_test.cpp ****     for (; i < 16; i++) {
 122:test/Threads_CPP_API_test.cpp ****         printString("D: i="); printInt(i); printString("\n");
 1395              		.loc 2 122 9 is_stmt 1 discriminator 1
 1396              		.loc 2 122 20 is_stmt 0 discriminator 1
 1397 045c 17050000 		lla	a0,.LC10
 1397      13050500 
 1398 0464 97000000 		call	_Z11printStringPKc
 1398      E7800000 
 1399              	.LVL132:
 1400              		.loc 2 122 31 is_stmt 1 discriminator 1
 1401              		.loc 2 122 39 is_stmt 0 discriminator 1
 1402 046c 13060000 		li	a2,0
 1403 0470 9305A000 		li	a1,10
 1404 0474 13850400 		mv	a0,s1
 1405 0478 97000000 		call	_Z8printIntiii
 1405      E7800000 
 1406              	.LVL133:
 1407              		.loc 2 122 44 is_stmt 1 discriminator 1
 1408              		.loc 2 122 55 is_stmt 0 discriminator 1
 1409 0480 17050000 		lla	a0,.LC1
 1409      13050500 
 1410 0488 97000000 		call	_Z11printStringPKc
 1410      E7800000 
 1411              	.LVL134:
 121:test/Threads_CPP_API_test.cpp ****         printString("D: i="); printInt(i); printString("\n");
 1412              		.loc 2 121 5 is_stmt 1 discriminator 1
 1413 0490 9B841400 		addiw	s1,s1,1
 1414              	.LVL135:
 1415 0494 93F4F40F 		andi	s1,s1,0xff
 1416              	.LVL136:
 1417              	.L69:
 121:test/Threads_CPP_API_test.cpp ****         printString("D: i="); printInt(i); printString("\n");
 1418              		.loc 2 121 5 discriminator 2
 121:test/Threads_CPP_API_test.cpp ****         printString("D: i="); printInt(i); printString("\n");
 1419              		.loc 2 121 14 discriminator 2
 1420 0498 9307F000 		li	a5,15
 1421 049c E3F097FC 		bleu	s1,a5,.L72
 123:test/Threads_CPP_API_test.cpp ****     }
 124:test/Threads_CPP_API_test.cpp **** 
 125:test/Threads_CPP_API_test.cpp ****     printString("D finished!\n");
 1422              		.loc 2 125 5
GAS LISTING /tmp/ccbuzvWS.s 			page 32


 1423              		.loc 2 125 16 is_stmt 0
 1424 04a0 17050000 		lla	a0,.LC13
 1424      13050500 
 1425 04a8 97000000 		call	_Z11printStringPKc
 1425      E7800000 
 1426              	.LVL137:
 126:test/Threads_CPP_API_test.cpp ****     finishedD = true;
 1427              		.loc 2 126 5 is_stmt 1
 1428              		.loc 2 126 15 is_stmt 0
 1429 04b0 93071000 		li	a5,1
 1430 04b4 17070000 		sb	a5,_ZL9finishedD,a4
 1430      2300F700 
 127:test/Threads_CPP_API_test.cpp ****     thread_dispatch();
 1431              		.loc 2 127 5 is_stmt 1
 1432              		.loc 2 127 20 is_stmt 0
 1433 04bc 97000000 		call	_Z15thread_dispatchv
 1433      E7800000 
 1434              	.LVL138:
 128:test/Threads_CPP_API_test.cpp **** }
 1435              		.loc 2 128 1
 1436 04c4 83308101 		ld	ra,24(sp)
 1437              		.cfi_restore 1
 1438 04c8 03340101 		ld	s0,16(sp)
 1439              		.cfi_restore 8
 1440              		.cfi_def_cfa 2, 32
 1441 04cc 83348100 		ld	s1,8(sp)
 1442              		.cfi_restore 9
 1443              	.LVL139:
 1444 04d0 03390100 		ld	s2,0(sp)
 1445              		.cfi_restore 18
 1446              	.LVL140:
 1447 04d4 13010102 		addi	sp,sp,32
 1448              		.cfi_def_cfa_offset 0
 1449 04d8 67800000 		jr	ra
 1450              		.cfi_endproc
 1451              	.LFE52:
 1453              		.section	.text._ZN7WorkerD3runEv,"axG",@progbits,_ZN7WorkerD3runEv,comdat
 1454              		.align	2
 1455              		.weak	_ZN7WorkerD3runEv
 1457              	_ZN7WorkerD3runEv:
 1458              	.LFB48:
  51:test/Threads_CPP_API_test.cpp ****         workerBodyD(nullptr);
 1459              		.loc 2 51 10 is_stmt 1
 1460              		.cfi_startproc
 1461              	.LVL141:
 1462 0000 130101FF 		addi	sp,sp,-16
 1463              		.cfi_def_cfa_offset 16
 1464 0004 23341100 		sd	ra,8(sp)
 1465 0008 23308100 		sd	s0,0(sp)
 1466              		.cfi_offset 1, -8
 1467              		.cfi_offset 8, -16
 1468 000c 13040101 		addi	s0,sp,16
 1469              		.cfi_def_cfa 8, 0
  52:test/Threads_CPP_API_test.cpp ****     }
 1470              		.loc 2 52 9
  52:test/Threads_CPP_API_test.cpp ****     }
 1471              		.loc 2 52 20 is_stmt 0
GAS LISTING /tmp/ccbuzvWS.s 			page 33


 1472 0010 93050000 		li	a1,0
 1473 0014 97000000 		call	_ZN7WorkerD11workerBodyDEPv
 1473      E7800000 
 1474              	.LVL142:
  53:test/Threads_CPP_API_test.cpp **** };
 1475              		.loc 2 53 5
 1476 001c 83308100 		ld	ra,8(sp)
 1477              		.cfi_restore 1
 1478 0020 03340100 		ld	s0,0(sp)
 1479              		.cfi_restore 8
 1480              		.cfi_def_cfa 2, 16
 1481 0024 13010101 		addi	sp,sp,16
 1482              		.cfi_def_cfa_offset 0
 1483 0028 67800000 		jr	ra
 1484              		.cfi_endproc
 1485              	.LFE48:
 1487              		.section	.rodata.str1.8
 1488 00ad 000000   		.align	3
 1489              	.LC14:
 1490 00b0 54687265 		.string	"ThreadA created\n"
 1490      61644120 
 1490      63726561 
 1490      7465640A 
 1490      00
 1491 00c1 00000000 		.align	3
 1491      000000
 1492              	.LC15:
 1493 00c8 54687265 		.string	"ThreadB created\n"
 1493      61644220 
 1493      63726561 
 1493      7465640A 
 1493      00
 1494 00d9 00000000 		.align	3
 1494      000000
 1495              	.LC16:
 1496 00e0 54687265 		.string	"ThreadC created\n"
 1496      61644320 
 1496      63726561 
 1496      7465640A 
 1496      00
 1497 00f1 00000000 		.align	3
 1497      000000
 1498              	.LC17:
 1499 00f8 54687265 		.string	"ThreadD created\n"
 1499      61644420 
 1499      63726561 
 1499      7465640A 
 1499      00
 1500 0109 00000000 		.align	3
 1500      000000
 1501              	.LC18:
 1502 0110 4F627269 		.string	"Obrisao\n"
 1502      73616F0A 
 1502      00
 1503              		.text
 1504              		.align	2
 1505              		.globl	_Z20Threads_CPP_API_testv
GAS LISTING /tmp/ccbuzvWS.s 			page 34


 1507              	_Z20Threads_CPP_API_testv:
 1508              	.LFB53:
 129:test/Threads_CPP_API_test.cpp **** 
 130:test/Threads_CPP_API_test.cpp **** 
 131:test/Threads_CPP_API_test.cpp **** void Threads_CPP_API_test() {
 1509              		.loc 2 131 29 is_stmt 1
 1510              		.cfi_startproc
 1511 04dc 130101FC 		addi	sp,sp,-64
 1512              		.cfi_def_cfa_offset 64
 1513 04e0 233C1102 		sd	ra,56(sp)
 1514 04e4 23388102 		sd	s0,48(sp)
 1515 04e8 23349102 		sd	s1,40(sp)
 1516 04ec 23302103 		sd	s2,32(sp)
 1517              		.cfi_offset 1, -8
 1518              		.cfi_offset 8, -16
 1519              		.cfi_offset 9, -24
 1520              		.cfi_offset 18, -32
 1521 04f0 13040104 		addi	s0,sp,64
 1522              		.cfi_def_cfa 8, 0
 132:test/Threads_CPP_API_test.cpp ****     Thread* threads[4];
 1523              		.loc 2 132 5
 133:test/Threads_CPP_API_test.cpp **** 
 134:test/Threads_CPP_API_test.cpp ****     threads[0] = new WorkerA();
 1524              		.loc 2 134 5
 1525              		.loc 2 134 30 is_stmt 0
 1526 04f4 13050002 		li	a0,32
 1527 04f8 97000000 		call	_Znwm
 1527      E7800000 
 1528              	.LVL143:
 1529              	.LBB150:
 1530              	.LBB151:
 1531              	.LBB152:
 1532              	.LBB153:
  34:test/../h/syscall_cpp.hpp ****     virtual void run(){}
 1533              		.loc 1 34 13
 1534 0500 23380500 		sd	zero,16(a0)
 1535              	.LVL144:
 1536              	.LBE153:
 1537              	.LBE152:
  19:test/Threads_CPP_API_test.cpp **** 
 1538              		.loc 2 19 22
 1539 0504 97070000 		lla	a5,_ZTV7WorkerA+16
 1539      93870700 
 1540 050c 2330F500 		sd	a5,0(a0)
 1541              	.LVL145:
 1542              	.LBE151:
 1543              	.LBE150:
 1544              		.loc 2 134 16
 1545 0510 2330A4FC 		sd	a0,-64(s0)
 135:test/Threads_CPP_API_test.cpp ****     printString("ThreadA created\n");
 1546              		.loc 2 135 5 is_stmt 1
 1547              		.loc 2 135 16 is_stmt 0
 1548 0514 17050000 		lla	a0,.LC14
 1548      13050500 
 1549 051c 97000000 		call	_Z11printStringPKc
 1549      E7800000 
 1550              	.LVL146:
GAS LISTING /tmp/ccbuzvWS.s 			page 35


 136:test/Threads_CPP_API_test.cpp **** 
 137:test/Threads_CPP_API_test.cpp ****     threads[1] = new WorkerB();
 1551              		.loc 2 137 5 is_stmt 1
 1552              		.loc 2 137 30 is_stmt 0
 1553 0524 13050002 		li	a0,32
 1554 0528 97000000 		call	_Znwm
 1554      E7800000 
 1555              	.LVL147:
 1556              	.LBB154:
 1557              	.LBB155:
 1558              	.LBB156:
 1559              	.LBB157:
  34:test/../h/syscall_cpp.hpp ****     virtual void run(){}
 1560              		.loc 1 34 13
 1561 0530 23380500 		sd	zero,16(a0)
 1562              	.LVL148:
 1563              	.LBE157:
 1564              	.LBE156:
  29:test/Threads_CPP_API_test.cpp **** 
 1565              		.loc 2 29 22
 1566 0534 97070000 		lla	a5,_ZTV7WorkerB+16
 1566      93870700 
 1567 053c 2330F500 		sd	a5,0(a0)
 1568              	.LVL149:
 1569              	.LBE155:
 1570              	.LBE154:
 1571              		.loc 2 137 16
 1572 0540 2334A4FC 		sd	a0,-56(s0)
 138:test/Threads_CPP_API_test.cpp ****     printString("ThreadB created\n");
 1573              		.loc 2 138 5 is_stmt 1
 1574              		.loc 2 138 16 is_stmt 0
 1575 0544 17050000 		lla	a0,.LC15
 1575      13050500 
 1576 054c 97000000 		call	_Z11printStringPKc
 1576      E7800000 
 1577              	.LVL150:
 139:test/Threads_CPP_API_test.cpp **** 
 140:test/Threads_CPP_API_test.cpp ****     threads[2] = new WorkerC();
 1578              		.loc 2 140 5 is_stmt 1
 1579              		.loc 2 140 30 is_stmt 0
 1580 0554 13050002 		li	a0,32
 1581 0558 97000000 		call	_Znwm
 1581      E7800000 
 1582              	.LVL151:
 1583              	.LBB158:
 1584              	.LBB159:
 1585              	.LBB160:
 1586              	.LBB161:
  34:test/../h/syscall_cpp.hpp ****     virtual void run(){}
 1587              		.loc 1 34 13
 1588 0560 23380500 		sd	zero,16(a0)
 1589              	.LVL152:
 1590              	.LBE161:
 1591              	.LBE160:
  39:test/Threads_CPP_API_test.cpp **** 
 1592              		.loc 2 39 22
 1593 0564 97070000 		lla	a5,_ZTV7WorkerC+16
GAS LISTING /tmp/ccbuzvWS.s 			page 36


 1593      93870700 
 1594 056c 2330F500 		sd	a5,0(a0)
 1595              	.LVL153:
 1596              	.LBE159:
 1597              	.LBE158:
 1598              		.loc 2 140 16
 1599 0570 2338A4FC 		sd	a0,-48(s0)
 141:test/Threads_CPP_API_test.cpp ****     printString("ThreadC created\n");
 1600              		.loc 2 141 5 is_stmt 1
 1601              		.loc 2 141 16 is_stmt 0
 1602 0574 17050000 		lla	a0,.LC16
 1602      13050500 
 1603 057c 97000000 		call	_Z11printStringPKc
 1603      E7800000 
 1604              	.LVL154:
 142:test/Threads_CPP_API_test.cpp **** 
 143:test/Threads_CPP_API_test.cpp ****     threads[3] = new WorkerD();
 1605              		.loc 2 143 5 is_stmt 1
 1606              		.loc 2 143 30 is_stmt 0
 1607 0584 13050002 		li	a0,32
 1608 0588 97000000 		call	_Znwm
 1608      E7800000 
 1609              	.LVL155:
 1610              	.LBB162:
 1611              	.LBB163:
 1612              	.LBB164:
 1613              	.LBB165:
  34:test/../h/syscall_cpp.hpp ****     virtual void run(){}
 1614              		.loc 1 34 13
 1615 0590 23380500 		sd	zero,16(a0)
 1616              	.LVL156:
 1617              	.LBE165:
 1618              	.LBE164:
  49:test/Threads_CPP_API_test.cpp **** 
 1619              		.loc 2 49 22
 1620 0594 97070000 		lla	a5,_ZTV7WorkerD+16
 1620      93870700 
 1621 059c 2330F500 		sd	a5,0(a0)
 1622              	.LVL157:
 1623              	.LBE163:
 1624              	.LBE162:
 1625              		.loc 2 143 16
 1626 05a0 233CA4FC 		sd	a0,-40(s0)
 144:test/Threads_CPP_API_test.cpp ****     printString("ThreadD created\n");
 1627              		.loc 2 144 5 is_stmt 1
 1628              		.loc 2 144 16 is_stmt 0
 1629 05a4 17050000 		lla	a0,.LC17
 1629      13050500 
 1630 05ac 97000000 		call	_Z11printStringPKc
 1630      E7800000 
 1631              	.LVL158:
 1632              	.LBB166:
 145:test/Threads_CPP_API_test.cpp **** 
 146:test/Threads_CPP_API_test.cpp ****     for(int i=0; i<4; i++) {
 1633              		.loc 2 146 13
 1634 05b4 93040000 		li	s1,0
 1635 05b8 6F000002 		j	.L79
GAS LISTING /tmp/ccbuzvWS.s 			page 37


 1636              	.LVL159:
 1637              	.L86:
 1638              	.LBB167:
 1639              	.LBB168:
  22:test/../h/syscall_cpp.hpp ****         }
 1640              		.loc 1 22 13 is_stmt 1
  22:test/../h/syscall_cpp.hpp ****         }
 1641              		.loc 1 22 26 is_stmt 0
 1642 05bc 13060500 		mv	a2,a0
 1643 05c0 97050000 		lla	a1,_ZN6Thread13threadWrapperEPv
 1643      93850500 
 1644 05c8 13058500 		addi	a0,a0,8
 1645              	.LVL160:
 1646 05cc 97000000 		call	_Z13thread_createPP7_threadPFvPvES2_
 1646      E7800000 
 1647              	.LVL161:
 1648              	.L78:
  27:test/../h/syscall_cpp.hpp ****     }
 1649              		.loc 1 27 9 is_stmt 1
 1650              	.LBE168:
 1651              	.LBE167:
 1652              		.loc 2 146 5
 1653 05d4 9B841400 		addiw	s1,s1,1
 1654              	.LVL162:
 1655              	.L79:
 1656              		.loc 2 146 19 discriminator 1
 1657 05d8 93073000 		li	a5,3
 1658 05dc 63CC9702 		bgt	s1,a5,.L76
 147:test/Threads_CPP_API_test.cpp ****         threads[i]->start();
 1659              		.loc 2 147 9
 1660              		.loc 2 147 18 is_stmt 0
 1661 05e0 93973400 		slli	a5,s1,3
 1662 05e4 130704FE 		addi	a4,s0,-32
 1663 05e8 B307F700 		add	a5,a4,a5
 1664 05ec 03B507FE 		ld	a0,-32(a5)
 1665              	.LVL163:
 1666              	.LBB170:
 1667              	.LBB169:
  21:test/../h/syscall_cpp.hpp ****             thread_create(&myhandle, &threadWrapper,this);
 1668              		.loc 1 21 9 is_stmt 1
  21:test/../h/syscall_cpp.hpp ****             thread_create(&myhandle, &threadWrapper,this);
 1669              		.loc 1 21 13 is_stmt 0
 1670 05f0 83350501 		ld	a1,16(a0)
  21:test/../h/syscall_cpp.hpp ****             thread_create(&myhandle, &threadWrapper,this);
 1671              		.loc 1 21 9
 1672 05f4 E38405FC 		beqz	a1,.L86
  25:test/../h/syscall_cpp.hpp ****         }
 1673              		.loc 1 25 13 is_stmt 1
  25:test/../h/syscall_cpp.hpp ****         }
 1674              		.loc 1 25 26 is_stmt 0
 1675 05f8 03368501 		ld	a2,24(a0)
 1676 05fc 13058500 		addi	a0,a0,8
 1677              	.LVL164:
 1678 0600 97000000 		call	_Z13thread_createPP7_threadPFvPvES2_
 1678      E7800000 
 1679              	.LVL165:
 1680 0608 6FF0DFFC 		j	.L78
GAS LISTING /tmp/ccbuzvWS.s 			page 38


 1681              	.L80:
 1682              	.LBE169:
 1683              	.LBE170:
 1684              	.LBE166:
 148:test/Threads_CPP_API_test.cpp ****     }
 149:test/Threads_CPP_API_test.cpp **** 
 150:test/Threads_CPP_API_test.cpp ****     while (!(finishedA && finishedB && finishedC && finishedD)) {
 151:test/Threads_CPP_API_test.cpp ****         Thread::dispatch();
 1685              		.loc 2 151 9 is_stmt 1
 1686              	.LBB171:
 1687              	.LBB172:
  30:test/../h/syscall_cpp.hpp ****     static int sleep(time_t);
 1688              		.loc 1 30 29
  30:test/../h/syscall_cpp.hpp ****     static int sleep(time_t);
 1689              		.loc 1 30 44 is_stmt 0
 1690 060c 97000000 		call	_Z15thread_dispatchv
 1690      E7800000 
 1691              	.LVL166:
 1692              	.L76:
 1693              	.LBE172:
 1694              	.LBE171:
 150:test/Threads_CPP_API_test.cpp ****         Thread::dispatch();
 1695              		.loc 2 150 5 is_stmt 1
 150:test/Threads_CPP_API_test.cpp ****         Thread::dispatch();
 1696              		.loc 2 150 12
 150:test/Threads_CPP_API_test.cpp ****         Thread::dispatch();
 1697              		.loc 2 150 14 is_stmt 0
 1698 0614 97070000 		lbu	a5,_ZL9finishedA
 1698      83C70700 
 150:test/Threads_CPP_API_test.cpp ****         Thread::dispatch();
 1699              		.loc 2 150 12
 1700 061c E38807FE 		beqz	a5,.L80
 150:test/Threads_CPP_API_test.cpp ****         Thread::dispatch();
 1701              		.loc 2 150 27 discriminator 2
 1702 0620 97070000 		lbu	a5,_ZL9finishedB
 1702      83C70700 
 150:test/Threads_CPP_API_test.cpp ****         Thread::dispatch();
 1703              		.loc 2 150 24 discriminator 2
 1704 0628 E38207FE 		beqz	a5,.L80
 150:test/Threads_CPP_API_test.cpp ****         Thread::dispatch();
 1705              		.loc 2 150 40 discriminator 4
 1706 062c 97070000 		lbu	a5,_ZL9finishedC
 1706      83C70700 
 150:test/Threads_CPP_API_test.cpp ****         Thread::dispatch();
 1707              		.loc 2 150 37 discriminator 4
 1708 0634 E38C07FC 		beqz	a5,.L80
 150:test/Threads_CPP_API_test.cpp ****         Thread::dispatch();
 1709              		.loc 2 150 53 discriminator 6
 1710 0638 97070000 		lbu	a5,_ZL9finishedD
 1710      83C70700 
 150:test/Threads_CPP_API_test.cpp ****         Thread::dispatch();
 1711              		.loc 2 150 12 discriminator 6
 1712 0640 E38607FC 		beqz	a5,.L80
 1713 0644 930404FC 		addi	s1,s0,-64
 1714              	.LVL167:
 1715 0648 6F008000 		j	.L81
 1716              	.LVL168:
GAS LISTING /tmp/ccbuzvWS.s 			page 39


 1717              	.L83:
 1718              	.LBB173:
 152:test/Threads_CPP_API_test.cpp ****     }
 153:test/Threads_CPP_API_test.cpp **** 
 154:test/Threads_CPP_API_test.cpp ****     for (auto thread: threads) {  printString("Obrisao\n"); delete thread; }
 1719              		.loc 2 154 5 is_stmt 1 discriminator 6
 1720 064c 93848400 		addi	s1,s1,8
 1721              	.LVL169:
 1722              	.L81:
 1723              		.loc 2 154 23 discriminator 7
 1724 0650 930704FE 		addi	a5,s0,-32
 1725 0654 6388F402 		beq	s1,a5,.L75
 1726              		.loc 2 154 15 is_stmt 0 discriminator 2
 1727 0658 03B90400 		ld	s2,0(s1)
 1728              	.LVL170:
 1729              		.loc 2 154 35 is_stmt 1 discriminator 2
 1730              		.loc 2 154 46 is_stmt 0 discriminator 2
 1731 065c 17050000 		lla	a0,.LC18
 1731      13050500 
 1732 0664 97000000 		call	_Z11printStringPKc
 1732      E7800000 
 1733              	.LVL171:
 1734              		.loc 2 154 61 is_stmt 1 discriminator 2
 1735              		.loc 2 154 74 is_stmt 0 discriminator 2
 1736 066c E30009FE 		beqz	s2,.L83
 1737              		.loc 2 154 68 discriminator 4
 1738 0670 83370900 		ld	a5,0(s2)
 1739 0674 83B78700 		ld	a5,8(a5)
 1740 0678 13050900 		mv	a0,s2
 1741 067c E7800700 		jalr	a5
 1742              	.LVL172:
 1743 0680 6FF0DFFC 		j	.L83
 1744              	.LVL173:
 1745              	.L75:
 1746              	.LBE173:
 155:test/Threads_CPP_API_test.cpp **** }
 1747              		.loc 2 155 1
 1748 0684 83308103 		ld	ra,56(sp)
 1749              		.cfi_restore 1
 1750 0688 03340103 		ld	s0,48(sp)
 1751              		.cfi_restore 8
 1752              		.cfi_def_cfa 2, 64
 1753 068c 83348102 		ld	s1,40(sp)
 1754              		.cfi_restore 9
 1755              	.LVL174:
 1756 0690 03390102 		ld	s2,32(sp)
 1757              		.cfi_restore 18
 1758 0694 13010104 		addi	sp,sp,64
 1759              		.cfi_def_cfa_offset 0
 1760 0698 67800000 		jr	ra
 1761              		.cfi_endproc
 1762              	.LFE53:
 1764              		.weak	_ZTV6Thread
 1765              		.section	.rodata._ZTV6Thread,"aG",@progbits,_ZTV6Thread,comdat
 1766              		.align	3
 1769              	_ZTV6Thread:
 1770 0000 00000000 		.dword	0
GAS LISTING /tmp/ccbuzvWS.s 			page 40


 1770      00000000 
 1771 0008 00000000 		.dword	0
 1771      00000000 
 1772 0010 00000000 		.dword	_ZN6ThreadD1Ev
 1772      00000000 
 1773 0018 00000000 		.dword	_ZN6ThreadD0Ev
 1773      00000000 
 1774 0020 00000000 		.dword	_ZN6Thread3runEv
 1774      00000000 
 1775              		.weak	_ZTV7WorkerA
 1776              		.section	.rodata._ZTV7WorkerA,"aG",@progbits,_ZTV7WorkerA,comdat
 1777              		.align	3
 1780              	_ZTV7WorkerA:
 1781 0000 00000000 		.dword	0
 1781      00000000 
 1782 0008 00000000 		.dword	0
 1782      00000000 
 1783 0010 00000000 		.dword	_ZN7WorkerAD1Ev
 1783      00000000 
 1784 0018 00000000 		.dword	_ZN7WorkerAD0Ev
 1784      00000000 
 1785 0020 00000000 		.dword	_ZN7WorkerA3runEv
 1785      00000000 
 1786              		.weak	_ZTV7WorkerB
 1787              		.section	.rodata._ZTV7WorkerB,"aG",@progbits,_ZTV7WorkerB,comdat
 1788              		.align	3
 1791              	_ZTV7WorkerB:
 1792 0000 00000000 		.dword	0
 1792      00000000 
 1793 0008 00000000 		.dword	0
 1793      00000000 
 1794 0010 00000000 		.dword	_ZN7WorkerBD1Ev
 1794      00000000 
 1795 0018 00000000 		.dword	_ZN7WorkerBD0Ev
 1795      00000000 
 1796 0020 00000000 		.dword	_ZN7WorkerB3runEv
 1796      00000000 
 1797              		.weak	_ZTV7WorkerC
 1798              		.section	.rodata._ZTV7WorkerC,"aG",@progbits,_ZTV7WorkerC,comdat
 1799              		.align	3
 1802              	_ZTV7WorkerC:
 1803 0000 00000000 		.dword	0
 1803      00000000 
 1804 0008 00000000 		.dword	0
 1804      00000000 
 1805 0010 00000000 		.dword	_ZN7WorkerCD1Ev
 1805      00000000 
 1806 0018 00000000 		.dword	_ZN7WorkerCD0Ev
 1806      00000000 
 1807 0020 00000000 		.dword	_ZN7WorkerC3runEv
 1807      00000000 
 1808              		.weak	_ZTV7WorkerD
 1809              		.section	.rodata._ZTV7WorkerD,"aG",@progbits,_ZTV7WorkerD,comdat
 1810              		.align	3
 1813              	_ZTV7WorkerD:
 1814 0000 00000000 		.dword	0
 1814      00000000 
GAS LISTING /tmp/ccbuzvWS.s 			page 41


 1815 0008 00000000 		.dword	0
 1815      00000000 
 1816 0010 00000000 		.dword	_ZN7WorkerDD1Ev
 1816      00000000 
 1817 0018 00000000 		.dword	_ZN7WorkerDD0Ev
 1817      00000000 
 1818 0020 00000000 		.dword	_ZN7WorkerD3runEv
 1818      00000000 
 1819              		.section	.sbss,"aw",@nobits
 1822              	_ZL9finishedD:
 1823 0000 00       		.zero	1
 1826              	_ZL9finishedC:
 1827 0001 00       		.zero	1
 1830              	_ZL9finishedB:
 1831 0002 00       		.zero	1
 1834              	_ZL9finishedA:
 1835 0003 00       		.zero	1
 1836              		.text
 1837              	.Letext0:
 1838              		.file 3 "test/../h/../lib/hw.h"
 1839              		.file 4 "test/../h/syscall_c.hpp"
 1840              		.file 5 "test/printing.hpp"
 6515              		.align	3
 6518              	DW.ref.__gxx_personality_v0:
 6519 0000 00000000 		.dword	__gxx_personality_v0
 6519      00000000 
 6520              		.ident	"GCC: () 9.3.0"
GAS LISTING /tmp/ccbuzvWS.s 			page 42


DEFINED SYMBOLS
                            *ABS*:0000000000000000 Threads_CPP_API_test.cpp
     /tmp/ccbuzvWS.s:13     .text._ZN6Thread3runEv:0000000000000000 _ZN6Thread3runEv
     /tmp/ccbuzvWS.s:17     .text._ZN6Thread3runEv:0000000000000000 .L0 
     /tmp/ccbuzvWS.s:19     .text._ZN6Thread3runEv:0000000000000000 .L0 
     /tmp/ccbuzvWS.s:20     .text._ZN6Thread3runEv:0000000000000004 .L0 
     /tmp/ccbuzvWS.s:22     .text._ZN6Thread3runEv:0000000000000008 .L0 
     /tmp/ccbuzvWS.s:24     .text._ZN6Thread3runEv:000000000000000c .L0 
     /tmp/ccbuzvWS.s:26     .text._ZN6Thread3runEv:000000000000000c .L0 
     /tmp/ccbuzvWS.s:27     .text._ZN6Thread3runEv:0000000000000010 .L0 
     /tmp/ccbuzvWS.s:28     .text._ZN6Thread3runEv:0000000000000010 .L0 
     /tmp/ccbuzvWS.s:30     .text._ZN6Thread3runEv:0000000000000014 .L0 
     /tmp/ccbuzvWS.s:32     .text._ZN6Thread3runEv:0000000000000018 .L0 
     /tmp/ccbuzvWS.s:39     .text._ZN6Thread13threadWrapperEPv:0000000000000000 _ZN6Thread13threadWrapperEPv
     /tmp/ccbuzvWS.s:42     .text._ZN6Thread13threadWrapperEPv:0000000000000000 .L0 
     /tmp/ccbuzvWS.s:44     .text._ZN6Thread13threadWrapperEPv:0000000000000000 .L0 
     /tmp/ccbuzvWS.s:45     .text._ZN6Thread13threadWrapperEPv:0000000000000000 .L0 
     /tmp/ccbuzvWS.s:46     .text._ZN6Thread13threadWrapperEPv:0000000000000000 .L0 
     /tmp/ccbuzvWS.s:48     .text._ZN6Thread13threadWrapperEPv:0000000000000004 .L0 
     /tmp/ccbuzvWS.s:49     .text._ZN6Thread13threadWrapperEPv:0000000000000008 .L0 
     /tmp/ccbuzvWS.s:52     .text._ZN6Thread13threadWrapperEPv:0000000000000010 .L0 
     /tmp/ccbuzvWS.s:53     .text._ZN6Thread13threadWrapperEPv:0000000000000010 .L0 
     /tmp/ccbuzvWS.s:55     .text._ZN6Thread13threadWrapperEPv:0000000000000014 .L0 
     /tmp/ccbuzvWS.s:57     .text._ZN6Thread13threadWrapperEPv:0000000000000014 .L0 
     /tmp/ccbuzvWS.s:58     .text._ZN6Thread13threadWrapperEPv:0000000000000014 .L0 
     /tmp/ccbuzvWS.s:61     .text._ZN6Thread13threadWrapperEPv:000000000000001c .L0 
     /tmp/ccbuzvWS.s:64     .text._ZN6Thread13threadWrapperEPv:0000000000000020 .L0 
     /tmp/ccbuzvWS.s:65     .text._ZN6Thread13threadWrapperEPv:0000000000000024 .L0 
     /tmp/ccbuzvWS.s:67     .text._ZN6Thread13threadWrapperEPv:0000000000000028 .L0 
     /tmp/ccbuzvWS.s:68     .text._ZN6Thread13threadWrapperEPv:0000000000000028 .L0 
     /tmp/ccbuzvWS.s:70     .text._ZN6Thread13threadWrapperEPv:000000000000002c .L0 
     /tmp/ccbuzvWS.s:75     .text._ZN6Thread13threadWrapperEPv:0000000000000034 .L0 
     /tmp/ccbuzvWS.s:81     .text:0000000000000000 _ZL9fibonaccim
     /tmp/ccbuzvWS.s:85     .text:0000000000000000 .L0 
     /tmp/ccbuzvWS.s:87     .text:0000000000000000 .L0 
     /tmp/ccbuzvWS.s:88     .text:0000000000000004 .L0 
     /tmp/ccbuzvWS.s:93     .text:0000000000000014 .L0 
     /tmp/ccbuzvWS.s:94     .text:0000000000000014 .L0 
     /tmp/ccbuzvWS.s:95     .text:0000000000000014 .L0 
     /tmp/ccbuzvWS.s:96     .text:0000000000000014 .L0 
     /tmp/ccbuzvWS.s:98     .text:0000000000000018 .L0 
     /tmp/ccbuzvWS.s:101    .text:000000000000001c .L0 
     /tmp/ccbuzvWS.s:104    .text:0000000000000024 .L0 
     /tmp/ccbuzvWS.s:105    .text:0000000000000024 .L0 
     /tmp/ccbuzvWS.s:108    .text:000000000000002c .L0 
     /tmp/ccbuzvWS.s:112    .text:0000000000000030 .L0 
     /tmp/ccbuzvWS.s:113    .text:0000000000000030 .L0 
     /tmp/ccbuzvWS.s:118    .text:0000000000000040 .L0 
     /tmp/ccbuzvWS.s:122    .text:000000000000004c .L0 
     /tmp/ccbuzvWS.s:125    .text:0000000000000050 .L0 
     /tmp/ccbuzvWS.s:126    .text:0000000000000054 .L0 
     /tmp/ccbuzvWS.s:127    .text:0000000000000054 .L0 
     /tmp/ccbuzvWS.s:129    .text:0000000000000058 .L0 
     /tmp/ccbuzvWS.s:130    .text:0000000000000058 .L0 
     /tmp/ccbuzvWS.s:132    .text:000000000000005c .L0 
     /tmp/ccbuzvWS.s:135    .text:0000000000000060 .L0 
     /tmp/ccbuzvWS.s:137    .text:0000000000000064 .L0 
GAS LISTING /tmp/ccbuzvWS.s 			page 43


     /tmp/ccbuzvWS.s:141    .text:0000000000000068 .L0 
     /tmp/ccbuzvWS.s:143    .text:0000000000000068 .L0 
     /tmp/ccbuzvWS.s:144    .text:0000000000000068 .L0 
     /tmp/ccbuzvWS.s:147    .text:0000000000000074 .L0 
     /tmp/ccbuzvWS.s:154    .text._ZN6ThreadD2Ev:0000000000000000 _ZN6ThreadD2Ev
     /tmp/ccbuzvWS.s:157    .text._ZN6ThreadD2Ev:0000000000000000 .L0 
     /tmp/ccbuzvWS.s:6518   .sdata.DW.ref.__gxx_personality_v0:0000000000000000 DW.ref.__gxx_personality_v0
     /tmp/ccbuzvWS.s:161    .text._ZN6ThreadD2Ev:0000000000000000 .L0 
     /tmp/ccbuzvWS.s:162    .text._ZN6ThreadD2Ev:0000000000000004 .L0 
     /tmp/ccbuzvWS.s:165    .text._ZN6ThreadD2Ev:000000000000000c .L0 
     /tmp/ccbuzvWS.s:166    .text._ZN6ThreadD2Ev:000000000000000c .L0 
     /tmp/ccbuzvWS.s:168    .text._ZN6ThreadD2Ev:0000000000000010 .L0 
     /tmp/ccbuzvWS.s:1769   .rodata._ZTV6Thread:0000000000000000 _ZTV6Thread
     /tmp/ccbuzvWS.s:171    .text._ZN6ThreadD2Ev:0000000000000010 .L0 
     /tmp/ccbuzvWS.s:174    .text._ZN6ThreadD2Ev:000000000000001c .L0 
     /tmp/ccbuzvWS.s:175    .text._ZN6ThreadD2Ev:000000000000001c .L0 
     /tmp/ccbuzvWS.s:179    .text._ZN6ThreadD2Ev:0000000000000024 .L0 
     /tmp/ccbuzvWS.s:180    .text._ZN6ThreadD2Ev:0000000000000028 .L0 
     /tmp/ccbuzvWS.s:182    .text._ZN6ThreadD2Ev:000000000000002c .L0 
     /tmp/ccbuzvWS.s:183    .text._ZN6ThreadD2Ev:000000000000002c .L0 
     /tmp/ccbuzvWS.s:185    .text._ZN6ThreadD2Ev:0000000000000030 .L0 
     /tmp/ccbuzvWS.s:187    .text._ZN6ThreadD2Ev:0000000000000034 .L0 
     /tmp/ccbuzvWS.s:154    .text._ZN6ThreadD2Ev:0000000000000000 _ZN6ThreadD1Ev
     /tmp/ccbuzvWS.s:204    .text._ZN6ThreadD0Ev:0000000000000000 _ZN6ThreadD0Ev
     /tmp/ccbuzvWS.s:207    .text._ZN6ThreadD0Ev:0000000000000000 .L0 
     /tmp/ccbuzvWS.s:211    .text._ZN6ThreadD0Ev:0000000000000000 .L0 
     /tmp/ccbuzvWS.s:212    .text._ZN6ThreadD0Ev:0000000000000004 .L0 
     /tmp/ccbuzvWS.s:216    .text._ZN6ThreadD0Ev:0000000000000010 .L0 
     /tmp/ccbuzvWS.s:217    .text._ZN6ThreadD0Ev:0000000000000010 .L0 
     /tmp/ccbuzvWS.s:218    .text._ZN6ThreadD0Ev:0000000000000010 .L0 
     /tmp/ccbuzvWS.s:220    .text._ZN6ThreadD0Ev:0000000000000014 .L0 
     /tmp/ccbuzvWS.s:226    .text._ZN6ThreadD0Ev:0000000000000018 .L0 
     /tmp/ccbuzvWS.s:229    .text._ZN6ThreadD0Ev:0000000000000024 .L0 
     /tmp/ccbuzvWS.s:230    .text._ZN6ThreadD0Ev:0000000000000024 .L0 
     /tmp/ccbuzvWS.s:235    .text._ZN6ThreadD0Ev:000000000000002c .L0 
     /tmp/ccbuzvWS.s:239    .text._ZN6ThreadD0Ev:000000000000003c .L0 
     /tmp/ccbuzvWS.s:241    .text._ZN6ThreadD0Ev:0000000000000040 .L0 
     /tmp/ccbuzvWS.s:242    .text._ZN6ThreadD0Ev:0000000000000040 .L0 
     /tmp/ccbuzvWS.s:244    .text._ZN6ThreadD0Ev:0000000000000044 .L0 
     /tmp/ccbuzvWS.s:247    .text._ZN6ThreadD0Ev:0000000000000048 .L0 
     /tmp/ccbuzvWS.s:249    .text._ZN6ThreadD0Ev:000000000000004c .L0 
     /tmp/ccbuzvWS.s:263    .text._ZN7WorkerAD2Ev:0000000000000000 _ZN7WorkerAD2Ev
     /tmp/ccbuzvWS.s:266    .text._ZN7WorkerAD2Ev:0000000000000000 .L0 
     /tmp/ccbuzvWS.s:270    .text._ZN7WorkerAD2Ev:0000000000000000 .L0 
     /tmp/ccbuzvWS.s:271    .text._ZN7WorkerAD2Ev:0000000000000004 .L0 
     /tmp/ccbuzvWS.s:274    .text._ZN7WorkerAD2Ev:000000000000000c .L0 
     /tmp/ccbuzvWS.s:275    .text._ZN7WorkerAD2Ev:000000000000000c .L0 
     /tmp/ccbuzvWS.s:277    .text._ZN7WorkerAD2Ev:0000000000000010 .L0 
     /tmp/ccbuzvWS.s:282    .text._ZN7WorkerAD2Ev:0000000000000010 .L0 
     /tmp/ccbuzvWS.s:285    .text._ZN7WorkerAD2Ev:000000000000001c .L0 
     /tmp/ccbuzvWS.s:286    .text._ZN7WorkerAD2Ev:000000000000001c .L0 
     /tmp/ccbuzvWS.s:291    .text._ZN7WorkerAD2Ev:0000000000000024 .L0 
     /tmp/ccbuzvWS.s:292    .text._ZN7WorkerAD2Ev:0000000000000028 .L0 
     /tmp/ccbuzvWS.s:294    .text._ZN7WorkerAD2Ev:000000000000002c .L0 
     /tmp/ccbuzvWS.s:295    .text._ZN7WorkerAD2Ev:000000000000002c .L0 
     /tmp/ccbuzvWS.s:297    .text._ZN7WorkerAD2Ev:0000000000000030 .L0 
     /tmp/ccbuzvWS.s:299    .text._ZN7WorkerAD2Ev:0000000000000034 .L0 
GAS LISTING /tmp/ccbuzvWS.s 			page 44


     /tmp/ccbuzvWS.s:263    .text._ZN7WorkerAD2Ev:0000000000000000 _ZN7WorkerAD1Ev
     /tmp/ccbuzvWS.s:315    .text._ZN7WorkerAD0Ev:0000000000000000 _ZN7WorkerAD0Ev
     /tmp/ccbuzvWS.s:318    .text._ZN7WorkerAD0Ev:0000000000000000 .L0 
     /tmp/ccbuzvWS.s:322    .text._ZN7WorkerAD0Ev:0000000000000000 .L0 
     /tmp/ccbuzvWS.s:323    .text._ZN7WorkerAD0Ev:0000000000000004 .L0 
     /tmp/ccbuzvWS.s:327    .text._ZN7WorkerAD0Ev:0000000000000010 .L0 
     /tmp/ccbuzvWS.s:328    .text._ZN7WorkerAD0Ev:0000000000000010 .L0 
     /tmp/ccbuzvWS.s:329    .text._ZN7WorkerAD0Ev:0000000000000010 .L0 
     /tmp/ccbuzvWS.s:331    .text._ZN7WorkerAD0Ev:0000000000000014 .L0 
     /tmp/ccbuzvWS.s:338    .text._ZN7WorkerAD0Ev:0000000000000018 .L0 
     /tmp/ccbuzvWS.s:341    .text._ZN7WorkerAD0Ev:0000000000000024 .L0 
     /tmp/ccbuzvWS.s:342    .text._ZN7WorkerAD0Ev:0000000000000024 .L0 
     /tmp/ccbuzvWS.s:348    .text._ZN7WorkerAD0Ev:000000000000002c .L0 
     /tmp/ccbuzvWS.s:352    .text._ZN7WorkerAD0Ev:000000000000003c .L0 
     /tmp/ccbuzvWS.s:354    .text._ZN7WorkerAD0Ev:0000000000000040 .L0 
     /tmp/ccbuzvWS.s:355    .text._ZN7WorkerAD0Ev:0000000000000040 .L0 
     /tmp/ccbuzvWS.s:357    .text._ZN7WorkerAD0Ev:0000000000000044 .L0 
     /tmp/ccbuzvWS.s:360    .text._ZN7WorkerAD0Ev:0000000000000048 .L0 
     /tmp/ccbuzvWS.s:362    .text._ZN7WorkerAD0Ev:000000000000004c .L0 
     /tmp/ccbuzvWS.s:376    .text._ZN7WorkerBD2Ev:0000000000000000 _ZN7WorkerBD2Ev
     /tmp/ccbuzvWS.s:379    .text._ZN7WorkerBD2Ev:0000000000000000 .L0 
     /tmp/ccbuzvWS.s:383    .text._ZN7WorkerBD2Ev:0000000000000000 .L0 
     /tmp/ccbuzvWS.s:384    .text._ZN7WorkerBD2Ev:0000000000000004 .L0 
     /tmp/ccbuzvWS.s:387    .text._ZN7WorkerBD2Ev:000000000000000c .L0 
     /tmp/ccbuzvWS.s:388    .text._ZN7WorkerBD2Ev:000000000000000c .L0 
     /tmp/ccbuzvWS.s:390    .text._ZN7WorkerBD2Ev:0000000000000010 .L0 
     /tmp/ccbuzvWS.s:395    .text._ZN7WorkerBD2Ev:0000000000000010 .L0 
     /tmp/ccbuzvWS.s:398    .text._ZN7WorkerBD2Ev:000000000000001c .L0 
     /tmp/ccbuzvWS.s:399    .text._ZN7WorkerBD2Ev:000000000000001c .L0 
     /tmp/ccbuzvWS.s:404    .text._ZN7WorkerBD2Ev:0000000000000024 .L0 
     /tmp/ccbuzvWS.s:405    .text._ZN7WorkerBD2Ev:0000000000000028 .L0 
     /tmp/ccbuzvWS.s:407    .text._ZN7WorkerBD2Ev:000000000000002c .L0 
     /tmp/ccbuzvWS.s:408    .text._ZN7WorkerBD2Ev:000000000000002c .L0 
     /tmp/ccbuzvWS.s:410    .text._ZN7WorkerBD2Ev:0000000000000030 .L0 
     /tmp/ccbuzvWS.s:412    .text._ZN7WorkerBD2Ev:0000000000000034 .L0 
     /tmp/ccbuzvWS.s:376    .text._ZN7WorkerBD2Ev:0000000000000000 _ZN7WorkerBD1Ev
     /tmp/ccbuzvWS.s:428    .text._ZN7WorkerBD0Ev:0000000000000000 _ZN7WorkerBD0Ev
     /tmp/ccbuzvWS.s:431    .text._ZN7WorkerBD0Ev:0000000000000000 .L0 
     /tmp/ccbuzvWS.s:435    .text._ZN7WorkerBD0Ev:0000000000000000 .L0 
     /tmp/ccbuzvWS.s:436    .text._ZN7WorkerBD0Ev:0000000000000004 .L0 
     /tmp/ccbuzvWS.s:440    .text._ZN7WorkerBD0Ev:0000000000000010 .L0 
     /tmp/ccbuzvWS.s:441    .text._ZN7WorkerBD0Ev:0000000000000010 .L0 
     /tmp/ccbuzvWS.s:442    .text._ZN7WorkerBD0Ev:0000000000000010 .L0 
     /tmp/ccbuzvWS.s:444    .text._ZN7WorkerBD0Ev:0000000000000014 .L0 
     /tmp/ccbuzvWS.s:451    .text._ZN7WorkerBD0Ev:0000000000000018 .L0 
     /tmp/ccbuzvWS.s:454    .text._ZN7WorkerBD0Ev:0000000000000024 .L0 
     /tmp/ccbuzvWS.s:455    .text._ZN7WorkerBD0Ev:0000000000000024 .L0 
     /tmp/ccbuzvWS.s:461    .text._ZN7WorkerBD0Ev:000000000000002c .L0 
     /tmp/ccbuzvWS.s:465    .text._ZN7WorkerBD0Ev:000000000000003c .L0 
     /tmp/ccbuzvWS.s:467    .text._ZN7WorkerBD0Ev:0000000000000040 .L0 
     /tmp/ccbuzvWS.s:468    .text._ZN7WorkerBD0Ev:0000000000000040 .L0 
     /tmp/ccbuzvWS.s:470    .text._ZN7WorkerBD0Ev:0000000000000044 .L0 
     /tmp/ccbuzvWS.s:473    .text._ZN7WorkerBD0Ev:0000000000000048 .L0 
     /tmp/ccbuzvWS.s:475    .text._ZN7WorkerBD0Ev:000000000000004c .L0 
     /tmp/ccbuzvWS.s:489    .text._ZN7WorkerCD2Ev:0000000000000000 _ZN7WorkerCD2Ev
     /tmp/ccbuzvWS.s:492    .text._ZN7WorkerCD2Ev:0000000000000000 .L0 
     /tmp/ccbuzvWS.s:496    .text._ZN7WorkerCD2Ev:0000000000000000 .L0 
GAS LISTING /tmp/ccbuzvWS.s 			page 45


     /tmp/ccbuzvWS.s:497    .text._ZN7WorkerCD2Ev:0000000000000004 .L0 
     /tmp/ccbuzvWS.s:500    .text._ZN7WorkerCD2Ev:000000000000000c .L0 
     /tmp/ccbuzvWS.s:501    .text._ZN7WorkerCD2Ev:000000000000000c .L0 
     /tmp/ccbuzvWS.s:503    .text._ZN7WorkerCD2Ev:0000000000000010 .L0 
     /tmp/ccbuzvWS.s:508    .text._ZN7WorkerCD2Ev:0000000000000010 .L0 
     /tmp/ccbuzvWS.s:511    .text._ZN7WorkerCD2Ev:000000000000001c .L0 
     /tmp/ccbuzvWS.s:512    .text._ZN7WorkerCD2Ev:000000000000001c .L0 
     /tmp/ccbuzvWS.s:517    .text._ZN7WorkerCD2Ev:0000000000000024 .L0 
     /tmp/ccbuzvWS.s:518    .text._ZN7WorkerCD2Ev:0000000000000028 .L0 
     /tmp/ccbuzvWS.s:520    .text._ZN7WorkerCD2Ev:000000000000002c .L0 
     /tmp/ccbuzvWS.s:521    .text._ZN7WorkerCD2Ev:000000000000002c .L0 
     /tmp/ccbuzvWS.s:523    .text._ZN7WorkerCD2Ev:0000000000000030 .L0 
     /tmp/ccbuzvWS.s:525    .text._ZN7WorkerCD2Ev:0000000000000034 .L0 
     /tmp/ccbuzvWS.s:489    .text._ZN7WorkerCD2Ev:0000000000000000 _ZN7WorkerCD1Ev
     /tmp/ccbuzvWS.s:541    .text._ZN7WorkerCD0Ev:0000000000000000 _ZN7WorkerCD0Ev
     /tmp/ccbuzvWS.s:544    .text._ZN7WorkerCD0Ev:0000000000000000 .L0 
     /tmp/ccbuzvWS.s:548    .text._ZN7WorkerCD0Ev:0000000000000000 .L0 
     /tmp/ccbuzvWS.s:549    .text._ZN7WorkerCD0Ev:0000000000000004 .L0 
     /tmp/ccbuzvWS.s:553    .text._ZN7WorkerCD0Ev:0000000000000010 .L0 
     /tmp/ccbuzvWS.s:554    .text._ZN7WorkerCD0Ev:0000000000000010 .L0 
     /tmp/ccbuzvWS.s:555    .text._ZN7WorkerCD0Ev:0000000000000010 .L0 
     /tmp/ccbuzvWS.s:557    .text._ZN7WorkerCD0Ev:0000000000000014 .L0 
     /tmp/ccbuzvWS.s:564    .text._ZN7WorkerCD0Ev:0000000000000018 .L0 
     /tmp/ccbuzvWS.s:567    .text._ZN7WorkerCD0Ev:0000000000000024 .L0 
     /tmp/ccbuzvWS.s:568    .text._ZN7WorkerCD0Ev:0000000000000024 .L0 
     /tmp/ccbuzvWS.s:574    .text._ZN7WorkerCD0Ev:000000000000002c .L0 
     /tmp/ccbuzvWS.s:578    .text._ZN7WorkerCD0Ev:000000000000003c .L0 
     /tmp/ccbuzvWS.s:580    .text._ZN7WorkerCD0Ev:0000000000000040 .L0 
     /tmp/ccbuzvWS.s:581    .text._ZN7WorkerCD0Ev:0000000000000040 .L0 
     /tmp/ccbuzvWS.s:583    .text._ZN7WorkerCD0Ev:0000000000000044 .L0 
     /tmp/ccbuzvWS.s:586    .text._ZN7WorkerCD0Ev:0000000000000048 .L0 
     /tmp/ccbuzvWS.s:588    .text._ZN7WorkerCD0Ev:000000000000004c .L0 
     /tmp/ccbuzvWS.s:602    .text._ZN7WorkerDD2Ev:0000000000000000 _ZN7WorkerDD2Ev
     /tmp/ccbuzvWS.s:605    .text._ZN7WorkerDD2Ev:0000000000000000 .L0 
     /tmp/ccbuzvWS.s:609    .text._ZN7WorkerDD2Ev:0000000000000000 .L0 
     /tmp/ccbuzvWS.s:610    .text._ZN7WorkerDD2Ev:0000000000000004 .L0 
     /tmp/ccbuzvWS.s:613    .text._ZN7WorkerDD2Ev:000000000000000c .L0 
     /tmp/ccbuzvWS.s:614    .text._ZN7WorkerDD2Ev:000000000000000c .L0 
     /tmp/ccbuzvWS.s:616    .text._ZN7WorkerDD2Ev:0000000000000010 .L0 
     /tmp/ccbuzvWS.s:621    .text._ZN7WorkerDD2Ev:0000000000000010 .L0 
     /tmp/ccbuzvWS.s:624    .text._ZN7WorkerDD2Ev:000000000000001c .L0 
     /tmp/ccbuzvWS.s:625    .text._ZN7WorkerDD2Ev:000000000000001c .L0 
     /tmp/ccbuzvWS.s:630    .text._ZN7WorkerDD2Ev:0000000000000024 .L0 
     /tmp/ccbuzvWS.s:631    .text._ZN7WorkerDD2Ev:0000000000000028 .L0 
     /tmp/ccbuzvWS.s:633    .text._ZN7WorkerDD2Ev:000000000000002c .L0 
     /tmp/ccbuzvWS.s:634    .text._ZN7WorkerDD2Ev:000000000000002c .L0 
     /tmp/ccbuzvWS.s:636    .text._ZN7WorkerDD2Ev:0000000000000030 .L0 
     /tmp/ccbuzvWS.s:638    .text._ZN7WorkerDD2Ev:0000000000000034 .L0 
     /tmp/ccbuzvWS.s:602    .text._ZN7WorkerDD2Ev:0000000000000000 _ZN7WorkerDD1Ev
     /tmp/ccbuzvWS.s:654    .text._ZN7WorkerDD0Ev:0000000000000000 _ZN7WorkerDD0Ev
     /tmp/ccbuzvWS.s:657    .text._ZN7WorkerDD0Ev:0000000000000000 .L0 
     /tmp/ccbuzvWS.s:661    .text._ZN7WorkerDD0Ev:0000000000000000 .L0 
     /tmp/ccbuzvWS.s:662    .text._ZN7WorkerDD0Ev:0000000000000004 .L0 
     /tmp/ccbuzvWS.s:666    .text._ZN7WorkerDD0Ev:0000000000000010 .L0 
     /tmp/ccbuzvWS.s:667    .text._ZN7WorkerDD0Ev:0000000000000010 .L0 
     /tmp/ccbuzvWS.s:668    .text._ZN7WorkerDD0Ev:0000000000000010 .L0 
     /tmp/ccbuzvWS.s:670    .text._ZN7WorkerDD0Ev:0000000000000014 .L0 
GAS LISTING /tmp/ccbuzvWS.s 			page 46


     /tmp/ccbuzvWS.s:677    .text._ZN7WorkerDD0Ev:0000000000000018 .L0 
     /tmp/ccbuzvWS.s:680    .text._ZN7WorkerDD0Ev:0000000000000024 .L0 
     /tmp/ccbuzvWS.s:681    .text._ZN7WorkerDD0Ev:0000000000000024 .L0 
     /tmp/ccbuzvWS.s:687    .text._ZN7WorkerDD0Ev:000000000000002c .L0 
     /tmp/ccbuzvWS.s:691    .text._ZN7WorkerDD0Ev:000000000000003c .L0 
     /tmp/ccbuzvWS.s:693    .text._ZN7WorkerDD0Ev:0000000000000040 .L0 
     /tmp/ccbuzvWS.s:694    .text._ZN7WorkerDD0Ev:0000000000000040 .L0 
     /tmp/ccbuzvWS.s:696    .text._ZN7WorkerDD0Ev:0000000000000044 .L0 
     /tmp/ccbuzvWS.s:699    .text._ZN7WorkerDD0Ev:0000000000000048 .L0 
     /tmp/ccbuzvWS.s:701    .text._ZN7WorkerDD0Ev:000000000000004c .L0 
     /tmp/ccbuzvWS.s:725    .text:0000000000000074 _ZN7WorkerA11workerBodyAEPv
     /tmp/ccbuzvWS.s:728    .text:0000000000000074 .L0 
     /tmp/ccbuzvWS.s:730    .text:0000000000000074 .L0 
     /tmp/ccbuzvWS.s:731    .text:0000000000000078 .L0 
     /tmp/ccbuzvWS.s:736    .text:0000000000000088 .L0 
     /tmp/ccbuzvWS.s:737    .text:0000000000000088 .L0 
     /tmp/ccbuzvWS.s:738    .text:0000000000000088 .L0 
     /tmp/ccbuzvWS.s:739    .text:0000000000000088 .L0 
     /tmp/ccbuzvWS.s:741    .text:000000000000008c .L0 
     /tmp/ccbuzvWS.s:745    .text:000000000000008c .L0 
     /tmp/ccbuzvWS.s:746    .text:000000000000008c .L0 
     /tmp/ccbuzvWS.s:754    .text:0000000000000094 .L0 
     /tmp/ccbuzvWS.s:755    .text:0000000000000094 .L0 
     /tmp/ccbuzvWS.s:759    .text:000000000000009c .L0 
     /tmp/ccbuzvWS.s:763    .text:00000000000000a0 .L0 
     /tmp/ccbuzvWS.s:769    .text:00000000000000ac .L0 
     /tmp/ccbuzvWS.s:773    .text:00000000000000b0 .L0 
     /tmp/ccbuzvWS.s:777    .text:00000000000000bc .L0 
     /tmp/ccbuzvWS.s:787    .text:00000000000000c4 .L0 
     /tmp/ccbuzvWS.s:791    .text:00000000000000c8 .L0 
     /tmp/ccbuzvWS.s:795    .text:00000000000000d0 .L0 
     /tmp/ccbuzvWS.s:796    .text:00000000000000d0 .L0 
     /tmp/ccbuzvWS.s:800    .text:00000000000000e0 .L0 
     /tmp/ccbuzvWS.s:801    .text:00000000000000e0 .L0 
     /tmp/ccbuzvWS.s:807    .text:00000000000000f4 .L0 
     /tmp/ccbuzvWS.s:808    .text:00000000000000f4 .L0 
     /tmp/ccbuzvWS.s:813    .text:0000000000000104 .L0 
     /tmp/ccbuzvWS.s:814    .text:0000000000000104 .L0 
     /tmp/ccbuzvWS.s:822    .text:000000000000010c .L0 
     /tmp/ccbuzvWS.s:823    .text:000000000000010c .L0 
     /tmp/ccbuzvWS.s:827    .text:000000000000011c .L0 
     /tmp/ccbuzvWS.s:828    .text:000000000000011c .L0 
     /tmp/ccbuzvWS.s:1834   .sbss:0000000000000003 _ZL9finishedA
     /tmp/ccbuzvWS.s:831    .text:0000000000000128 .L0 
     /tmp/ccbuzvWS.s:832    .text:000000000000012c .L0 
     /tmp/ccbuzvWS.s:834    .text:0000000000000130 .L0 
     /tmp/ccbuzvWS.s:835    .text:0000000000000130 .L0 
     /tmp/ccbuzvWS.s:837    .text:0000000000000134 .L0 
     /tmp/ccbuzvWS.s:839    .text:0000000000000138 .L0 
     /tmp/ccbuzvWS.s:842    .text:000000000000013c .L0 
     /tmp/ccbuzvWS.s:844    .text:0000000000000140 .L0 
     /tmp/ccbuzvWS.s:851    .text._ZN7WorkerA3runEv:0000000000000000 _ZN7WorkerA3runEv
     /tmp/ccbuzvWS.s:854    .text._ZN7WorkerA3runEv:0000000000000000 .L0 
     /tmp/ccbuzvWS.s:856    .text._ZN7WorkerA3runEv:0000000000000000 .L0 
     /tmp/ccbuzvWS.s:857    .text._ZN7WorkerA3runEv:0000000000000004 .L0 
     /tmp/ccbuzvWS.s:860    .text._ZN7WorkerA3runEv:000000000000000c .L0 
     /tmp/ccbuzvWS.s:861    .text._ZN7WorkerA3runEv:000000000000000c .L0 
GAS LISTING /tmp/ccbuzvWS.s 			page 47


     /tmp/ccbuzvWS.s:863    .text._ZN7WorkerA3runEv:0000000000000010 .L0 
     /tmp/ccbuzvWS.s:865    .text._ZN7WorkerA3runEv:0000000000000010 .L0 
     /tmp/ccbuzvWS.s:866    .text._ZN7WorkerA3runEv:0000000000000010 .L0 
     /tmp/ccbuzvWS.s:870    .text._ZN7WorkerA3runEv:000000000000001c .L0 
     /tmp/ccbuzvWS.s:871    .text._ZN7WorkerA3runEv:0000000000000020 .L0 
     /tmp/ccbuzvWS.s:873    .text._ZN7WorkerA3runEv:0000000000000024 .L0 
     /tmp/ccbuzvWS.s:874    .text._ZN7WorkerA3runEv:0000000000000024 .L0 
     /tmp/ccbuzvWS.s:876    .text._ZN7WorkerA3runEv:0000000000000028 .L0 
     /tmp/ccbuzvWS.s:878    .text._ZN7WorkerA3runEv:000000000000002c .L0 
     /tmp/ccbuzvWS.s:892    .text:0000000000000140 _ZN7WorkerB11workerBodyBEPv
     /tmp/ccbuzvWS.s:895    .text:0000000000000140 .L0 
     /tmp/ccbuzvWS.s:897    .text:0000000000000140 .L0 
     /tmp/ccbuzvWS.s:898    .text:0000000000000144 .L0 
     /tmp/ccbuzvWS.s:903    .text:0000000000000154 .L0 
     /tmp/ccbuzvWS.s:904    .text:0000000000000154 .L0 
     /tmp/ccbuzvWS.s:905    .text:0000000000000154 .L0 
     /tmp/ccbuzvWS.s:906    .text:0000000000000154 .L0 
     /tmp/ccbuzvWS.s:908    .text:0000000000000158 .L0 
     /tmp/ccbuzvWS.s:912    .text:0000000000000158 .L0 
     /tmp/ccbuzvWS.s:913    .text:0000000000000158 .L0 
     /tmp/ccbuzvWS.s:921    .text:0000000000000160 .L0 
     /tmp/ccbuzvWS.s:922    .text:0000000000000160 .L0 
     /tmp/ccbuzvWS.s:926    .text:0000000000000168 .L0 
     /tmp/ccbuzvWS.s:930    .text:000000000000016c .L0 
     /tmp/ccbuzvWS.s:936    .text:0000000000000178 .L0 
     /tmp/ccbuzvWS.s:940    .text:000000000000017c .L0 
     /tmp/ccbuzvWS.s:944    .text:0000000000000188 .L0 
     /tmp/ccbuzvWS.s:954    .text:0000000000000190 .L0 
     /tmp/ccbuzvWS.s:958    .text:0000000000000194 .L0 
     /tmp/ccbuzvWS.s:962    .text:000000000000019c .L0 
     /tmp/ccbuzvWS.s:963    .text:000000000000019c .L0 
     /tmp/ccbuzvWS.s:967    .text:00000000000001ac .L0 
     /tmp/ccbuzvWS.s:968    .text:00000000000001ac .L0 
     /tmp/ccbuzvWS.s:974    .text:00000000000001c0 .L0 
     /tmp/ccbuzvWS.s:975    .text:00000000000001c0 .L0 
     /tmp/ccbuzvWS.s:980    .text:00000000000001d0 .L0 
     /tmp/ccbuzvWS.s:981    .text:00000000000001d0 .L0 
     /tmp/ccbuzvWS.s:989    .text:00000000000001d8 .L0 
     /tmp/ccbuzvWS.s:990    .text:00000000000001d8 .L0 
     /tmp/ccbuzvWS.s:994    .text:00000000000001e8 .L0 
     /tmp/ccbuzvWS.s:995    .text:00000000000001e8 .L0 
     /tmp/ccbuzvWS.s:1830   .sbss:0000000000000002 _ZL9finishedB
     /tmp/ccbuzvWS.s:998    .text:00000000000001f4 .L0 
     /tmp/ccbuzvWS.s:999    .text:00000000000001f4 .L0 
     /tmp/ccbuzvWS.s:1002   .text:00000000000001fc .L0 
     /tmp/ccbuzvWS.s:1003   .text:0000000000000200 .L0 
     /tmp/ccbuzvWS.s:1005   .text:0000000000000204 .L0 
     /tmp/ccbuzvWS.s:1006   .text:0000000000000204 .L0 
     /tmp/ccbuzvWS.s:1008   .text:0000000000000208 .L0 
     /tmp/ccbuzvWS.s:1010   .text:000000000000020c .L0 
     /tmp/ccbuzvWS.s:1013   .text:0000000000000210 .L0 
     /tmp/ccbuzvWS.s:1015   .text:0000000000000214 .L0 
     /tmp/ccbuzvWS.s:1022   .text._ZN7WorkerB3runEv:0000000000000000 _ZN7WorkerB3runEv
     /tmp/ccbuzvWS.s:1025   .text._ZN7WorkerB3runEv:0000000000000000 .L0 
     /tmp/ccbuzvWS.s:1027   .text._ZN7WorkerB3runEv:0000000000000000 .L0 
     /tmp/ccbuzvWS.s:1028   .text._ZN7WorkerB3runEv:0000000000000004 .L0 
     /tmp/ccbuzvWS.s:1031   .text._ZN7WorkerB3runEv:000000000000000c .L0 
GAS LISTING /tmp/ccbuzvWS.s 			page 48


     /tmp/ccbuzvWS.s:1032   .text._ZN7WorkerB3runEv:000000000000000c .L0 
     /tmp/ccbuzvWS.s:1034   .text._ZN7WorkerB3runEv:0000000000000010 .L0 
     /tmp/ccbuzvWS.s:1036   .text._ZN7WorkerB3runEv:0000000000000010 .L0 
     /tmp/ccbuzvWS.s:1037   .text._ZN7WorkerB3runEv:0000000000000010 .L0 
     /tmp/ccbuzvWS.s:1041   .text._ZN7WorkerB3runEv:000000000000001c .L0 
     /tmp/ccbuzvWS.s:1042   .text._ZN7WorkerB3runEv:0000000000000020 .L0 
     /tmp/ccbuzvWS.s:1044   .text._ZN7WorkerB3runEv:0000000000000024 .L0 
     /tmp/ccbuzvWS.s:1045   .text._ZN7WorkerB3runEv:0000000000000024 .L0 
     /tmp/ccbuzvWS.s:1047   .text._ZN7WorkerB3runEv:0000000000000028 .L0 
     /tmp/ccbuzvWS.s:1049   .text._ZN7WorkerB3runEv:000000000000002c .L0 
     /tmp/ccbuzvWS.s:1072   .text:0000000000000214 _ZN7WorkerC11workerBodyCEPv
     /tmp/ccbuzvWS.s:1075   .text:0000000000000214 .L0 
     /tmp/ccbuzvWS.s:1077   .text:0000000000000214 .L0 
     /tmp/ccbuzvWS.s:1078   .text:0000000000000218 .L0 
     /tmp/ccbuzvWS.s:1083   .text:0000000000000228 .L0 
     /tmp/ccbuzvWS.s:1084   .text:0000000000000228 .L0 
     /tmp/ccbuzvWS.s:1085   .text:0000000000000228 .L0 
     /tmp/ccbuzvWS.s:1086   .text:0000000000000228 .L0 
     /tmp/ccbuzvWS.s:1088   .text:000000000000022c .L0 
     /tmp/ccbuzvWS.s:1091   .text:000000000000022c .L0 
     /tmp/ccbuzvWS.s:1092   .text:000000000000022c .L0 
     /tmp/ccbuzvWS.s:1097   .text:0000000000000234 .L0 
     /tmp/ccbuzvWS.s:1098   .text:0000000000000234 .L0 
     /tmp/ccbuzvWS.s:1102   .text:0000000000000244 .L0 
     /tmp/ccbuzvWS.s:1103   .text:0000000000000244 .L0 
     /tmp/ccbuzvWS.s:1109   .text:0000000000000258 .L0 
     /tmp/ccbuzvWS.s:1110   .text:0000000000000258 .L0 
     /tmp/ccbuzvWS.s:1114   .text:0000000000000268 .L0 
     /tmp/ccbuzvWS.s:1120   .text:0000000000000270 .L0 
     /tmp/ccbuzvWS.s:1121   .text:0000000000000270 .L0 
     /tmp/ccbuzvWS.s:1124   .text:0000000000000278 .L0 
     /tmp/ccbuzvWS.s:1125   .text:0000000000000278 .L0 
     /tmp/ccbuzvWS.s:1129   .text:0000000000000288 .L0 
test/Threads_CPP_API_test.cpp:88     .text:0000000000000288 .L0 
     /tmp/ccbuzvWS.s:1135   .text:000000000000028c .L0 
     /tmp/ccbuzvWS.s:1137   .text:000000000000028c .L0 
     /tmp/ccbuzvWS.s:1140   .text:0000000000000294 .L0 
     /tmp/ccbuzvWS.s:1141   .text:0000000000000294 .L0 
test/Threads_CPP_API_test.cpp:92     .text:0000000000000294 .L0 
     /tmp/ccbuzvWS.s:1148   .text:0000000000000298 .L0 
     /tmp/ccbuzvWS.s:1150   .text:0000000000000298 .L0 
     /tmp/ccbuzvWS.s:1154   .text:00000000000002a8 .L0 
     /tmp/ccbuzvWS.s:1155   .text:00000000000002a8 .L0 
     /tmp/ccbuzvWS.s:1161   .text:00000000000002bc .L0 
     /tmp/ccbuzvWS.s:1162   .text:00000000000002bc .L0 
     /tmp/ccbuzvWS.s:1166   .text:00000000000002cc .L0 
     /tmp/ccbuzvWS.s:1167   .text:00000000000002cc .L0 
     /tmp/ccbuzvWS.s:1173   .text:00000000000002dc .L0 
     /tmp/ccbuzvWS.s:1174   .text:00000000000002dc .L0 
     /tmp/ccbuzvWS.s:1179   .text:00000000000002ec .L0 
     /tmp/ccbuzvWS.s:1180   .text:00000000000002ec .L0 
     /tmp/ccbuzvWS.s:1186   .text:0000000000000300 .L0 
     /tmp/ccbuzvWS.s:1187   .text:0000000000000300 .L0 
     /tmp/ccbuzvWS.s:1193   .text:0000000000000314 .L0 
     /tmp/ccbuzvWS.s:1194   .text:0000000000000314 .L0 
     /tmp/ccbuzvWS.s:1198   .text:0000000000000324 .L0 
     /tmp/ccbuzvWS.s:1199   .text:0000000000000324 .L0 
GAS LISTING /tmp/ccbuzvWS.s 			page 49


     /tmp/ccbuzvWS.s:1205   .text:0000000000000338 .L0 
     /tmp/ccbuzvWS.s:1206   .text:0000000000000338 .L0 
     /tmp/ccbuzvWS.s:1210   .text:0000000000000348 .L0 
     /tmp/ccbuzvWS.s:1216   .text:0000000000000350 .L0 
     /tmp/ccbuzvWS.s:1217   .text:0000000000000350 .L0 
     /tmp/ccbuzvWS.s:1220   .text:0000000000000358 .L0 
     /tmp/ccbuzvWS.s:1221   .text:0000000000000358 .L0 
     /tmp/ccbuzvWS.s:1225   .text:0000000000000368 .L0 
     /tmp/ccbuzvWS.s:1226   .text:0000000000000368 .L0 
     /tmp/ccbuzvWS.s:1826   .sbss:0000000000000001 _ZL9finishedC
     /tmp/ccbuzvWS.s:1229   .text:0000000000000374 .L0 
     /tmp/ccbuzvWS.s:1230   .text:0000000000000374 .L0 
     /tmp/ccbuzvWS.s:1233   .text:000000000000037c .L0 
     /tmp/ccbuzvWS.s:1234   .text:0000000000000380 .L0 
     /tmp/ccbuzvWS.s:1236   .text:0000000000000384 .L0 
     /tmp/ccbuzvWS.s:1237   .text:0000000000000384 .L0 
     /tmp/ccbuzvWS.s:1239   .text:0000000000000388 .L0 
     /tmp/ccbuzvWS.s:1242   .text:000000000000038c .L0 
     /tmp/ccbuzvWS.s:1245   .text:0000000000000390 .L0 
     /tmp/ccbuzvWS.s:1247   .text:0000000000000394 .L0 
     /tmp/ccbuzvWS.s:1254   .text._ZN7WorkerC3runEv:0000000000000000 _ZN7WorkerC3runEv
     /tmp/ccbuzvWS.s:1257   .text._ZN7WorkerC3runEv:0000000000000000 .L0 
     /tmp/ccbuzvWS.s:1259   .text._ZN7WorkerC3runEv:0000000000000000 .L0 
     /tmp/ccbuzvWS.s:1260   .text._ZN7WorkerC3runEv:0000000000000004 .L0 
     /tmp/ccbuzvWS.s:1263   .text._ZN7WorkerC3runEv:000000000000000c .L0 
     /tmp/ccbuzvWS.s:1264   .text._ZN7WorkerC3runEv:000000000000000c .L0 
     /tmp/ccbuzvWS.s:1266   .text._ZN7WorkerC3runEv:0000000000000010 .L0 
     /tmp/ccbuzvWS.s:1268   .text._ZN7WorkerC3runEv:0000000000000010 .L0 
     /tmp/ccbuzvWS.s:1269   .text._ZN7WorkerC3runEv:0000000000000010 .L0 
     /tmp/ccbuzvWS.s:1273   .text._ZN7WorkerC3runEv:000000000000001c .L0 
     /tmp/ccbuzvWS.s:1274   .text._ZN7WorkerC3runEv:0000000000000020 .L0 
     /tmp/ccbuzvWS.s:1276   .text._ZN7WorkerC3runEv:0000000000000024 .L0 
     /tmp/ccbuzvWS.s:1277   .text._ZN7WorkerC3runEv:0000000000000024 .L0 
     /tmp/ccbuzvWS.s:1279   .text._ZN7WorkerC3runEv:0000000000000028 .L0 
     /tmp/ccbuzvWS.s:1281   .text._ZN7WorkerC3runEv:000000000000002c .L0 
     /tmp/ccbuzvWS.s:1301   .text:0000000000000394 _ZN7WorkerD11workerBodyDEPv
     /tmp/ccbuzvWS.s:1304   .text:0000000000000394 .L0 
     /tmp/ccbuzvWS.s:1306   .text:0000000000000394 .L0 
     /tmp/ccbuzvWS.s:1307   .text:0000000000000398 .L0 
     /tmp/ccbuzvWS.s:1312   .text:00000000000003a8 .L0 
     /tmp/ccbuzvWS.s:1313   .text:00000000000003a8 .L0 
     /tmp/ccbuzvWS.s:1314   .text:00000000000003a8 .L0 
     /tmp/ccbuzvWS.s:1315   .text:00000000000003a8 .L0 
     /tmp/ccbuzvWS.s:1317   .text:00000000000003ac .L0 
     /tmp/ccbuzvWS.s:1320   .text:00000000000003ac .L0 
     /tmp/ccbuzvWS.s:1321   .text:00000000000003ac .L0 
     /tmp/ccbuzvWS.s:1326   .text:00000000000003b4 .L0 
     /tmp/ccbuzvWS.s:1327   .text:00000000000003b4 .L0 
     /tmp/ccbuzvWS.s:1331   .text:00000000000003c4 .L0 
     /tmp/ccbuzvWS.s:1332   .text:00000000000003c4 .L0 
     /tmp/ccbuzvWS.s:1338   .text:00000000000003d8 .L0 
     /tmp/ccbuzvWS.s:1339   .text:00000000000003d8 .L0 
     /tmp/ccbuzvWS.s:1343   .text:00000000000003e8 .L0 
     /tmp/ccbuzvWS.s:1349   .text:00000000000003f0 .L0 
     /tmp/ccbuzvWS.s:1350   .text:00000000000003f0 .L0 
     /tmp/ccbuzvWS.s:1353   .text:00000000000003f8 .L0 
     /tmp/ccbuzvWS.s:1354   .text:00000000000003f8 .L0 
GAS LISTING /tmp/ccbuzvWS.s 			page 50


     /tmp/ccbuzvWS.s:1358   .text:0000000000000408 .L0 
test/Threads_CPP_API_test.cpp:115    .text:0000000000000408 .L0 
     /tmp/ccbuzvWS.s:1364   .text:000000000000040c .L0 
     /tmp/ccbuzvWS.s:1366   .text:000000000000040c .L0 
     /tmp/ccbuzvWS.s:1369   .text:0000000000000414 .L0 
     /tmp/ccbuzvWS.s:1370   .text:0000000000000414 .L0 
     /tmp/ccbuzvWS.s:1376   .text:0000000000000424 .L0 
     /tmp/ccbuzvWS.s:1377   .text:0000000000000424 .L0 
     /tmp/ccbuzvWS.s:1382   .text:0000000000000434 .L0 
     /tmp/ccbuzvWS.s:1383   .text:0000000000000434 .L0 
     /tmp/ccbuzvWS.s:1389   .text:0000000000000448 .L0 
     /tmp/ccbuzvWS.s:1390   .text:0000000000000448 .L0 
     /tmp/ccbuzvWS.s:1396   .text:000000000000045c .L0 
     /tmp/ccbuzvWS.s:1397   .text:000000000000045c .L0 
     /tmp/ccbuzvWS.s:1401   .text:000000000000046c .L0 
     /tmp/ccbuzvWS.s:1402   .text:000000000000046c .L0 
     /tmp/ccbuzvWS.s:1408   .text:0000000000000480 .L0 
     /tmp/ccbuzvWS.s:1409   .text:0000000000000480 .L0 
     /tmp/ccbuzvWS.s:1413   .text:0000000000000490 .L0 
     /tmp/ccbuzvWS.s:1419   .text:0000000000000498 .L0 
     /tmp/ccbuzvWS.s:1420   .text:0000000000000498 .L0 
     /tmp/ccbuzvWS.s:1423   .text:00000000000004a0 .L0 
     /tmp/ccbuzvWS.s:1424   .text:00000000000004a0 .L0 
     /tmp/ccbuzvWS.s:1428   .text:00000000000004b0 .L0 
     /tmp/ccbuzvWS.s:1429   .text:00000000000004b0 .L0 
     /tmp/ccbuzvWS.s:1822   .sbss:0000000000000000 _ZL9finishedD
     /tmp/ccbuzvWS.s:1432   .text:00000000000004bc .L0 
     /tmp/ccbuzvWS.s:1433   .text:00000000000004bc .L0 
     /tmp/ccbuzvWS.s:1436   .text:00000000000004c4 .L0 
     /tmp/ccbuzvWS.s:1437   .text:00000000000004c8 .L0 
     /tmp/ccbuzvWS.s:1439   .text:00000000000004cc .L0 
     /tmp/ccbuzvWS.s:1440   .text:00000000000004cc .L0 
     /tmp/ccbuzvWS.s:1442   .text:00000000000004d0 .L0 
     /tmp/ccbuzvWS.s:1445   .text:00000000000004d4 .L0 
     /tmp/ccbuzvWS.s:1448   .text:00000000000004d8 .L0 
     /tmp/ccbuzvWS.s:1450   .text:00000000000004dc .L0 
     /tmp/ccbuzvWS.s:1457   .text._ZN7WorkerD3runEv:0000000000000000 _ZN7WorkerD3runEv
     /tmp/ccbuzvWS.s:1460   .text._ZN7WorkerD3runEv:0000000000000000 .L0 
     /tmp/ccbuzvWS.s:1462   .text._ZN7WorkerD3runEv:0000000000000000 .L0 
     /tmp/ccbuzvWS.s:1463   .text._ZN7WorkerD3runEv:0000000000000004 .L0 
     /tmp/ccbuzvWS.s:1466   .text._ZN7WorkerD3runEv:000000000000000c .L0 
     /tmp/ccbuzvWS.s:1467   .text._ZN7WorkerD3runEv:000000000000000c .L0 
     /tmp/ccbuzvWS.s:1469   .text._ZN7WorkerD3runEv:0000000000000010 .L0 
     /tmp/ccbuzvWS.s:1471   .text._ZN7WorkerD3runEv:0000000000000010 .L0 
     /tmp/ccbuzvWS.s:1472   .text._ZN7WorkerD3runEv:0000000000000010 .L0 
     /tmp/ccbuzvWS.s:1476   .text._ZN7WorkerD3runEv:000000000000001c .L0 
     /tmp/ccbuzvWS.s:1477   .text._ZN7WorkerD3runEv:0000000000000020 .L0 
     /tmp/ccbuzvWS.s:1479   .text._ZN7WorkerD3runEv:0000000000000024 .L0 
     /tmp/ccbuzvWS.s:1480   .text._ZN7WorkerD3runEv:0000000000000024 .L0 
     /tmp/ccbuzvWS.s:1482   .text._ZN7WorkerD3runEv:0000000000000028 .L0 
     /tmp/ccbuzvWS.s:1484   .text._ZN7WorkerD3runEv:000000000000002c .L0 
     /tmp/ccbuzvWS.s:1507   .text:00000000000004dc _Z20Threads_CPP_API_testv
     /tmp/ccbuzvWS.s:1510   .text:00000000000004dc .L0 
     /tmp/ccbuzvWS.s:1511   .text:00000000000004dc .L0 
     /tmp/ccbuzvWS.s:1512   .text:00000000000004e0 .L0 
     /tmp/ccbuzvWS.s:1517   .text:00000000000004f0 .L0 
     /tmp/ccbuzvWS.s:1518   .text:00000000000004f0 .L0 
GAS LISTING /tmp/ccbuzvWS.s 			page 51


     /tmp/ccbuzvWS.s:1519   .text:00000000000004f0 .L0 
     /tmp/ccbuzvWS.s:1520   .text:00000000000004f0 .L0 
     /tmp/ccbuzvWS.s:1522   .text:00000000000004f4 .L0 
     /tmp/ccbuzvWS.s:1524   .text:00000000000004f4 .L0 
     /tmp/ccbuzvWS.s:1525   .text:00000000000004f4 .L0 
     /tmp/ccbuzvWS.s:1526   .text:00000000000004f4 .L0 
     /tmp/ccbuzvWS.s:1534   .text:0000000000000500 .L0 
     /tmp/ccbuzvWS.s:1780   .rodata._ZTV7WorkerA:0000000000000000 _ZTV7WorkerA
     /tmp/ccbuzvWS.s:1539   .text:0000000000000504 .L0 
     /tmp/ccbuzvWS.s:1545   .text:0000000000000510 .L0 
     /tmp/ccbuzvWS.s:1547   .text:0000000000000514 .L0 
     /tmp/ccbuzvWS.s:1548   .text:0000000000000514 .L0 
     /tmp/ccbuzvWS.s:1552   .text:0000000000000524 .L0 
     /tmp/ccbuzvWS.s:1553   .text:0000000000000524 .L0 
     /tmp/ccbuzvWS.s:1561   .text:0000000000000530 .L0 
     /tmp/ccbuzvWS.s:1791   .rodata._ZTV7WorkerB:0000000000000000 _ZTV7WorkerB
     /tmp/ccbuzvWS.s:1566   .text:0000000000000534 .L0 
     /tmp/ccbuzvWS.s:1572   .text:0000000000000540 .L0 
     /tmp/ccbuzvWS.s:1574   .text:0000000000000544 .L0 
     /tmp/ccbuzvWS.s:1575   .text:0000000000000544 .L0 
     /tmp/ccbuzvWS.s:1579   .text:0000000000000554 .L0 
     /tmp/ccbuzvWS.s:1580   .text:0000000000000554 .L0 
     /tmp/ccbuzvWS.s:1588   .text:0000000000000560 .L0 
     /tmp/ccbuzvWS.s:1802   .rodata._ZTV7WorkerC:0000000000000000 _ZTV7WorkerC
     /tmp/ccbuzvWS.s:1593   .text:0000000000000564 .L0 
     /tmp/ccbuzvWS.s:1599   .text:0000000000000570 .L0 
     /tmp/ccbuzvWS.s:1601   .text:0000000000000574 .L0 
     /tmp/ccbuzvWS.s:1602   .text:0000000000000574 .L0 
     /tmp/ccbuzvWS.s:1606   .text:0000000000000584 .L0 
     /tmp/ccbuzvWS.s:1607   .text:0000000000000584 .L0 
     /tmp/ccbuzvWS.s:1615   .text:0000000000000590 .L0 
     /tmp/ccbuzvWS.s:1813   .rodata._ZTV7WorkerD:0000000000000000 _ZTV7WorkerD
     /tmp/ccbuzvWS.s:1620   .text:0000000000000594 .L0 
     /tmp/ccbuzvWS.s:1626   .text:00000000000005a0 .L0 
     /tmp/ccbuzvWS.s:1628   .text:00000000000005a4 .L0 
     /tmp/ccbuzvWS.s:1629   .text:00000000000005a4 .L0 
     /tmp/ccbuzvWS.s:1634   .text:00000000000005b4 .L0 
     /tmp/ccbuzvWS.s:1641   .text:00000000000005bc .L0 
     /tmp/ccbuzvWS.s:1642   .text:00000000000005bc .L0 
     /tmp/ccbuzvWS.s:1652   .text:00000000000005d4 .L0 
     /tmp/ccbuzvWS.s:1653   .text:00000000000005d4 .L0 
     /tmp/ccbuzvWS.s:1657   .text:00000000000005d8 .L0 
     /tmp/ccbuzvWS.s:1660   .text:00000000000005e0 .L0 
     /tmp/ccbuzvWS.s:1661   .text:00000000000005e0 .L0 
     /tmp/ccbuzvWS.s:1669   .text:00000000000005f0 .L0 
     /tmp/ccbuzvWS.s:1670   .text:00000000000005f0 .L0 
     /tmp/ccbuzvWS.s:1672   .text:00000000000005f4 .L0 
     /tmp/ccbuzvWS.s:1674   .text:00000000000005f8 .L0 
     /tmp/ccbuzvWS.s:1675   .text:00000000000005f8 .L0 
     /tmp/ccbuzvWS.s:1688   .text:000000000000060c .L0 
     /tmp/ccbuzvWS.s:1689   .text:000000000000060c .L0 
     /tmp/ccbuzvWS.s:1690   .text:000000000000060c .L0 
     /tmp/ccbuzvWS.s:1696   .text:0000000000000614 .L0 
     /tmp/ccbuzvWS.s:1697   .text:0000000000000614 .L0 
     /tmp/ccbuzvWS.s:1698   .text:0000000000000614 .L0 
     /tmp/ccbuzvWS.s:1700   .text:000000000000061c .L0 
     /tmp/ccbuzvWS.s:1702   .text:0000000000000620 .L0 
GAS LISTING /tmp/ccbuzvWS.s 			page 52


     /tmp/ccbuzvWS.s:1704   .text:0000000000000628 .L0 
     /tmp/ccbuzvWS.s:1706   .text:000000000000062c .L0 
     /tmp/ccbuzvWS.s:1708   .text:0000000000000634 .L0 
     /tmp/ccbuzvWS.s:1710   .text:0000000000000638 .L0 
     /tmp/ccbuzvWS.s:1712   .text:0000000000000640 .L0 
     /tmp/ccbuzvWS.s:1720   .text:000000000000064c .L0 
     /tmp/ccbuzvWS.s:1724   .text:0000000000000650 .L0 
     /tmp/ccbuzvWS.s:1727   .text:0000000000000658 .L0 
     /tmp/ccbuzvWS.s:1730   .text:000000000000065c .L0 
     /tmp/ccbuzvWS.s:1731   .text:000000000000065c .L0 
     /tmp/ccbuzvWS.s:1735   .text:000000000000066c .L0 
     /tmp/ccbuzvWS.s:1736   .text:000000000000066c .L0 
     /tmp/ccbuzvWS.s:1738   .text:0000000000000670 .L0 
     /tmp/ccbuzvWS.s:1748   .text:0000000000000684 .L0 
     /tmp/ccbuzvWS.s:1749   .text:0000000000000688 .L0 
     /tmp/ccbuzvWS.s:1751   .text:000000000000068c .L0 
     /tmp/ccbuzvWS.s:1752   .text:000000000000068c .L0 
     /tmp/ccbuzvWS.s:1754   .text:0000000000000690 .L0 
     /tmp/ccbuzvWS.s:1757   .text:0000000000000694 .L0 
     /tmp/ccbuzvWS.s:1759   .text:0000000000000698 .L0 
     /tmp/ccbuzvWS.s:1761   .text:000000000000069c .L0 
     /tmp/ccbuzvWS.s:35     .text._ZN6Thread3runEv:0000000000000018 .L0 
     /tmp/ccbuzvWS.s:78     .text._ZN6Thread13threadWrapperEPv:0000000000000034 .L0 
     /tmp/ccbuzvWS.s:1841   .text:000000000000069c .L0 
     /tmp/ccbuzvWS.s:200    .text._ZN6ThreadD2Ev:0000000000000034 .L0 
     /tmp/ccbuzvWS.s:259    .text._ZN6ThreadD0Ev:000000000000004c .L0 
     /tmp/ccbuzvWS.s:311    .text._ZN7WorkerAD2Ev:0000000000000034 .L0 
     /tmp/ccbuzvWS.s:372    .text._ZN7WorkerAD0Ev:000000000000004c .L0 
     /tmp/ccbuzvWS.s:424    .text._ZN7WorkerBD2Ev:0000000000000034 .L0 
     /tmp/ccbuzvWS.s:485    .text._ZN7WorkerBD0Ev:000000000000004c .L0 
     /tmp/ccbuzvWS.s:537    .text._ZN7WorkerCD2Ev:0000000000000034 .L0 
     /tmp/ccbuzvWS.s:598    .text._ZN7WorkerCD0Ev:000000000000004c .L0 
     /tmp/ccbuzvWS.s:650    .text._ZN7WorkerDD2Ev:0000000000000034 .L0 
     /tmp/ccbuzvWS.s:711    .text._ZN7WorkerDD0Ev:000000000000004c .L0 
     /tmp/ccbuzvWS.s:881    .text._ZN7WorkerA3runEv:000000000000002c .L0 
     /tmp/ccbuzvWS.s:1052   .text._ZN7WorkerB3runEv:000000000000002c .L0 
     /tmp/ccbuzvWS.s:1284   .text._ZN7WorkerC3runEv:000000000000002c .L0 
     /tmp/ccbuzvWS.s:1487   .text._ZN7WorkerD3runEv:000000000000002c .L0 
     /tmp/ccbuzvWS.s:713    .rodata.str1.8:0000000000000000 .LC0
     /tmp/ccbuzvWS.s:796    .text:00000000000000d0 .L0 
     /tmp/ccbuzvWS.s:716    .rodata.str1.8:0000000000000008 .LC1
     /tmp/ccbuzvWS.s:808    .text:00000000000000f4 .L0 
     /tmp/ccbuzvWS.s:719    .rodata.str1.8:0000000000000010 .LC2
     /tmp/ccbuzvWS.s:823    .text:000000000000010c .L0 
     /tmp/ccbuzvWS.s:829    .text:0000000000000120 .L0 
     /tmp/ccbuzvWS.s:883    .rodata.str1.8:0000000000000020 .LC3
     /tmp/ccbuzvWS.s:963    .text:000000000000019c .L0 
     /tmp/ccbuzvWS.s:975    .text:00000000000001c0 .L0 
     /tmp/ccbuzvWS.s:886    .rodata.str1.8:0000000000000028 .LC4
     /tmp/ccbuzvWS.s:990    .text:00000000000001d8 .L0 
     /tmp/ccbuzvWS.s:996    .text:00000000000001ec .L0 
     /tmp/ccbuzvWS.s:1054   .rodata.str1.8:0000000000000038 .LC5
     /tmp/ccbuzvWS.s:1098   .text:0000000000000234 .L0 
     /tmp/ccbuzvWS.s:1110   .text:0000000000000258 .L0 
     /tmp/ccbuzvWS.s:1057   .rodata.str1.8:0000000000000040 .LC6
     /tmp/ccbuzvWS.s:1125   .text:0000000000000278 .L0 
     /tmp/ccbuzvWS.s:1060   .rodata.str1.8:0000000000000050 .LC7
GAS LISTING /tmp/ccbuzvWS.s 			page 53


     /tmp/ccbuzvWS.s:1150   .text:0000000000000298 .L0 
     /tmp/ccbuzvWS.s:1162   .text:00000000000002bc .L0 
     /tmp/ccbuzvWS.s:1063   .rodata.str1.8:0000000000000058 .LC8
     /tmp/ccbuzvWS.s:1174   .text:00000000000002dc .L0 
     /tmp/ccbuzvWS.s:1187   .text:0000000000000300 .L0 
     /tmp/ccbuzvWS.s:1194   .text:0000000000000314 .L0 
     /tmp/ccbuzvWS.s:1206   .text:0000000000000338 .L0 
     /tmp/ccbuzvWS.s:1066   .rodata.str1.8:0000000000000068 .LC9
     /tmp/ccbuzvWS.s:1221   .text:0000000000000358 .L0 
     /tmp/ccbuzvWS.s:1227   .text:000000000000036c .L0 
     /tmp/ccbuzvWS.s:1286   .rodata.str1.8:0000000000000078 .LC10
     /tmp/ccbuzvWS.s:1327   .text:00000000000003b4 .L0 
     /tmp/ccbuzvWS.s:1339   .text:00000000000003d8 .L0 
     /tmp/ccbuzvWS.s:1289   .rodata.str1.8:0000000000000080 .LC11
     /tmp/ccbuzvWS.s:1354   .text:00000000000003f8 .L0 
     /tmp/ccbuzvWS.s:1292   .rodata.str1.8:0000000000000090 .LC12
     /tmp/ccbuzvWS.s:1377   .text:0000000000000424 .L0 
     /tmp/ccbuzvWS.s:1390   .text:0000000000000448 .L0 
     /tmp/ccbuzvWS.s:1397   .text:000000000000045c .L0 
     /tmp/ccbuzvWS.s:1409   .text:0000000000000480 .L0 
     /tmp/ccbuzvWS.s:1295   .rodata.str1.8:00000000000000a0 .LC13
     /tmp/ccbuzvWS.s:1424   .text:00000000000004a0 .L0 
     /tmp/ccbuzvWS.s:1430   .text:00000000000004b4 .L0 
     /tmp/ccbuzvWS.s:1539   .text:0000000000000504 .L0 
     /tmp/ccbuzvWS.s:1489   .rodata.str1.8:00000000000000b0 .LC14
     /tmp/ccbuzvWS.s:1548   .text:0000000000000514 .L0 
     /tmp/ccbuzvWS.s:1566   .text:0000000000000534 .L0 
     /tmp/ccbuzvWS.s:1492   .rodata.str1.8:00000000000000c8 .LC15
     /tmp/ccbuzvWS.s:1575   .text:0000000000000544 .L0 
     /tmp/ccbuzvWS.s:1593   .text:0000000000000564 .L0 
     /tmp/ccbuzvWS.s:1495   .rodata.str1.8:00000000000000e0 .LC16
     /tmp/ccbuzvWS.s:1602   .text:0000000000000574 .L0 
     /tmp/ccbuzvWS.s:1620   .text:0000000000000594 .L0 
     /tmp/ccbuzvWS.s:1498   .rodata.str1.8:00000000000000f8 .LC17
     /tmp/ccbuzvWS.s:1629   .text:00000000000005a4 .L0 
     /tmp/ccbuzvWS.s:1643   .text:00000000000005c0 .L0 
     /tmp/ccbuzvWS.s:1698   .text:0000000000000614 .L0 
     /tmp/ccbuzvWS.s:1702   .text:0000000000000620 .L0 
     /tmp/ccbuzvWS.s:1706   .text:000000000000062c .L0 
     /tmp/ccbuzvWS.s:1710   .text:0000000000000638 .L0 
     /tmp/ccbuzvWS.s:1501   .rodata.str1.8:0000000000000110 .LC18
     /tmp/ccbuzvWS.s:1731   .text:000000000000065c .L0 
     /tmp/ccbuzvWS.s:123    .text:0000000000000050 .L9
     /tmp/ccbuzvWS.s:140    .text:0000000000000068 .L14
     /tmp/ccbuzvWS.s:110    .text:0000000000000030 .L11
     /tmp/ccbuzvWS.s:789    .text:00000000000000c8 .L41
     /tmp/ccbuzvWS.s:781    .text:00000000000000c4 .L37
     /tmp/ccbuzvWS.s:749    .text:0000000000000094 .L38
     /tmp/ccbuzvWS.s:770    .text:00000000000000b0 .L39
     /tmp/ccbuzvWS.s:817    .text:000000000000010c .L36
     /tmp/ccbuzvWS.s:761    .text:00000000000000a0 .L40
     /tmp/ccbuzvWS.s:956    .text:0000000000000194 .L51
     /tmp/ccbuzvWS.s:948    .text:0000000000000190 .L47
     /tmp/ccbuzvWS.s:916    .text:0000000000000160 .L48
     /tmp/ccbuzvWS.s:937    .text:000000000000017c .L49
     /tmp/ccbuzvWS.s:984    .text:00000000000001d8 .L46
     /tmp/ccbuzvWS.s:928    .text:000000000000016c .L50
GAS LISTING /tmp/ccbuzvWS.s 			page 54


     /tmp/ccbuzvWS.s:1118   .text:0000000000000270 .L57
     /tmp/ccbuzvWS.s:1095   .text:0000000000000234 .L61
     /tmp/ccbuzvWS.s:1214   .text:0000000000000350 .L59
     /tmp/ccbuzvWS.s:1191   .text:0000000000000314 .L62
     /tmp/ccbuzvWS.s:1347   .text:00000000000003f0 .L67
     /tmp/ccbuzvWS.s:1324   .text:00000000000003b4 .L71
     /tmp/ccbuzvWS.s:1417   .text:0000000000000498 .L69
     /tmp/ccbuzvWS.s:1394   .text:000000000000045c .L72
     /tmp/ccbuzvWS.s:1655   .text:00000000000005d8 .L79
     /tmp/ccbuzvWS.s:1692   .text:0000000000000614 .L76
     /tmp/ccbuzvWS.s:1637   .text:00000000000005bc .L86
     /tmp/ccbuzvWS.s:1648   .text:00000000000005d4 .L78
     /tmp/ccbuzvWS.s:1681   .text:000000000000060c .L80
     /tmp/ccbuzvWS.s:1722   .text:0000000000000650 .L81
     /tmp/ccbuzvWS.s:1745   .text:0000000000000684 .L75
     /tmp/ccbuzvWS.s:1717   .text:000000000000064c .L83
     /tmp/ccbuzvWS.s:73     .text._ZN6Thread13threadWrapperEPv:0000000000000030 .L6
     /tmp/ccbuzvWS.s:171    .text._ZN6ThreadD2Ev:0000000000000010 .L0 
     /tmp/ccbuzvWS.s:226    .text._ZN6ThreadD0Ev:0000000000000018 .L0 
     /tmp/ccbuzvWS.s:282    .text._ZN7WorkerAD2Ev:0000000000000010 .L0 
     /tmp/ccbuzvWS.s:338    .text._ZN7WorkerAD0Ev:0000000000000018 .L0 
     /tmp/ccbuzvWS.s:395    .text._ZN7WorkerBD2Ev:0000000000000010 .L0 
     /tmp/ccbuzvWS.s:451    .text._ZN7WorkerBD0Ev:0000000000000018 .L0 
     /tmp/ccbuzvWS.s:508    .text._ZN7WorkerCD2Ev:0000000000000010 .L0 
     /tmp/ccbuzvWS.s:564    .text._ZN7WorkerCD0Ev:0000000000000018 .L0 
     /tmp/ccbuzvWS.s:621    .text._ZN7WorkerDD2Ev:0000000000000010 .L0 
     /tmp/ccbuzvWS.s:677    .text._ZN7WorkerDD0Ev:0000000000000018 .L0 
     /tmp/ccbuzvWS.s:4381   .debug_abbrev:0000000000000000 .Ldebug_abbrev0
     /tmp/ccbuzvWS.s:6286   .debug_str:00000000000000a7 .LASF111
     /tmp/ccbuzvWS.s:6292   .debug_str:0000000000000182 .LASF112
     /tmp/ccbuzvWS.s:6340   .debug_str:00000000000002e5 .LASF113
     /tmp/ccbuzvWS.s:6206   .debug_ranges:0000000000000000 .Ldebug_ranges0
     /tmp/ccbuzvWS.s:6262   .debug_line:0000000000000000 .Ldebug_line0
     /tmp/ccbuzvWS.s:6402   .debug_str:00000000000004d7 .LASF0
     /tmp/ccbuzvWS.s:6412   .debug_str:0000000000000515 .LASF1
     /tmp/ccbuzvWS.s:6388   .debug_str:000000000000044e .LASF2
     /tmp/ccbuzvWS.s:6322   .debug_str:000000000000024b .LASF3
     /tmp/ccbuzvWS.s:6358   .debug_str:0000000000000387 .LASF4
     /tmp/ccbuzvWS.s:6450   .debug_str:0000000000000629 .LASF5
     /tmp/ccbuzvWS.s:6288   .debug_str:000000000000016b .LASF6
     /tmp/ccbuzvWS.s:6320   .debug_str:0000000000000244 .LASF7
     /tmp/ccbuzvWS.s:6418   .debug_str:000000000000054b .LASF8
     /tmp/ccbuzvWS.s:6400   .debug_str:00000000000004c4 .LASF9
     /tmp/ccbuzvWS.s:6470   .debug_str:00000000000006b9 .LASF10
     /tmp/ccbuzvWS.s:6338   .debug_str:00000000000002d7 .LASF11
     /tmp/ccbuzvWS.s:6430   .debug_str:000000000000059b .LASF12
     /tmp/ccbuzvWS.s:6466   .debug_str:00000000000006a3 .LASF13
     /tmp/ccbuzvWS.s:6290   .debug_str:0000000000000172 .LASF14
     /tmp/ccbuzvWS.s:6272   .debug_str:0000000000000034 .LASF15
     /tmp/ccbuzvWS.s:6308   .debug_str:00000000000001e4 .LASF16
     /tmp/ccbuzvWS.s:6444   .debug_str:00000000000005f7 .LASF17
     /tmp/ccbuzvWS.s:6316   .debug_str:0000000000000220 .LASF18
     /tmp/ccbuzvWS.s:6354   .debug_str:0000000000000375 .LASF114
     /tmp/ccbuzvWS.s:6264   .debug_str:0000000000000000 .LASF19
     /tmp/ccbuzvWS.s:6436   .debug_str:00000000000005c9 .LASF20
     /tmp/ccbuzvWS.s:6330   .debug_str:000000000000028d .LASF21
     /tmp/ccbuzvWS.s:6356   .debug_str:000000000000037d .LASF22
GAS LISTING /tmp/ccbuzvWS.s 			page 55


     /tmp/ccbuzvWS.s:6274   .debug_str:0000000000000044 .LASF23
     /tmp/ccbuzvWS.s:6360   .debug_str:000000000000038e .LASF24
     /tmp/ccbuzvWS.s:6432   .debug_str:00000000000005aa .LASF25
     /tmp/ccbuzvWS.s:6394   .debug_str:0000000000000491 .LASF26
     /tmp/ccbuzvWS.s:6350   .debug_str:0000000000000358 .LASF27
     /tmp/ccbuzvWS.s:6406   .debug_str:00000000000004f4 .LASF28
     /tmp/ccbuzvWS.s:6278   .debug_str:000000000000005d .LASF46
     /tmp/ccbuzvWS.s:6324   .debug_str:0000000000000251 .LASF32
     /tmp/ccbuzvWS.s:6280   .debug_str:0000000000000079 .LASF37
     /tmp/ccbuzvWS.s:6304   .debug_str:00000000000001d2 .LASF29
     /tmp/ccbuzvWS.s:6392   .debug_str:0000000000000481 .LASF51
     /tmp/ccbuzvWS.s:6468   .debug_str:00000000000006b2 .LASF30
     /tmp/ccbuzvWS.s:6414   .debug_str:0000000000000528 .LASF31
     /tmp/ccbuzvWS.s:6386   .debug_str:0000000000000441 .LASF115
     /tmp/ccbuzvWS.s:6434   .debug_str:00000000000005b2 .LASF33
     /tmp/ccbuzvWS.s:6368   .debug_str:00000000000003b9 .LASF116
     /tmp/ccbuzvWS.s:6408   .debug_str:0000000000000500 .LASF117
     /tmp/ccbuzvWS.s:6410   .debug_str:000000000000050f .LASF81
     /tmp/ccbuzvWS.s:6490   .debug_str:0000000000000749 .LASF83
     /tmp/ccbuzvWS.s:6492   .debug_str:000000000000075c .LASF118
     /tmp/ccbuzvWS.s:6334   .debug_str:00000000000002a7 .LASF119
     /tmp/ccbuzvWS.s:6508   .debug_str:00000000000007e4 .LASF34
     /tmp/ccbuzvWS.s:6342   .debug_str:0000000000000310 .LASF35
     /tmp/ccbuzvWS.s:6442   .debug_str:00000000000005e8 .LASF36
     /tmp/ccbuzvWS.s:6380   .debug_str:0000000000000412 .LASF38
     /tmp/ccbuzvWS.s:6384   .debug_str:0000000000000433 .LASF39
     /tmp/ccbuzvWS.s:6370   .debug_str:00000000000003c1 .LASF120
     /tmp/ccbuzvWS.s:6452   .debug_str:000000000000063b .LASF40
     /tmp/ccbuzvWS.s:6364   .debug_str:00000000000003a8 .LASF41
     /tmp/ccbuzvWS.s:6480   .debug_str:0000000000000702 .LASF42
     /tmp/ccbuzvWS.s:6502   .debug_str:00000000000007b0 .LASF43
     /tmp/ccbuzvWS.s:6270   .debug_str:0000000000000021 .LASF44
     /tmp/ccbuzvWS.s:6282   .debug_str:000000000000008b .LASF45
     /tmp/ccbuzvWS.s:6326   .debug_str:0000000000000261 .LASF47
     /tmp/ccbuzvWS.s:6482   .debug_str:000000000000070a .LASF48
     /tmp/ccbuzvWS.s:6396   .debug_str:00000000000004a3 .LASF49
     /tmp/ccbuzvWS.s:6302   .debug_str:00000000000001c9 .LASF50
     /tmp/ccbuzvWS.s:6310   .debug_str:00000000000001f0 .LASF52
     /tmp/ccbuzvWS.s:6428   .debug_str:0000000000000593 .LASF53
     /tmp/ccbuzvWS.s:6374   .debug_str:00000000000003e8 .LASF54
     /tmp/ccbuzvWS.s:6484   .debug_str:000000000000071a .LASF55
     /tmp/ccbuzvWS.s:6268   .debug_str:0000000000000015 .LASF56
     /tmp/ccbuzvWS.s:6498   .debug_str:0000000000000788 .LASF57
     /tmp/ccbuzvWS.s:6404   .debug_str:00000000000004e4 .LASF58
     /tmp/ccbuzvWS.s:6506   .debug_str:00000000000007d2 .LASF59
     /tmp/ccbuzvWS.s:6300   .debug_str:00000000000001c0 .LASF60
     /tmp/ccbuzvWS.s:6460   .debug_str:0000000000000674 .LASF61
     /tmp/ccbuzvWS.s:6426   .debug_str:000000000000058b .LASF62
     /tmp/ccbuzvWS.s:6478   .debug_str:00000000000006f0 .LASF63
     /tmp/ccbuzvWS.s:6344   .debug_str:0000000000000323 .LASF64
     /tmp/ccbuzvWS.s:6266   .debug_str:0000000000000009 .LASF65
     /tmp/ccbuzvWS.s:6424   .debug_str:000000000000056f .LASF66
     /tmp/ccbuzvWS.s:6464   .debug_str:0000000000000693 .LASF67
     /tmp/ccbuzvWS.s:6376   .debug_str:00000000000003fa .LASF68
     /tmp/ccbuzvWS.s:6298   .debug_str:00000000000001b7 .LASF69
     /tmp/ccbuzvWS.s:6382   .debug_str:0000000000000423 .LASF70
     /tmp/ccbuzvWS.s:6472   .debug_str:00000000000006c9 .LASF121
GAS LISTING /tmp/ccbuzvWS.s 			page 56


     /tmp/ccbuzvWS.s:6438   .debug_str:00000000000005d3 .LASF71
     /tmp/ccbuzvWS.s:6352   .debug_str:000000000000036b .LASF72
     /tmp/ccbuzvWS.s:6486   .debug_str:000000000000072d .LASF73
     /tmp/ccbuzvWS.s:316    .text._ZN7WorkerAD0Ev:0000000000000000 .LFB69
     /tmp/ccbuzvWS.s:363    .text._ZN7WorkerAD0Ev:000000000000004c .LFE69
     /tmp/ccbuzvWS.s:5422   .debug_loc:0000000000000000 .LLST8
     /tmp/ccbuzvWS.s:334    .text._ZN7WorkerAD0Ev:0000000000000018 .LBB90
     /tmp/ccbuzvWS.s:346    .text._ZN7WorkerAD0Ev:000000000000002c .LBE90
     /tmp/ccbuzvWS.s:5440   .debug_loc:000000000000004c .LLST9
     /tmp/ccbuzvWS.s:335    .text._ZN7WorkerAD0Ev:0000000000000018 .LBB91
     /tmp/ccbuzvWS.s:345    .text._ZN7WorkerAD0Ev:000000000000002c .LBE91
     /tmp/ccbuzvWS.s:343    .text._ZN7WorkerAD0Ev:000000000000002c .LVL23
     /tmp/ccbuzvWS.s:350    .text._ZN7WorkerAD0Ev:0000000000000038 .LVL24
     /tmp/ccbuzvWS.s:6440   .debug_str:00000000000005d8 .LASF74
     /tmp/ccbuzvWS.s:264    .text._ZN7WorkerAD2Ev:0000000000000000 .LFB67
     /tmp/ccbuzvWS.s:300    .text._ZN7WorkerAD2Ev:0000000000000034 .LFE67
     /tmp/ccbuzvWS.s:5451   .debug_loc:0000000000000082 .LLST6
     /tmp/ccbuzvWS.s:279    .text._ZN7WorkerAD2Ev:0000000000000010 .LBB88
     /tmp/ccbuzvWS.s:289    .text._ZN7WorkerAD2Ev:0000000000000024 .LBE88
     /tmp/ccbuzvWS.s:5465   .debug_loc:00000000000000bb .LLST7
     /tmp/ccbuzvWS.s:287    .text._ZN7WorkerAD2Ev:0000000000000024 .LVL20
     /tmp/ccbuzvWS.s:6328   .debug_str:000000000000027d .LASF75
     /tmp/ccbuzvWS.s:429    .text._ZN7WorkerBD0Ev:0000000000000000 .LFB65
     /tmp/ccbuzvWS.s:476    .text._ZN7WorkerBD0Ev:000000000000004c .LFE65
     /tmp/ccbuzvWS.s:5479   .debug_loc:00000000000000f4 .LLST13
     /tmp/ccbuzvWS.s:447    .text._ZN7WorkerBD0Ev:0000000000000018 .LBB95
     /tmp/ccbuzvWS.s:459    .text._ZN7WorkerBD0Ev:000000000000002c .LBE95
     /tmp/ccbuzvWS.s:5497   .debug_loc:0000000000000140 .LLST14
     /tmp/ccbuzvWS.s:448    .text._ZN7WorkerBD0Ev:0000000000000018 .LBB96
     /tmp/ccbuzvWS.s:458    .text._ZN7WorkerBD0Ev:000000000000002c .LBE96
     /tmp/ccbuzvWS.s:456    .text._ZN7WorkerBD0Ev:000000000000002c .LVL31
     /tmp/ccbuzvWS.s:463    .text._ZN7WorkerBD0Ev:0000000000000038 .LVL32
     /tmp/ccbuzvWS.s:6504   .debug_str:00000000000007c2 .LASF76
     /tmp/ccbuzvWS.s:377    .text._ZN7WorkerBD2Ev:0000000000000000 .LFB63
     /tmp/ccbuzvWS.s:413    .text._ZN7WorkerBD2Ev:0000000000000034 .LFE63
     /tmp/ccbuzvWS.s:5508   .debug_loc:0000000000000176 .LLST11
     /tmp/ccbuzvWS.s:392    .text._ZN7WorkerBD2Ev:0000000000000010 .LBB93
     /tmp/ccbuzvWS.s:402    .text._ZN7WorkerBD2Ev:0000000000000024 .LBE93
     /tmp/ccbuzvWS.s:5522   .debug_loc:00000000000001af .LLST12
     /tmp/ccbuzvWS.s:400    .text._ZN7WorkerBD2Ev:0000000000000024 .LVL28
     /tmp/ccbuzvWS.s:6314   .debug_str:0000000000000210 .LASF77
     /tmp/ccbuzvWS.s:542    .text._ZN7WorkerCD0Ev:0000000000000000 .LFB61
     /tmp/ccbuzvWS.s:589    .text._ZN7WorkerCD0Ev:000000000000004c .LFE61
     /tmp/ccbuzvWS.s:5536   .debug_loc:00000000000001e8 .LLST18
     /tmp/ccbuzvWS.s:560    .text._ZN7WorkerCD0Ev:0000000000000018 .LBB100
     /tmp/ccbuzvWS.s:572    .text._ZN7WorkerCD0Ev:000000000000002c .LBE100
     /tmp/ccbuzvWS.s:5554   .debug_loc:0000000000000234 .LLST19
     /tmp/ccbuzvWS.s:561    .text._ZN7WorkerCD0Ev:0000000000000018 .LBB101
     /tmp/ccbuzvWS.s:571    .text._ZN7WorkerCD0Ev:000000000000002c .LBE101
     /tmp/ccbuzvWS.s:569    .text._ZN7WorkerCD0Ev:000000000000002c .LVL39
     /tmp/ccbuzvWS.s:576    .text._ZN7WorkerCD0Ev:0000000000000038 .LVL40
     /tmp/ccbuzvWS.s:6362   .debug_str:0000000000000398 .LASF78
     /tmp/ccbuzvWS.s:490    .text._ZN7WorkerCD2Ev:0000000000000000 .LFB59
     /tmp/ccbuzvWS.s:526    .text._ZN7WorkerCD2Ev:0000000000000034 .LFE59
     /tmp/ccbuzvWS.s:5565   .debug_loc:000000000000026a .LLST16
     /tmp/ccbuzvWS.s:505    .text._ZN7WorkerCD2Ev:0000000000000010 .LBB98
     /tmp/ccbuzvWS.s:515    .text._ZN7WorkerCD2Ev:0000000000000024 .LBE98
GAS LISTING /tmp/ccbuzvWS.s 			page 57


     /tmp/ccbuzvWS.s:5579   .debug_loc:00000000000002a3 .LLST17
     /tmp/ccbuzvWS.s:513    .text._ZN7WorkerCD2Ev:0000000000000024 .LVL36
     /tmp/ccbuzvWS.s:6496   .debug_str:0000000000000778 .LASF79
     /tmp/ccbuzvWS.s:655    .text._ZN7WorkerDD0Ev:0000000000000000 .LFB57
     /tmp/ccbuzvWS.s:702    .text._ZN7WorkerDD0Ev:000000000000004c .LFE57
     /tmp/ccbuzvWS.s:5593   .debug_loc:00000000000002dc .LLST23
     /tmp/ccbuzvWS.s:673    .text._ZN7WorkerDD0Ev:0000000000000018 .LBB105
     /tmp/ccbuzvWS.s:685    .text._ZN7WorkerDD0Ev:000000000000002c .LBE105
     /tmp/ccbuzvWS.s:5611   .debug_loc:0000000000000328 .LLST24
     /tmp/ccbuzvWS.s:674    .text._ZN7WorkerDD0Ev:0000000000000018 .LBB106
     /tmp/ccbuzvWS.s:684    .text._ZN7WorkerDD0Ev:000000000000002c .LBE106
     /tmp/ccbuzvWS.s:682    .text._ZN7WorkerDD0Ev:000000000000002c .LVL47
     /tmp/ccbuzvWS.s:689    .text._ZN7WorkerDD0Ev:0000000000000038 .LVL48
     /tmp/ccbuzvWS.s:6448   .debug_str:0000000000000619 .LASF80
     /tmp/ccbuzvWS.s:603    .text._ZN7WorkerDD2Ev:0000000000000000 .LFB55
     /tmp/ccbuzvWS.s:639    .text._ZN7WorkerDD2Ev:0000000000000034 .LFE55
     /tmp/ccbuzvWS.s:5622   .debug_loc:000000000000035e .LLST21
     /tmp/ccbuzvWS.s:618    .text._ZN7WorkerDD2Ev:0000000000000010 .LBB103
     /tmp/ccbuzvWS.s:628    .text._ZN7WorkerDD2Ev:0000000000000024 .LBE103
     /tmp/ccbuzvWS.s:5636   .debug_loc:0000000000000397 .LLST22
     /tmp/ccbuzvWS.s:626    .text._ZN7WorkerDD2Ev:0000000000000024 .LVL44
     /tmp/ccbuzvWS.s:6348   .debug_str:0000000000000343 .LASF82
     /tmp/ccbuzvWS.s:6336   .debug_str:00000000000002bd .LASF84
     /tmp/ccbuzvWS.s:1508   .text:00000000000004dc .LFB53
     /tmp/ccbuzvWS.s:1762   .text:000000000000069c .LFE53
     /tmp/ccbuzvWS.s:6474   .debug_str:00000000000006d9 .LASF85
     /tmp/ccbuzvWS.s:1632   .text:00000000000005b4 .LBB166
     /tmp/ccbuzvWS.s:1684   .text:000000000000060c .LBE166
     /tmp/ccbuzvWS.s:5650   .debug_loc:00000000000003d0 .LLST57
     /tmp/ccbuzvWS.s:1638   .text:00000000000005bc .LBB167
     /tmp/ccbuzvWS.s:5657   .debug_loc:00000000000003f3 .LLST58
     /tmp/ccbuzvWS.s:1647   .text:00000000000005d4 .LVL161
     /tmp/ccbuzvWS.s:1679   .text:0000000000000608 .LVL165
     /tmp/ccbuzvWS.s:1718   .text:000000000000064c .LBB173
     /tmp/ccbuzvWS.s:1746   .text:0000000000000684 .LBE173
     /tmp/ccbuzvWS.s:6422   .debug_str:0000000000000568 .LASF86
     /tmp/ccbuzvWS.s:5678   .debug_loc:0000000000000451 .LLST59
     /tmp/ccbuzvWS.s:6488   .debug_str:000000000000073d .LASF87
     /tmp/ccbuzvWS.s:6446   .debug_str:000000000000060d .LASF122
     /tmp/ccbuzvWS.s:5689   .debug_loc:0000000000000487 .LLST60
     /tmp/ccbuzvWS.s:6372   .debug_str:00000000000003de .LASF88
     /tmp/ccbuzvWS.s:1733   .text:000000000000066c .LVL171
     /tmp/ccbuzvWS.s:1742   .text:0000000000000680 .LVL172
     /tmp/ccbuzvWS.s:1529   .text:0000000000000500 .LBB150
     /tmp/ccbuzvWS.s:1543   .text:0000000000000510 .LBE150
     /tmp/ccbuzvWS.s:5696   .debug_loc:00000000000004aa .LLST49
     /tmp/ccbuzvWS.s:1531   .text:0000000000000500 .LBB152
     /tmp/ccbuzvWS.s:1537   .text:0000000000000504 .LBE152
     /tmp/ccbuzvWS.s:5703   .debug_loc:00000000000004cd .LLST50
     /tmp/ccbuzvWS.s:1556   .text:0000000000000530 .LBB154
     /tmp/ccbuzvWS.s:1570   .text:0000000000000540 .LBE154
     /tmp/ccbuzvWS.s:5710   .debug_loc:00000000000004f0 .LLST51
     /tmp/ccbuzvWS.s:1558   .text:0000000000000530 .LBB156
     /tmp/ccbuzvWS.s:1564   .text:0000000000000534 .LBE156
     /tmp/ccbuzvWS.s:5717   .debug_loc:0000000000000513 .LLST52
     /tmp/ccbuzvWS.s:1583   .text:0000000000000560 .LBB158
     /tmp/ccbuzvWS.s:1597   .text:0000000000000570 .LBE158
GAS LISTING /tmp/ccbuzvWS.s 			page 58


     /tmp/ccbuzvWS.s:5724   .debug_loc:0000000000000536 .LLST53
     /tmp/ccbuzvWS.s:1585   .text:0000000000000560 .LBB160
     /tmp/ccbuzvWS.s:1591   .text:0000000000000564 .LBE160
     /tmp/ccbuzvWS.s:5731   .debug_loc:0000000000000559 .LLST54
     /tmp/ccbuzvWS.s:1610   .text:0000000000000590 .LBB162
     /tmp/ccbuzvWS.s:1624   .text:00000000000005a0 .LBE162
     /tmp/ccbuzvWS.s:5738   .debug_loc:000000000000057c .LLST55
     /tmp/ccbuzvWS.s:1612   .text:0000000000000590 .LBB164
     /tmp/ccbuzvWS.s:1618   .text:0000000000000594 .LBE164
     /tmp/ccbuzvWS.s:5745   .debug_loc:000000000000059f .LLST56
     /tmp/ccbuzvWS.s:1686   .text:000000000000060c .LBB171
     /tmp/ccbuzvWS.s:1694   .text:0000000000000614 .LBE171
     /tmp/ccbuzvWS.s:1691   .text:0000000000000614 .LVL166
     /tmp/ccbuzvWS.s:1528   .text:0000000000000500 .LVL143
     /tmp/ccbuzvWS.s:1550   .text:0000000000000524 .LVL146
     /tmp/ccbuzvWS.s:1555   .text:0000000000000530 .LVL147
     /tmp/ccbuzvWS.s:1577   .text:0000000000000554 .LVL150
     /tmp/ccbuzvWS.s:1582   .text:0000000000000560 .LVL151
     /tmp/ccbuzvWS.s:1604   .text:0000000000000584 .LVL154
     /tmp/ccbuzvWS.s:1609   .text:0000000000000590 .LVL155
     /tmp/ccbuzvWS.s:1631   .text:00000000000005b4 .LVL158
     /tmp/ccbuzvWS.s:1302   .text:0000000000000394 .LFB52
     /tmp/ccbuzvWS.s:1451   .text:00000000000004dc .LFE52
     /tmp/ccbuzvWS.s:5752   .debug_loc:00000000000005c2 .LLST44
     /tmp/ccbuzvWS.s:5766   .debug_loc:00000000000005fb .LLST45
     /tmp/ccbuzvWS.s:5780   .debug_loc:0000000000000634 .LLST46
     /tmp/ccbuzvWS.s:6294   .debug_str:00000000000001a0 .LASF89
     /tmp/ccbuzvWS.s:5800   .debug_loc:0000000000000691 .LLST47
     /tmp/ccbuzvWS.s:1329   .text:00000000000003c4 .LVL119
     /tmp/ccbuzvWS.s:1336   .text:00000000000003d8 .LVL120
     /tmp/ccbuzvWS.s:1341   .text:00000000000003e8 .LVL121
     /tmp/ccbuzvWS.s:1356   .text:0000000000000408 .LVL124
     /tmp/ccbuzvWS.s:1367   .text:0000000000000414 .LVL125
     /tmp/ccbuzvWS.s:1372   .text:0000000000000420 .LVL126
     /tmp/ccbuzvWS.s:1380   .text:0000000000000434 .LVL129
     /tmp/ccbuzvWS.s:1387   .text:0000000000000448 .LVL130
     /tmp/ccbuzvWS.s:1392   .text:0000000000000458 .LVL131
     /tmp/ccbuzvWS.s:1399   .text:000000000000046c .LVL132
     /tmp/ccbuzvWS.s:1406   .text:0000000000000480 .LVL133
     /tmp/ccbuzvWS.s:1411   .text:0000000000000490 .LVL134
     /tmp/ccbuzvWS.s:1426   .text:00000000000004b0 .LVL137
     /tmp/ccbuzvWS.s:1434   .text:00000000000004c4 .LVL138
     /tmp/ccbuzvWS.s:1073   .text:0000000000000214 .LFB51
     /tmp/ccbuzvWS.s:1248   .text:0000000000000394 .LFE51
     /tmp/ccbuzvWS.s:5811   .debug_loc:00000000000006c7 .LLST38
     /tmp/ccbuzvWS.s:5825   .debug_loc:0000000000000700 .LLST39
     /tmp/ccbuzvWS.s:5839   .debug_loc:0000000000000739 .LLST40
     /tmp/ccbuzvWS.s:5859   .debug_loc:0000000000000796 .LLST41
     /tmp/ccbuzvWS.s:5867   .debug_loc:00000000000007ba .LLST42
     /tmp/ccbuzvWS.s:1100   .text:0000000000000244 .LVL88
     /tmp/ccbuzvWS.s:1107   .text:0000000000000258 .LVL89
     /tmp/ccbuzvWS.s:1112   .text:0000000000000268 .LVL90
     /tmp/ccbuzvWS.s:1127   .text:0000000000000288 .LVL93
     /tmp/ccbuzvWS.s:1138   .text:0000000000000294 .LVL94
     /tmp/ccbuzvWS.s:1152   .text:00000000000002a8 .LVL96
     /tmp/ccbuzvWS.s:1159   .text:00000000000002bc .LVL97
     /tmp/ccbuzvWS.s:1164   .text:00000000000002cc .LVL98
GAS LISTING /tmp/ccbuzvWS.s 			page 59


     /tmp/ccbuzvWS.s:1169   .text:00000000000002d8 .LVL99
     /tmp/ccbuzvWS.s:1177   .text:00000000000002ec .LVL102
     /tmp/ccbuzvWS.s:1184   .text:0000000000000300 .LVL103
     /tmp/ccbuzvWS.s:1189   .text:0000000000000310 .LVL104
     /tmp/ccbuzvWS.s:1196   .text:0000000000000324 .LVL105
     /tmp/ccbuzvWS.s:1203   .text:0000000000000338 .LVL106
     /tmp/ccbuzvWS.s:1208   .text:0000000000000348 .LVL107
     /tmp/ccbuzvWS.s:1223   .text:0000000000000368 .LVL110
     /tmp/ccbuzvWS.s:1231   .text:000000000000037c .LVL111
     /tmp/ccbuzvWS.s:893    .text:0000000000000140 .LFB50
     /tmp/ccbuzvWS.s:1016   .text:0000000000000214 .LFE50
     /tmp/ccbuzvWS.s:5878   .debug_loc:00000000000007f0 .LLST32
     /tmp/ccbuzvWS.s:5892   .debug_loc:0000000000000829 .LLST33
     /tmp/ccbuzvWS.s:911    .text:0000000000000158 .LBB116
     /tmp/ccbuzvWS.s:987    .text:00000000000001d8 .LBE116
     /tmp/ccbuzvWS.s:5906   .debug_loc:0000000000000862 .LLST34
     /tmp/ccbuzvWS.s:5918   .debug_loc:0000000000000899 .LLST35
     /tmp/ccbuzvWS.s:934    .text:0000000000000178 .LBB120
     /tmp/ccbuzvWS.s:949    .text:0000000000000190 .LBE120
     /tmp/ccbuzvWS.s:5930   .debug_loc:00000000000008d0 .LLST36
     /tmp/ccbuzvWS.s:923    .text:0000000000000168 .LVL70
     /tmp/ccbuzvWS.s:965    .text:00000000000001ac .LVL76
     /tmp/ccbuzvWS.s:972    .text:00000000000001c0 .LVL77
     /tmp/ccbuzvWS.s:977    .text:00000000000001d0 .LVL78
     /tmp/ccbuzvWS.s:992    .text:00000000000001e8 .LVL80
     /tmp/ccbuzvWS.s:1000   .text:00000000000001fc .LVL81
     /tmp/ccbuzvWS.s:726    .text:0000000000000074 .LFB49
     /tmp/ccbuzvWS.s:845    .text:0000000000000140 .LFE49
     /tmp/ccbuzvWS.s:5941   .debug_loc:0000000000000906 .LLST26
     /tmp/ccbuzvWS.s:5955   .debug_loc:000000000000093f .LLST27
     /tmp/ccbuzvWS.s:744    .text:000000000000008c .LBB108
     /tmp/ccbuzvWS.s:820    .text:000000000000010c .LBE108
     /tmp/ccbuzvWS.s:5969   .debug_loc:0000000000000978 .LLST28
     /tmp/ccbuzvWS.s:5981   .debug_loc:00000000000009af .LLST29
     /tmp/ccbuzvWS.s:767    .text:00000000000000ac .LBB112
     /tmp/ccbuzvWS.s:782    .text:00000000000000c4 .LBE112
     /tmp/ccbuzvWS.s:5993   .debug_loc:00000000000009e6 .LLST30
     /tmp/ccbuzvWS.s:756    .text:000000000000009c .LVL53
     /tmp/ccbuzvWS.s:798    .text:00000000000000e0 .LVL59
     /tmp/ccbuzvWS.s:805    .text:00000000000000f4 .LVL60
     /tmp/ccbuzvWS.s:810    .text:0000000000000104 .LVL61
     /tmp/ccbuzvWS.s:825    .text:000000000000011c .LVL63
     /tmp/ccbuzvWS.s:1458   .text._ZN7WorkerD3runEv:0000000000000000 .LFB48
     /tmp/ccbuzvWS.s:1485   .text._ZN7WorkerD3runEv:000000000000002c .LFE48
     /tmp/ccbuzvWS.s:6004   .debug_loc:0000000000000a1c .LLST48
     /tmp/ccbuzvWS.s:1474   .text._ZN7WorkerD3runEv:000000000000001c .LVL142
     /tmp/ccbuzvWS.s:6458   .debug_str:0000000000000664 .LASF90
     /tmp/ccbuzvWS.s:1255   .text._ZN7WorkerC3runEv:0000000000000000 .LFB44
     /tmp/ccbuzvWS.s:1282   .text._ZN7WorkerC3runEv:000000000000002c .LFE44
     /tmp/ccbuzvWS.s:6018   .debug_loc:0000000000000a55 .LLST43
     /tmp/ccbuzvWS.s:1271   .text._ZN7WorkerC3runEv:000000000000001c .LVL115
     /tmp/ccbuzvWS.s:6284   .debug_str:0000000000000097 .LASF91
     /tmp/ccbuzvWS.s:1023   .text._ZN7WorkerB3runEv:0000000000000000 .LFB40
     /tmp/ccbuzvWS.s:1050   .text._ZN7WorkerB3runEv:000000000000002c .LFE40
     /tmp/ccbuzvWS.s:6032   .debug_loc:0000000000000a8e .LLST37
     /tmp/ccbuzvWS.s:1039   .text._ZN7WorkerB3runEv:000000000000001c .LVL84
     /tmp/ccbuzvWS.s:6456   .debug_str:0000000000000654 .LASF92
GAS LISTING /tmp/ccbuzvWS.s 			page 60


     /tmp/ccbuzvWS.s:852    .text._ZN7WorkerA3runEv:0000000000000000 .LFB36
     /tmp/ccbuzvWS.s:879    .text._ZN7WorkerA3runEv:000000000000002c .LFE36
     /tmp/ccbuzvWS.s:6046   .debug_loc:0000000000000ac7 .LLST31
     /tmp/ccbuzvWS.s:868    .text._ZN7WorkerA3runEv:000000000000001c .LVL66
     /tmp/ccbuzvWS.s:6296   .debug_str:00000000000001a7 .LASF93
     /tmp/ccbuzvWS.s:6420   .debug_str:000000000000055e .LASF123
     /tmp/ccbuzvWS.s:82     .text:0000000000000000 .LFB32
     /tmp/ccbuzvWS.s:148    .text:0000000000000074 .LFE32
     /tmp/ccbuzvWS.s:6060   .debug_loc:0000000000000b00 .LLST2
     /tmp/ccbuzvWS.s:115    .text:000000000000003c .LVL6
     /tmp/ccbuzvWS.s:120    .text:000000000000004c .LVL7
     /tmp/ccbuzvWS.s:145    .text:0000000000000070 .LVL10
     /tmp/ccbuzvWS.s:40     .text._ZN6Thread13threadWrapperEPv:0000000000000000 .LFB21
     /tmp/ccbuzvWS.s:76     .text._ZN6Thread13threadWrapperEPv:0000000000000034 .LFE21
     /tmp/ccbuzvWS.s:6082   .debug_loc:0000000000000b5f .LLST0
     /tmp/ccbuzvWS.s:6100   .debug_loc:0000000000000bab .LLST1
     /tmp/ccbuzvWS.s:62     .text._ZN6Thread13threadWrapperEPv:0000000000000020 .LVL2
     /tmp/ccbuzvWS.s:14     .text._ZN6Thread3runEv:0000000000000000 .LFB20
     /tmp/ccbuzvWS.s:33     .text._ZN6Thread3runEv:0000000000000018 .LFE20
     /tmp/ccbuzvWS.s:6476   .debug_str:00000000000006e1 .LASF94
     /tmp/ccbuzvWS.s:6276   .debug_str:000000000000004e .LASF95
     /tmp/ccbuzvWS.s:205    .text._ZN6ThreadD0Ev:0000000000000000 .LFB14
     /tmp/ccbuzvWS.s:250    .text._ZN6ThreadD0Ev:000000000000004c .LFE14
     /tmp/ccbuzvWS.s:6118   .debug_loc:0000000000000bf7 .LLST4
     /tmp/ccbuzvWS.s:223    .text._ZN6ThreadD0Ev:0000000000000018 .LBB86
     /tmp/ccbuzvWS.s:233    .text._ZN6ThreadD0Ev:000000000000002c .LBE86
     /tmp/ccbuzvWS.s:6136   .debug_loc:0000000000000c43 .LLST5
     /tmp/ccbuzvWS.s:231    .text._ZN6ThreadD0Ev:000000000000002c .LVL15
     /tmp/ccbuzvWS.s:237    .text._ZN6ThreadD0Ev:0000000000000038 .LVL16
     /tmp/ccbuzvWS.s:6462   .debug_str:0000000000000684 .LASF96
     /tmp/ccbuzvWS.s:155    .text._ZN6ThreadD2Ev:0000000000000000 .LFB12
     /tmp/ccbuzvWS.s:188    .text._ZN6ThreadD2Ev:0000000000000034 .LFE12
     /tmp/ccbuzvWS.s:6147   .debug_loc:0000000000000c79 .LLST3
     /tmp/ccbuzvWS.s:176    .text._ZN6ThreadD2Ev:0000000000000024 .LVL12
     /tmp/ccbuzvWS.s:6416   .debug_str:000000000000053a .LASF97
     /tmp/ccbuzvWS.s:6500   .debug_str:00000000000007a4 .LASF99
     /tmp/ccbuzvWS.s:6510   .debug_str:00000000000007ea .LASF105
     /tmp/ccbuzvWS.s:6454   .debug_str:0000000000000644 .LASF107
     /tmp/ccbuzvWS.s:6390   .debug_str:000000000000045c .LASF98
     /tmp/ccbuzvWS.s:6318   .debug_str:0000000000000236 .LASF100
     /tmp/ccbuzvWS.s:6494   .debug_str:0000000000000765 .LASF101
     /tmp/ccbuzvWS.s:6366   .debug_str:00000000000003ad .LASF102
     /tmp/ccbuzvWS.s:6332   .debug_str:0000000000000292 .LASF103
     /tmp/ccbuzvWS.s:6312   .debug_str:0000000000000200 .LASF104
     /tmp/ccbuzvWS.s:6378   .debug_str:000000000000040c .LASF106
     /tmp/ccbuzvWS.s:6346   .debug_str:0000000000000336 .LASF108
     /tmp/ccbuzvWS.s:6398   .debug_str:00000000000004b5 .LASF109
     /tmp/ccbuzvWS.s:6306   .debug_str:00000000000001db .LASF110
     /tmp/ccbuzvWS.s:321    .text._ZN7WorkerAD0Ev:0000000000000000 .LVL21
     /tmp/ccbuzvWS.s:358    .text._ZN7WorkerAD0Ev:0000000000000044 .LVL25
     /tmp/ccbuzvWS.s:333    .text._ZN7WorkerAD0Ev:0000000000000018 .LVL22
     /tmp/ccbuzvWS.s:269    .text._ZN7WorkerAD2Ev:0000000000000000 .LVL18
     /tmp/ccbuzvWS.s:278    .text._ZN7WorkerAD2Ev:0000000000000010 .LVL19
     /tmp/ccbuzvWS.s:434    .text._ZN7WorkerBD0Ev:0000000000000000 .LVL29
     /tmp/ccbuzvWS.s:471    .text._ZN7WorkerBD0Ev:0000000000000044 .LVL33
     /tmp/ccbuzvWS.s:446    .text._ZN7WorkerBD0Ev:0000000000000018 .LVL30
     /tmp/ccbuzvWS.s:382    .text._ZN7WorkerBD2Ev:0000000000000000 .LVL26
GAS LISTING /tmp/ccbuzvWS.s 			page 61


     /tmp/ccbuzvWS.s:391    .text._ZN7WorkerBD2Ev:0000000000000010 .LVL27
     /tmp/ccbuzvWS.s:547    .text._ZN7WorkerCD0Ev:0000000000000000 .LVL37
     /tmp/ccbuzvWS.s:584    .text._ZN7WorkerCD0Ev:0000000000000044 .LVL41
     /tmp/ccbuzvWS.s:559    .text._ZN7WorkerCD0Ev:0000000000000018 .LVL38
     /tmp/ccbuzvWS.s:495    .text._ZN7WorkerCD2Ev:0000000000000000 .LVL34
     /tmp/ccbuzvWS.s:504    .text._ZN7WorkerCD2Ev:0000000000000010 .LVL35
     /tmp/ccbuzvWS.s:660    .text._ZN7WorkerDD0Ev:0000000000000000 .LVL45
     /tmp/ccbuzvWS.s:697    .text._ZN7WorkerDD0Ev:0000000000000044 .LVL49
     /tmp/ccbuzvWS.s:672    .text._ZN7WorkerDD0Ev:0000000000000018 .LVL46
     /tmp/ccbuzvWS.s:608    .text._ZN7WorkerDD2Ev:0000000000000000 .LVL42
     /tmp/ccbuzvWS.s:617    .text._ZN7WorkerDD2Ev:0000000000000010 .LVL43
     /tmp/ccbuzvWS.s:1636   .text:00000000000005bc .LVL159
     /tmp/ccbuzvWS.s:1714   .text:0000000000000648 .LVL167
     /tmp/ccbuzvWS.s:1645   .text:00000000000005cc .LVL160
     /tmp/ccbuzvWS.s:1665   .text:00000000000005f0 .LVL163
     /tmp/ccbuzvWS.s:1677   .text:0000000000000600 .LVL164
     /tmp/ccbuzvWS.s:1716   .text:000000000000064c .LVL168
     /tmp/ccbuzvWS.s:1721   .text:0000000000000650 .LVL169
     /tmp/ccbuzvWS.s:1728   .text:000000000000065c .LVL170
     /tmp/ccbuzvWS.s:1744   .text:0000000000000684 .LVL173
     /tmp/ccbuzvWS.s:1755   .text:0000000000000690 .LVL174
     /tmp/ccbuzvWS.s:1541   .text:0000000000000510 .LVL145
     /tmp/ccbuzvWS.s:1535   .text:0000000000000504 .LVL144
     /tmp/ccbuzvWS.s:1568   .text:0000000000000540 .LVL149
     /tmp/ccbuzvWS.s:1562   .text:0000000000000534 .LVL148
     /tmp/ccbuzvWS.s:1595   .text:0000000000000570 .LVL153
     /tmp/ccbuzvWS.s:1589   .text:0000000000000564 .LVL152
     /tmp/ccbuzvWS.s:1622   .text:00000000000005a0 .LVL157
     /tmp/ccbuzvWS.s:1616   .text:0000000000000594 .LVL156
     /tmp/ccbuzvWS.s:1305   .text:0000000000000394 .LVL116
     /tmp/ccbuzvWS.s:1323   .text:00000000000003b4 .LVL118
     /tmp/ccbuzvWS.s:1319   .text:00000000000003ac .LVL117
     /tmp/ccbuzvWS.s:1344   .text:00000000000003ec .LVL122
     /tmp/ccbuzvWS.s:1346   .text:00000000000003f0 .LVL123
     /tmp/ccbuzvWS.s:1414   .text:0000000000000494 .LVL135
     /tmp/ccbuzvWS.s:1416   .text:0000000000000498 .LVL136
     /tmp/ccbuzvWS.s:1443   .text:00000000000004d0 .LVL139
     /tmp/ccbuzvWS.s:1374   .text:0000000000000424 .LVL127
     /tmp/ccbuzvWS.s:1378   .text:000000000000042c .LVL128
     /tmp/ccbuzvWS.s:1446   .text:00000000000004d4 .LVL140
     /tmp/ccbuzvWS.s:1076   .text:0000000000000214 .LVL85
     /tmp/ccbuzvWS.s:1094   .text:0000000000000234 .LVL87
     /tmp/ccbuzvWS.s:1090   .text:000000000000022c .LVL86
     /tmp/ccbuzvWS.s:1115   .text:000000000000026c .LVL91
     /tmp/ccbuzvWS.s:1117   .text:0000000000000270 .LVL92
     /tmp/ccbuzvWS.s:1211   .text:000000000000034c .LVL108
     /tmp/ccbuzvWS.s:1213   .text:0000000000000350 .LVL109
     /tmp/ccbuzvWS.s:1240   .text:0000000000000388 .LVL112
     /tmp/ccbuzvWS.s:1146   .text:0000000000000298 .LVL95
     /tmp/ccbuzvWS.s:1171   .text:00000000000002dc .LVL100
     /tmp/ccbuzvWS.s:1175   .text:00000000000002e4 .LVL101
     /tmp/ccbuzvWS.s:1243   .text:000000000000038c .LVL113
     /tmp/ccbuzvWS.s:896    .text:0000000000000140 .LVL67
     /tmp/ccbuzvWS.s:915    .text:0000000000000160 .LVL69
     /tmp/ccbuzvWS.s:910    .text:0000000000000158 .LVL68
     /tmp/ccbuzvWS.s:1011   .text:000000000000020c .LVL82
     /tmp/ccbuzvWS.s:955    .text:0000000000000194 .LVL75
GAS LISTING /tmp/ccbuzvWS.s 			page 62


     /tmp/ccbuzvWS.s:983    .text:00000000000001d8 .LVL79
     /tmp/ccbuzvWS.s:938    .text:000000000000017c .LVL72
     /tmp/ccbuzvWS.s:947    .text:0000000000000190 .LVL74
     /tmp/ccbuzvWS.s:729    .text:0000000000000074 .LVL50
     /tmp/ccbuzvWS.s:748    .text:0000000000000094 .LVL52
     /tmp/ccbuzvWS.s:743    .text:000000000000008c .LVL51
     /tmp/ccbuzvWS.s:840    .text:0000000000000138 .LVL64
     /tmp/ccbuzvWS.s:788    .text:00000000000000c8 .LVL58
     /tmp/ccbuzvWS.s:816    .text:000000000000010c .LVL62
     /tmp/ccbuzvWS.s:771    .text:00000000000000b0 .LVL55
     /tmp/ccbuzvWS.s:780    .text:00000000000000c4 .LVL57
     /tmp/ccbuzvWS.s:1461   .text._ZN7WorkerD3runEv:0000000000000000 .LVL141
     /tmp/ccbuzvWS.s:1258   .text._ZN7WorkerC3runEv:0000000000000000 .LVL114
     /tmp/ccbuzvWS.s:1026   .text._ZN7WorkerB3runEv:0000000000000000 .LVL83
     /tmp/ccbuzvWS.s:855    .text._ZN7WorkerA3runEv:0000000000000000 .LVL65
     /tmp/ccbuzvWS.s:86     .text:0000000000000000 .LVL4
     /tmp/ccbuzvWS.s:109    .text:0000000000000030 .LVL5
     /tmp/ccbuzvWS.s:133    .text:000000000000005c .LVL8
     /tmp/ccbuzvWS.s:139    .text:0000000000000068 .LVL9
     /tmp/ccbuzvWS.s:43     .text._ZN6Thread13threadWrapperEPv:0000000000000000 .LVL1
     /tmp/ccbuzvWS.s:72     .text._ZN6Thread13threadWrapperEPv:0000000000000030 .LVL3
     /tmp/ccbuzvWS.s:210    .text._ZN6ThreadD0Ev:0000000000000000 .LVL13
     /tmp/ccbuzvWS.s:245    .text._ZN6ThreadD0Ev:0000000000000044 .LVL17
     /tmp/ccbuzvWS.s:222    .text._ZN6ThreadD0Ev:0000000000000018 .LVL14
     /tmp/ccbuzvWS.s:160    .text._ZN6ThreadD2Ev:0000000000000000 .LVL11
     /tmp/ccbuzvWS.s:1842   .debug_info:0000000000000000 .Ldebug_info0
     /tmp/ccbuzvWS.s:8      .text:0000000000000000 .Ltext0
     /tmp/ccbuzvWS.s:1837   .text:000000000000069c .Letext0
     /tmp/ccbuzvWS.s:751    .text:0000000000000094 .LBB110
     /tmp/ccbuzvWS.s:784    .text:00000000000000c4 .LBE110
     /tmp/ccbuzvWS.s:812    .text:0000000000000104 .LBB114
     /tmp/ccbuzvWS.s:818    .text:000000000000010c .LBE114
     /tmp/ccbuzvWS.s:918    .text:0000000000000160 .LBB118
     /tmp/ccbuzvWS.s:951    .text:0000000000000190 .LBE118
     /tmp/ccbuzvWS.s:979    .text:00000000000001d0 .LBB122
     /tmp/ccbuzvWS.s:985    .text:00000000000001d8 .LBE122
     /tmp/ccbuzvWS.s:1651   .text:00000000000005d4 .LBE167
     /tmp/ccbuzvWS.s:1666   .text:00000000000005f0 .LBB170
     /tmp/ccbuzvWS.s:1683   .text:000000000000060c .LBE170
     /tmp/ccbuzvWS.s:191    .gcc_except_table._ZN6ThreadD2Ev:0000000000000000 .LLSDA12
     /tmp/ccbuzvWS.s:252    .gcc_except_table._ZN6ThreadD0Ev:0000000000000000 .LLSDA14
     /tmp/ccbuzvWS.s:302    .gcc_except_table._ZN7WorkerAD2Ev:0000000000000000 .LLSDA67
     /tmp/ccbuzvWS.s:365    .gcc_except_table._ZN7WorkerAD0Ev:0000000000000000 .LLSDA69
     /tmp/ccbuzvWS.s:415    .gcc_except_table._ZN7WorkerBD2Ev:0000000000000000 .LLSDA63
     /tmp/ccbuzvWS.s:478    .gcc_except_table._ZN7WorkerBD0Ev:0000000000000000 .LLSDA65
     /tmp/ccbuzvWS.s:528    .gcc_except_table._ZN7WorkerCD2Ev:0000000000000000 .LLSDA59
     /tmp/ccbuzvWS.s:591    .gcc_except_table._ZN7WorkerCD0Ev:0000000000000000 .LLSDA61
     /tmp/ccbuzvWS.s:641    .gcc_except_table._ZN7WorkerDD2Ev:0000000000000000 .LLSDA55
     /tmp/ccbuzvWS.s:704    .gcc_except_table._ZN7WorkerDD0Ev:0000000000000000 .LLSDA57
                           .group:0000000000000000 _ZN6ThreadD5Ev
                           .group:0000000000000000 _ZN7WorkerAD5Ev
                           .group:0000000000000000 _ZN7WorkerBD5Ev
                           .group:0000000000000000 _ZN7WorkerCD5Ev
                           .group:0000000000000000 _ZN7WorkerDD5Ev

UNDEFINED SYMBOLS
_Z15thread_dispatchv
GAS LISTING /tmp/ccbuzvWS.s 			page 63


_Z11thread_exitv
__gxx_personality_v0
_ZdlPv
_Z11printStringPKc
_Z8printIntiii
_Znwm
_Z13thread_createPP7_threadPFvPvES2_
