GAS LISTING /tmp/ccHYiiCD.s 			page 1


   1              		.file	"Threads_CPP_API_test.cpp"
   2              		.option nopic
   3              		.option norelax
   4              		.attribute arch, "rv64i2p0_m2p0_a2p0"
   5              		.attribute unaligned_access, 0
   6              		.attribute stack_align, 16
   7              		.text
   8              	.Ltext0:
   9              		.section	.text._ZN6Thread3runEv,"axG",@progbits,_ZN6Thread3runEv,comdat
  10              		.align	2
  11              		.weak	_ZN6Thread3runEv
  13              	_ZN6Thread3runEv:
  14              	.LFB20:
  15              		.file 1 "test/../h/syscall_cpp.hpp"
   1:test/../h/syscall_cpp.hpp **** //
   2:test/../h/syscall_cpp.hpp **** // Created by basara on 19.6.24..
   3:test/../h/syscall_cpp.hpp **** //
   4:test/../h/syscall_cpp.hpp **** 
   5:test/../h/syscall_cpp.hpp **** #ifndef OS_PROJEKAT_SYSCALL_CPP_HPP
   6:test/../h/syscall_cpp.hpp **** #define OS_PROJEKAT_SYSCALL_CPP_HPP
   7:test/../h/syscall_cpp.hpp **** 
   8:test/../h/syscall_cpp.hpp **** #include "syscall_c.hpp"
   9:test/../h/syscall_cpp.hpp **** 
  10:test/../h/syscall_cpp.hpp **** 
  11:test/../h/syscall_cpp.hpp **** //void* ::operator new(size_t);
  12:test/../h/syscall_cpp.hpp **** //void ::operator delete(void*);
  13:test/../h/syscall_cpp.hpp **** 
  14:test/../h/syscall_cpp.hpp **** class Thread {
  15:test/../h/syscall_cpp.hpp **** 
  16:test/../h/syscall_cpp.hpp **** public:
  17:test/../h/syscall_cpp.hpp ****     Thread(void (*body)(void*), void* arg):body(body), arg(arg){}
  18:test/../h/syscall_cpp.hpp ****     virtual ~Thread() { thread_exit();}
  19:test/../h/syscall_cpp.hpp **** 
  20:test/../h/syscall_cpp.hpp ****     int start(){
  21:test/../h/syscall_cpp.hpp ****         if (body == nullptr){
  22:test/../h/syscall_cpp.hpp ****             thread_create(&myhandle, &threadWrapper,this);
  23:test/../h/syscall_cpp.hpp ****         }
  24:test/../h/syscall_cpp.hpp ****         else {
  25:test/../h/syscall_cpp.hpp ****             thread_create(&myhandle, body,arg);
  26:test/../h/syscall_cpp.hpp ****         }
  27:test/../h/syscall_cpp.hpp ****         return 0;
  28:test/../h/syscall_cpp.hpp ****     }
  29:test/../h/syscall_cpp.hpp **** 
  30:test/../h/syscall_cpp.hpp ****     static void dispatch() {thread_dispatch();}
  31:test/../h/syscall_cpp.hpp ****     static int sleep(time_t);
  32:test/../h/syscall_cpp.hpp **** 
  33:test/../h/syscall_cpp.hpp **** protected:
  34:test/../h/syscall_cpp.hpp ****     Thread(){};
  35:test/../h/syscall_cpp.hpp ****     virtual void run(){}
  16              		.loc 1 35 18
  17              		.cfi_startproc
  18              	.LVL0:
  19 0000 130101FF 		addi	sp,sp,-16
  20              		.cfi_def_cfa_offset 16
  21 0004 23348100 		sd	s0,8(sp)
  22              		.cfi_offset 8, -8
  23 0008 13040101 		addi	s0,sp,16
GAS LISTING /tmp/ccHYiiCD.s 			page 2


  24              		.cfi_def_cfa 8, 0
  25              		.loc 1 35 24 is_stmt 0
  26 000c 03348100 		ld	s0,8(sp)
  27              		.cfi_restore 8
  28              		.cfi_def_cfa 2, 16
  29 0010 13010101 		addi	sp,sp,16
  30              		.cfi_def_cfa_offset 0
  31 0014 67800000 		jr	ra
  32              		.cfi_endproc
  33              	.LFE20:
  35              		.section	.text._ZN6Thread13threadWrapperEPv,"axG",@progbits,_ZN6Thread13threadWrapperEPv,comdat
  36              		.align	2
  37              		.weak	_ZN6Thread13threadWrapperEPv
  39              	_ZN6Thread13threadWrapperEPv:
  40              	.LFB21:
  36:test/../h/syscall_cpp.hpp **** 
  37:test/../h/syscall_cpp.hpp **** private:
  38:test/../h/syscall_cpp.hpp ****     static void threadWrapper(void* p){
  41              		.loc 1 38 17 is_stmt 1
  42              		.cfi_startproc
  43              	.LVL1:
  39:test/../h/syscall_cpp.hpp ****         Thread* thr = (Thread*)p;
  44              		.loc 1 39 9
  40:test/../h/syscall_cpp.hpp ****         if (thr) thr->run();
  45              		.loc 1 40 9
  46 0000 63080502 		beqz	a0,.L6
  38:test/../h/syscall_cpp.hpp ****         Thread* thr = (Thread*)p;
  47              		.loc 1 38 17 is_stmt 0 discriminator 1
  48 0004 130101FF 		addi	sp,sp,-16
  49              		.cfi_def_cfa_offset 16
  50 0008 23341100 		sd	ra,8(sp)
  51 000c 23308100 		sd	s0,0(sp)
  52              		.cfi_offset 1, -8
  53              		.cfi_offset 8, -16
  54 0010 13040101 		addi	s0,sp,16
  55              		.cfi_def_cfa 8, 0
  56              		.loc 1 40 18 is_stmt 1 discriminator 1
  57              		.loc 1 40 27 is_stmt 0 discriminator 1
  58 0014 83370500 		ld	a5,0(a0)
  59 0018 83B70701 		ld	a5,16(a5)
  60              		.loc 1 40 26 discriminator 1
  61 001c E7800700 		jalr	a5
  62              	.LVL2:
  41:test/../h/syscall_cpp.hpp ****     }
  63              		.loc 1 41 5 discriminator 1
  64 0020 83308100 		ld	ra,8(sp)
  65              		.cfi_restore 1
  66 0024 03340100 		ld	s0,0(sp)
  67              		.cfi_restore 8
  68              		.cfi_def_cfa 2, 16
  69 0028 13010101 		addi	sp,sp,16
  70              		.cfi_def_cfa_offset 0
  71 002c 67800000 		jr	ra
  72              	.LVL3:
  73              	.L6:
  74 0030 67800000 		ret
  75              		.cfi_endproc
GAS LISTING /tmp/ccHYiiCD.s 			page 3


  76              	.LFE21:
  78              		.text
  79              		.align	2
  81              	_ZL9fibonaccim:
  82              	.LFB22:
  83              		.file 2 "test/Threads_CPP_API_test.cpp"
   1:test/Threads_CPP_API_test.cpp **** #include "../h/syscall_cpp.hpp"
   2:test/Threads_CPP_API_test.cpp **** 
   3:test/Threads_CPP_API_test.cpp **** #include "printing.hpp"
   4:test/Threads_CPP_API_test.cpp **** 
   5:test/Threads_CPP_API_test.cpp **** static volatile bool finishedA = false;
   6:test/Threads_CPP_API_test.cpp **** static volatile bool finishedB = false;
   7:test/Threads_CPP_API_test.cpp **** static volatile bool finishedC = false;
   8:test/Threads_CPP_API_test.cpp **** static volatile bool finishedD = false;
   9:test/Threads_CPP_API_test.cpp **** 
  10:test/Threads_CPP_API_test.cpp **** static uint64 fibonacci(uint64 n) {
  84              		.loc 2 10 35 is_stmt 1
  85              		.cfi_startproc
  86              	.LVL4:
  87 0000 130101FE 		addi	sp,sp,-32
  88              		.cfi_def_cfa_offset 32
  89 0004 233C1100 		sd	ra,24(sp)
  90 0008 23388100 		sd	s0,16(sp)
  91 000c 23349100 		sd	s1,8(sp)
  92 0010 23302101 		sd	s2,0(sp)
  93              		.cfi_offset 1, -8
  94              		.cfi_offset 8, -16
  95              		.cfi_offset 9, -24
  96              		.cfi_offset 18, -32
  97 0014 13040102 		addi	s0,sp,32
  98              		.cfi_def_cfa 8, 0
  99 0018 93040500 		mv	s1,a0
  11:test/Threads_CPP_API_test.cpp ****     if (n == 0 || n == 1) { return n; }
 100              		.loc 2 11 5
 101 001c 93071000 		li	a5,1
 102 0020 63F8A702 		bleu	a0,a5,.L9
  12:test/Threads_CPP_API_test.cpp ****     if (n % 10 == 0) { thread_dispatch(); }
 103              		.loc 2 12 5
 104              		.loc 2 12 11 is_stmt 0
 105 0024 9307A000 		li	a5,10
 106 0028 B377F502 		remu	a5,a0,a5
 107              		.loc 2 12 5
 108 002c 638E0702 		beqz	a5,.L14
 109              	.LVL5:
 110              	.L11:
  13:test/Threads_CPP_API_test.cpp ****     return fibonacci(n - 1) + fibonacci(n - 2);
 111              		.loc 2 13 5 is_stmt 1
 112              		.loc 2 13 21 is_stmt 0
 113 0030 1385F4FF 		addi	a0,s1,-1
 114 0034 97000000 		call	_ZL9fibonaccim
 114      E7800000 
 115              	.LVL6:
 116 003c 13090500 		mv	s2,a0
 117              		.loc 2 13 40
 118 0040 1385E4FF 		addi	a0,s1,-2
 119 0044 97000000 		call	_ZL9fibonaccim
 119      E7800000 
GAS LISTING /tmp/ccHYiiCD.s 			page 4


 120              	.LVL7:
 121              		.loc 2 13 46
 122 004c 3305A900 		add	a0,s2,a0
 123              	.L9:
  14:test/Threads_CPP_API_test.cpp **** }
 124              		.loc 2 14 1
 125 0050 83308101 		ld	ra,24(sp)
 126              		.cfi_remember_state
 127              		.cfi_restore 1
 128 0054 03340101 		ld	s0,16(sp)
 129              		.cfi_restore 8
 130              		.cfi_def_cfa 2, 32
 131 0058 83348100 		ld	s1,8(sp)
 132              		.cfi_restore 9
 133              	.LVL8:
 134 005c 03390100 		ld	s2,0(sp)
 135              		.cfi_restore 18
 136 0060 13010102 		addi	sp,sp,32
 137              		.cfi_def_cfa_offset 0
 138 0064 67800000 		jr	ra
 139              	.LVL9:
 140              	.L14:
 141              		.cfi_restore_state
  12:test/Threads_CPP_API_test.cpp ****     if (n % 10 == 0) { thread_dispatch(); }
 142              		.loc 2 12 24 is_stmt 1 discriminator 1
  12:test/Threads_CPP_API_test.cpp ****     if (n % 10 == 0) { thread_dispatch(); }
 143              		.loc 2 12 39 is_stmt 0 discriminator 1
 144 0068 97000000 		call	_Z15thread_dispatchv
 144      E7800000 
 145              	.LVL10:
 146 0070 6FF01FFC 		j	.L11
 147              		.cfi_endproc
 148              	.LFE22:
 150              		.section	.text._ZN6ThreadD2Ev,"axG",@progbits,_ZN6ThreadD5Ev,comdat
 151              		.align	2
 152              		.weak	_ZN6ThreadD2Ev
 154              	_ZN6ThreadD2Ev:
 155              	.LFB12:
  18:test/../h/syscall_cpp.hpp **** 
 156              		.loc 1 18 13 is_stmt 1
 157              		.cfi_startproc
 158              		.cfi_personality 0x9b,DW.ref.__gxx_personality_v0
 159              		.cfi_lsda 0x1b,.LLSDA12
 160              	.LVL11:
 161 0000 130101FF 		addi	sp,sp,-16
 162              		.cfi_def_cfa_offset 16
 163 0004 23341100 		sd	ra,8(sp)
 164 0008 23308100 		sd	s0,0(sp)
 165              		.cfi_offset 1, -8
 166              		.cfi_offset 8, -16
 167 000c 13040101 		addi	s0,sp,16
 168              		.cfi_def_cfa 8, 0
 169              	.LBB85:
  18:test/../h/syscall_cpp.hpp **** 
 170              		.loc 1 18 23 is_stmt 0
 171 0010 97070000 		lla	a5,_ZTV6Thread+16
 171      93870700 
GAS LISTING /tmp/ccHYiiCD.s 			page 5


 172 0018 2330F500 		sd	a5,0(a0)
  18:test/../h/syscall_cpp.hpp **** 
 173              		.loc 1 18 25 is_stmt 1
  18:test/../h/syscall_cpp.hpp **** 
 174              		.loc 1 18 36 is_stmt 0
 175 001c 97000000 		call	_Z11thread_exitv
 175      E7800000 
 176              	.LVL12:
 177              	.LBE85:
  18:test/../h/syscall_cpp.hpp **** 
 178              		.loc 1 18 39
 179 0024 83308100 		ld	ra,8(sp)
 180              		.cfi_restore 1
 181 0028 03340100 		ld	s0,0(sp)
 182              		.cfi_restore 8
 183              		.cfi_def_cfa 2, 16
 184 002c 13010101 		addi	sp,sp,16
 185              		.cfi_def_cfa_offset 0
 186 0030 67800000 		jr	ra
 187              		.cfi_endproc
 188              	.LFE12:
 189              		.globl	__gxx_personality_v0
 190              		.section	.gcc_except_table._ZN6ThreadD2Ev,"awG",@progbits,_ZN6ThreadD5Ev,comdat
 191              	.LLSDA12:
 192 0000 FF       		.byte	0xff
 193 0001 FF       		.byte	0xff
 194 0002 03       		.byte	0x3
 195 0003 00       		.byte	0
 196              		.section	.text._ZN6ThreadD2Ev,"axG",@progbits,_ZN6ThreadD5Ev,comdat
 198              		.weak	_ZN6ThreadD1Ev
 199              		.set	_ZN6ThreadD1Ev,_ZN6ThreadD2Ev
 200              		.section	.text._ZN6ThreadD0Ev,"axG",@progbits,_ZN6ThreadD5Ev,comdat
 201              		.align	2
 202              		.weak	_ZN6ThreadD0Ev
 204              	_ZN6ThreadD0Ev:
 205              	.LFB14:
  18:test/../h/syscall_cpp.hpp **** 
 206              		.loc 1 18 13 is_stmt 1
 207              		.cfi_startproc
 208              		.cfi_personality 0x9b,DW.ref.__gxx_personality_v0
 209              		.cfi_lsda 0x1b,.LLSDA14
 210              	.LVL13:
 211 0000 130101FE 		addi	sp,sp,-32
 212              		.cfi_def_cfa_offset 32
 213 0004 233C1100 		sd	ra,24(sp)
 214 0008 23388100 		sd	s0,16(sp)
 215 000c 23349100 		sd	s1,8(sp)
 216              		.cfi_offset 1, -8
 217              		.cfi_offset 8, -16
 218              		.cfi_offset 9, -24
 219 0010 13040102 		addi	s0,sp,32
 220              		.cfi_def_cfa 8, 0
 221 0014 93040500 		mv	s1,a0
 222              	.LVL14:
 223              	.LBB86:
 224              	.LBB87:
  18:test/../h/syscall_cpp.hpp **** 
GAS LISTING /tmp/ccHYiiCD.s 			page 6


 225              		.loc 1 18 23 is_stmt 0
 226 0018 97070000 		lla	a5,_ZTV6Thread+16
 226      93870700 
 227 0020 2330F500 		sd	a5,0(a0)
  18:test/../h/syscall_cpp.hpp **** 
 228              		.loc 1 18 25 is_stmt 1
  18:test/../h/syscall_cpp.hpp **** 
 229              		.loc 1 18 36 is_stmt 0
 230 0024 97000000 		call	_Z11thread_exitv
 230      E7800000 
 231              	.LVL15:
 232              	.LBE87:
 233              	.LBE86:
  18:test/../h/syscall_cpp.hpp **** 
 234              		.loc 1 18 39
 235 002c 13850400 		mv	a0,s1
 236 0030 97000000 		call	_ZdlPv
 236      E7800000 
 237              	.LVL16:
 238 0038 83308101 		ld	ra,24(sp)
 239              		.cfi_restore 1
 240 003c 03340101 		ld	s0,16(sp)
 241              		.cfi_restore 8
 242              		.cfi_def_cfa 2, 32
 243 0040 83348100 		ld	s1,8(sp)
 244              		.cfi_restore 9
 245              	.LVL17:
 246 0044 13010102 		addi	sp,sp,32
 247              		.cfi_def_cfa_offset 0
 248 0048 67800000 		jr	ra
 249              		.cfi_endproc
 250              	.LFE14:
 251              		.section	.gcc_except_table._ZN6ThreadD0Ev,"awG",@progbits,_ZN6ThreadD5Ev,comdat
 252              	.LLSDA14:
 253 0000 FF       		.byte	0xff
 254 0001 FF       		.byte	0xff
 255 0002 03       		.byte	0x3
 256 0003 00       		.byte	0
 257              		.section	.text._ZN6ThreadD0Ev,"axG",@progbits,_ZN6ThreadD5Ev,comdat
 259              		.section	.text._ZN7WorkerAD2Ev,"axG",@progbits,_ZN7WorkerAD5Ev,comdat
 260              		.align	2
 261              		.weak	_ZN7WorkerAD2Ev
 263              	_ZN7WorkerAD2Ev:
 264              	.LFB57:
  15:test/Threads_CPP_API_test.cpp **** 
  16:test/Threads_CPP_API_test.cpp **** class WorkerA: public Thread {
 265              		.loc 2 16 7 is_stmt 1
 266              		.cfi_startproc
 267              		.cfi_personality 0x9b,DW.ref.__gxx_personality_v0
 268              		.cfi_lsda 0x1b,.LLSDA57
 269              	.LVL18:
 270 0000 130101FF 		addi	sp,sp,-16
 271              		.cfi_def_cfa_offset 16
 272 0004 23341100 		sd	ra,8(sp)
 273 0008 23308100 		sd	s0,0(sp)
 274              		.cfi_offset 1, -8
 275              		.cfi_offset 8, -16
GAS LISTING /tmp/ccHYiiCD.s 			page 7


 276 000c 13040101 		addi	s0,sp,16
 277              		.cfi_def_cfa 8, 0
 278              	.LVL19:
 279              	.LBB88:
 280              	.LBB89:
  18:test/../h/syscall_cpp.hpp **** 
 281              		.loc 1 18 23 is_stmt 0
 282 0010 97070000 		lla	a5,_ZTV6Thread+16
 282      93870700 
 283 0018 2330F500 		sd	a5,0(a0)
  18:test/../h/syscall_cpp.hpp **** 
 284              		.loc 1 18 25 is_stmt 1
  18:test/../h/syscall_cpp.hpp **** 
 285              		.loc 1 18 36 is_stmt 0
 286 001c 97000000 		call	_Z11thread_exitv
 286      E7800000 
 287              	.LVL20:
 288              	.LBE89:
 289              	.LBE88:
 290              		.loc 2 16 7
 291 0024 83308100 		ld	ra,8(sp)
 292              		.cfi_restore 1
 293 0028 03340100 		ld	s0,0(sp)
 294              		.cfi_restore 8
 295              		.cfi_def_cfa 2, 16
 296 002c 13010101 		addi	sp,sp,16
 297              		.cfi_def_cfa_offset 0
 298 0030 67800000 		jr	ra
 299              		.cfi_endproc
 300              	.LFE57:
 301              		.section	.gcc_except_table._ZN7WorkerAD2Ev,"awG",@progbits,_ZN7WorkerAD5Ev,comdat
 302              	.LLSDA57:
 303 0000 FF       		.byte	0xff
 304 0001 FF       		.byte	0xff
 305 0002 03       		.byte	0x3
 306 0003 00       		.byte	0
 307              		.section	.text._ZN7WorkerAD2Ev,"axG",@progbits,_ZN7WorkerAD5Ev,comdat
 309              		.weak	_ZN7WorkerAD1Ev
 310              		.set	_ZN7WorkerAD1Ev,_ZN7WorkerAD2Ev
 311              		.section	.text._ZN7WorkerAD0Ev,"axG",@progbits,_ZN7WorkerAD5Ev,comdat
 312              		.align	2
 313              		.weak	_ZN7WorkerAD0Ev
 315              	_ZN7WorkerAD0Ev:
 316              	.LFB59:
 317              		.loc 2 16 7 is_stmt 1
 318              		.cfi_startproc
 319              		.cfi_personality 0x9b,DW.ref.__gxx_personality_v0
 320              		.cfi_lsda 0x1b,.LLSDA59
 321              	.LVL21:
 322 0000 130101FE 		addi	sp,sp,-32
 323              		.cfi_def_cfa_offset 32
 324 0004 233C1100 		sd	ra,24(sp)
 325 0008 23388100 		sd	s0,16(sp)
 326 000c 23349100 		sd	s1,8(sp)
 327              		.cfi_offset 1, -8
 328              		.cfi_offset 8, -16
 329              		.cfi_offset 9, -24
GAS LISTING /tmp/ccHYiiCD.s 			page 8


 330 0010 13040102 		addi	s0,sp,32
 331              		.cfi_def_cfa 8, 0
 332 0014 93040500 		mv	s1,a0
 333              	.LVL22:
 334              	.LBB90:
 335              	.LBB91:
 336              	.LBB92:
  18:test/../h/syscall_cpp.hpp **** 
 337              		.loc 1 18 23 is_stmt 0
 338 0018 97070000 		lla	a5,_ZTV6Thread+16
 338      93870700 
 339 0020 2330F500 		sd	a5,0(a0)
  18:test/../h/syscall_cpp.hpp **** 
 340              		.loc 1 18 25 is_stmt 1
  18:test/../h/syscall_cpp.hpp **** 
 341              		.loc 1 18 36 is_stmt 0
 342 0024 97000000 		call	_Z11thread_exitv
 342      E7800000 
 343              	.LVL23:
 344              	.LBE92:
 345              	.LBE91:
 346              	.LBE90:
 347              		.loc 2 16 7
 348 002c 13850400 		mv	a0,s1
 349 0030 97000000 		call	_ZdlPv
 349      E7800000 
 350              	.LVL24:
 351 0038 83308101 		ld	ra,24(sp)
 352              		.cfi_restore 1
 353 003c 03340101 		ld	s0,16(sp)
 354              		.cfi_restore 8
 355              		.cfi_def_cfa 2, 32
 356 0040 83348100 		ld	s1,8(sp)
 357              		.cfi_restore 9
 358              	.LVL25:
 359 0044 13010102 		addi	sp,sp,32
 360              		.cfi_def_cfa_offset 0
 361 0048 67800000 		jr	ra
 362              		.cfi_endproc
 363              	.LFE59:
 364              		.section	.gcc_except_table._ZN7WorkerAD0Ev,"awG",@progbits,_ZN7WorkerAD5Ev,comdat
 365              	.LLSDA59:
 366 0000 FF       		.byte	0xff
 367 0001 FF       		.byte	0xff
 368 0002 03       		.byte	0x3
 369 0003 00       		.byte	0
 370              		.section	.text._ZN7WorkerAD0Ev,"axG",@progbits,_ZN7WorkerAD5Ev,comdat
 372              		.section	.text._ZN7WorkerBD2Ev,"axG",@progbits,_ZN7WorkerBD5Ev,comdat
 373              		.align	2
 374              		.weak	_ZN7WorkerBD2Ev
 376              	_ZN7WorkerBD2Ev:
 377              	.LFB53:
  17:test/Threads_CPP_API_test.cpp ****     void workerBodyA(void* arg);
  18:test/Threads_CPP_API_test.cpp **** public:
  19:test/Threads_CPP_API_test.cpp ****     WorkerA():Thread() {}
  20:test/Threads_CPP_API_test.cpp **** 
  21:test/Threads_CPP_API_test.cpp ****     void run() override {
GAS LISTING /tmp/ccHYiiCD.s 			page 9


  22:test/Threads_CPP_API_test.cpp ****         workerBodyA(nullptr);
  23:test/Threads_CPP_API_test.cpp ****     }
  24:test/Threads_CPP_API_test.cpp **** };
  25:test/Threads_CPP_API_test.cpp **** 
  26:test/Threads_CPP_API_test.cpp **** class WorkerB: public Thread {
 378              		.loc 2 26 7 is_stmt 1
 379              		.cfi_startproc
 380              		.cfi_personality 0x9b,DW.ref.__gxx_personality_v0
 381              		.cfi_lsda 0x1b,.LLSDA53
 382              	.LVL26:
 383 0000 130101FF 		addi	sp,sp,-16
 384              		.cfi_def_cfa_offset 16
 385 0004 23341100 		sd	ra,8(sp)
 386 0008 23308100 		sd	s0,0(sp)
 387              		.cfi_offset 1, -8
 388              		.cfi_offset 8, -16
 389 000c 13040101 		addi	s0,sp,16
 390              		.cfi_def_cfa 8, 0
 391              	.LVL27:
 392              	.LBB93:
 393              	.LBB94:
  18:test/../h/syscall_cpp.hpp **** 
 394              		.loc 1 18 23 is_stmt 0
 395 0010 97070000 		lla	a5,_ZTV6Thread+16
 395      93870700 
 396 0018 2330F500 		sd	a5,0(a0)
  18:test/../h/syscall_cpp.hpp **** 
 397              		.loc 1 18 25 is_stmt 1
  18:test/../h/syscall_cpp.hpp **** 
 398              		.loc 1 18 36 is_stmt 0
 399 001c 97000000 		call	_Z11thread_exitv
 399      E7800000 
 400              	.LVL28:
 401              	.LBE94:
 402              	.LBE93:
 403              		.loc 2 26 7
 404 0024 83308100 		ld	ra,8(sp)
 405              		.cfi_restore 1
 406 0028 03340100 		ld	s0,0(sp)
 407              		.cfi_restore 8
 408              		.cfi_def_cfa 2, 16
 409 002c 13010101 		addi	sp,sp,16
 410              		.cfi_def_cfa_offset 0
 411 0030 67800000 		jr	ra
 412              		.cfi_endproc
 413              	.LFE53:
 414              		.section	.gcc_except_table._ZN7WorkerBD2Ev,"awG",@progbits,_ZN7WorkerBD5Ev,comdat
 415              	.LLSDA53:
 416 0000 FF       		.byte	0xff
 417 0001 FF       		.byte	0xff
 418 0002 03       		.byte	0x3
 419 0003 00       		.byte	0
 420              		.section	.text._ZN7WorkerBD2Ev,"axG",@progbits,_ZN7WorkerBD5Ev,comdat
 422              		.weak	_ZN7WorkerBD1Ev
 423              		.set	_ZN7WorkerBD1Ev,_ZN7WorkerBD2Ev
 424              		.section	.text._ZN7WorkerBD0Ev,"axG",@progbits,_ZN7WorkerBD5Ev,comdat
 425              		.align	2
GAS LISTING /tmp/ccHYiiCD.s 			page 10


 426              		.weak	_ZN7WorkerBD0Ev
 428              	_ZN7WorkerBD0Ev:
 429              	.LFB55:
 430              		.loc 2 26 7 is_stmt 1
 431              		.cfi_startproc
 432              		.cfi_personality 0x9b,DW.ref.__gxx_personality_v0
 433              		.cfi_lsda 0x1b,.LLSDA55
 434              	.LVL29:
 435 0000 130101FE 		addi	sp,sp,-32
 436              		.cfi_def_cfa_offset 32
 437 0004 233C1100 		sd	ra,24(sp)
 438 0008 23388100 		sd	s0,16(sp)
 439 000c 23349100 		sd	s1,8(sp)
 440              		.cfi_offset 1, -8
 441              		.cfi_offset 8, -16
 442              		.cfi_offset 9, -24
 443 0010 13040102 		addi	s0,sp,32
 444              		.cfi_def_cfa 8, 0
 445 0014 93040500 		mv	s1,a0
 446              	.LVL30:
 447              	.LBB95:
 448              	.LBB96:
 449              	.LBB97:
  18:test/../h/syscall_cpp.hpp **** 
 450              		.loc 1 18 23 is_stmt 0
 451 0018 97070000 		lla	a5,_ZTV6Thread+16
 451      93870700 
 452 0020 2330F500 		sd	a5,0(a0)
  18:test/../h/syscall_cpp.hpp **** 
 453              		.loc 1 18 25 is_stmt 1
  18:test/../h/syscall_cpp.hpp **** 
 454              		.loc 1 18 36 is_stmt 0
 455 0024 97000000 		call	_Z11thread_exitv
 455      E7800000 
 456              	.LVL31:
 457              	.LBE97:
 458              	.LBE96:
 459              	.LBE95:
 460              		.loc 2 26 7
 461 002c 13850400 		mv	a0,s1
 462 0030 97000000 		call	_ZdlPv
 462      E7800000 
 463              	.LVL32:
 464 0038 83308101 		ld	ra,24(sp)
 465              		.cfi_restore 1
 466 003c 03340101 		ld	s0,16(sp)
 467              		.cfi_restore 8
 468              		.cfi_def_cfa 2, 32
 469 0040 83348100 		ld	s1,8(sp)
 470              		.cfi_restore 9
 471              	.LVL33:
 472 0044 13010102 		addi	sp,sp,32
 473              		.cfi_def_cfa_offset 0
 474 0048 67800000 		jr	ra
 475              		.cfi_endproc
 476              	.LFE55:
 477              		.section	.gcc_except_table._ZN7WorkerBD0Ev,"awG",@progbits,_ZN7WorkerBD5Ev,comdat
GAS LISTING /tmp/ccHYiiCD.s 			page 11


 478              	.LLSDA55:
 479 0000 FF       		.byte	0xff
 480 0001 FF       		.byte	0xff
 481 0002 03       		.byte	0x3
 482 0003 00       		.byte	0
 483              		.section	.text._ZN7WorkerBD0Ev,"axG",@progbits,_ZN7WorkerBD5Ev,comdat
 485              		.section	.text._ZN7WorkerCD2Ev,"axG",@progbits,_ZN7WorkerCD5Ev,comdat
 486              		.align	2
 487              		.weak	_ZN7WorkerCD2Ev
 489              	_ZN7WorkerCD2Ev:
 490              	.LFB49:
  27:test/Threads_CPP_API_test.cpp ****     void workerBodyB(void* arg);
  28:test/Threads_CPP_API_test.cpp **** public:
  29:test/Threads_CPP_API_test.cpp ****     WorkerB():Thread() {}
  30:test/Threads_CPP_API_test.cpp **** 
  31:test/Threads_CPP_API_test.cpp ****     void run() override {
  32:test/Threads_CPP_API_test.cpp ****         workerBodyB(nullptr);
  33:test/Threads_CPP_API_test.cpp ****     }
  34:test/Threads_CPP_API_test.cpp **** };
  35:test/Threads_CPP_API_test.cpp **** 
  36:test/Threads_CPP_API_test.cpp **** class WorkerC: public Thread {
 491              		.loc 2 36 7 is_stmt 1
 492              		.cfi_startproc
 493              		.cfi_personality 0x9b,DW.ref.__gxx_personality_v0
 494              		.cfi_lsda 0x1b,.LLSDA49
 495              	.LVL34:
 496 0000 130101FF 		addi	sp,sp,-16
 497              		.cfi_def_cfa_offset 16
 498 0004 23341100 		sd	ra,8(sp)
 499 0008 23308100 		sd	s0,0(sp)
 500              		.cfi_offset 1, -8
 501              		.cfi_offset 8, -16
 502 000c 13040101 		addi	s0,sp,16
 503              		.cfi_def_cfa 8, 0
 504              	.LVL35:
 505              	.LBB98:
 506              	.LBB99:
  18:test/../h/syscall_cpp.hpp **** 
 507              		.loc 1 18 23 is_stmt 0
 508 0010 97070000 		lla	a5,_ZTV6Thread+16
 508      93870700 
 509 0018 2330F500 		sd	a5,0(a0)
  18:test/../h/syscall_cpp.hpp **** 
 510              		.loc 1 18 25 is_stmt 1
  18:test/../h/syscall_cpp.hpp **** 
 511              		.loc 1 18 36 is_stmt 0
 512 001c 97000000 		call	_Z11thread_exitv
 512      E7800000 
 513              	.LVL36:
 514              	.LBE99:
 515              	.LBE98:
 516              		.loc 2 36 7
 517 0024 83308100 		ld	ra,8(sp)
 518              		.cfi_restore 1
 519 0028 03340100 		ld	s0,0(sp)
 520              		.cfi_restore 8
 521              		.cfi_def_cfa 2, 16
GAS LISTING /tmp/ccHYiiCD.s 			page 12


 522 002c 13010101 		addi	sp,sp,16
 523              		.cfi_def_cfa_offset 0
 524 0030 67800000 		jr	ra
 525              		.cfi_endproc
 526              	.LFE49:
 527              		.section	.gcc_except_table._ZN7WorkerCD2Ev,"awG",@progbits,_ZN7WorkerCD5Ev,comdat
 528              	.LLSDA49:
 529 0000 FF       		.byte	0xff
 530 0001 FF       		.byte	0xff
 531 0002 03       		.byte	0x3
 532 0003 00       		.byte	0
 533              		.section	.text._ZN7WorkerCD2Ev,"axG",@progbits,_ZN7WorkerCD5Ev,comdat
 535              		.weak	_ZN7WorkerCD1Ev
 536              		.set	_ZN7WorkerCD1Ev,_ZN7WorkerCD2Ev
 537              		.section	.text._ZN7WorkerCD0Ev,"axG",@progbits,_ZN7WorkerCD5Ev,comdat
 538              		.align	2
 539              		.weak	_ZN7WorkerCD0Ev
 541              	_ZN7WorkerCD0Ev:
 542              	.LFB51:
 543              		.loc 2 36 7 is_stmt 1
 544              		.cfi_startproc
 545              		.cfi_personality 0x9b,DW.ref.__gxx_personality_v0
 546              		.cfi_lsda 0x1b,.LLSDA51
 547              	.LVL37:
 548 0000 130101FE 		addi	sp,sp,-32
 549              		.cfi_def_cfa_offset 32
 550 0004 233C1100 		sd	ra,24(sp)
 551 0008 23388100 		sd	s0,16(sp)
 552 000c 23349100 		sd	s1,8(sp)
 553              		.cfi_offset 1, -8
 554              		.cfi_offset 8, -16
 555              		.cfi_offset 9, -24
 556 0010 13040102 		addi	s0,sp,32
 557              		.cfi_def_cfa 8, 0
 558 0014 93040500 		mv	s1,a0
 559              	.LVL38:
 560              	.LBB100:
 561              	.LBB101:
 562              	.LBB102:
  18:test/../h/syscall_cpp.hpp **** 
 563              		.loc 1 18 23 is_stmt 0
 564 0018 97070000 		lla	a5,_ZTV6Thread+16
 564      93870700 
 565 0020 2330F500 		sd	a5,0(a0)
  18:test/../h/syscall_cpp.hpp **** 
 566              		.loc 1 18 25 is_stmt 1
  18:test/../h/syscall_cpp.hpp **** 
 567              		.loc 1 18 36 is_stmt 0
 568 0024 97000000 		call	_Z11thread_exitv
 568      E7800000 
 569              	.LVL39:
 570              	.LBE102:
 571              	.LBE101:
 572              	.LBE100:
 573              		.loc 2 36 7
 574 002c 13850400 		mv	a0,s1
 575 0030 97000000 		call	_ZdlPv
GAS LISTING /tmp/ccHYiiCD.s 			page 13


 575      E7800000 
 576              	.LVL40:
 577 0038 83308101 		ld	ra,24(sp)
 578              		.cfi_restore 1
 579 003c 03340101 		ld	s0,16(sp)
 580              		.cfi_restore 8
 581              		.cfi_def_cfa 2, 32
 582 0040 83348100 		ld	s1,8(sp)
 583              		.cfi_restore 9
 584              	.LVL41:
 585 0044 13010102 		addi	sp,sp,32
 586              		.cfi_def_cfa_offset 0
 587 0048 67800000 		jr	ra
 588              		.cfi_endproc
 589              	.LFE51:
 590              		.section	.gcc_except_table._ZN7WorkerCD0Ev,"awG",@progbits,_ZN7WorkerCD5Ev,comdat
 591              	.LLSDA51:
 592 0000 FF       		.byte	0xff
 593 0001 FF       		.byte	0xff
 594 0002 03       		.byte	0x3
 595 0003 00       		.byte	0
 596              		.section	.text._ZN7WorkerCD0Ev,"axG",@progbits,_ZN7WorkerCD5Ev,comdat
 598              		.section	.text._ZN7WorkerDD2Ev,"axG",@progbits,_ZN7WorkerDD5Ev,comdat
 599              		.align	2
 600              		.weak	_ZN7WorkerDD2Ev
 602              	_ZN7WorkerDD2Ev:
 603              	.LFB45:
  37:test/Threads_CPP_API_test.cpp ****     void workerBodyC(void* arg);
  38:test/Threads_CPP_API_test.cpp **** public:
  39:test/Threads_CPP_API_test.cpp ****     WorkerC():Thread() {}
  40:test/Threads_CPP_API_test.cpp **** 
  41:test/Threads_CPP_API_test.cpp ****     void run() override {
  42:test/Threads_CPP_API_test.cpp ****         workerBodyC(nullptr);
  43:test/Threads_CPP_API_test.cpp ****     }
  44:test/Threads_CPP_API_test.cpp **** };
  45:test/Threads_CPP_API_test.cpp **** 
  46:test/Threads_CPP_API_test.cpp **** class WorkerD: public Thread {
 604              		.loc 2 46 7 is_stmt 1
 605              		.cfi_startproc
 606              		.cfi_personality 0x9b,DW.ref.__gxx_personality_v0
 607              		.cfi_lsda 0x1b,.LLSDA45
 608              	.LVL42:
 609 0000 130101FF 		addi	sp,sp,-16
 610              		.cfi_def_cfa_offset 16
 611 0004 23341100 		sd	ra,8(sp)
 612 0008 23308100 		sd	s0,0(sp)
 613              		.cfi_offset 1, -8
 614              		.cfi_offset 8, -16
 615 000c 13040101 		addi	s0,sp,16
 616              		.cfi_def_cfa 8, 0
 617              	.LVL43:
 618              	.LBB103:
 619              	.LBB104:
  18:test/../h/syscall_cpp.hpp **** 
 620              		.loc 1 18 23 is_stmt 0
 621 0010 97070000 		lla	a5,_ZTV6Thread+16
 621      93870700 
GAS LISTING /tmp/ccHYiiCD.s 			page 14


 622 0018 2330F500 		sd	a5,0(a0)
  18:test/../h/syscall_cpp.hpp **** 
 623              		.loc 1 18 25 is_stmt 1
  18:test/../h/syscall_cpp.hpp **** 
 624              		.loc 1 18 36 is_stmt 0
 625 001c 97000000 		call	_Z11thread_exitv
 625      E7800000 
 626              	.LVL44:
 627              	.LBE104:
 628              	.LBE103:
 629              		.loc 2 46 7
 630 0024 83308100 		ld	ra,8(sp)
 631              		.cfi_restore 1
 632 0028 03340100 		ld	s0,0(sp)
 633              		.cfi_restore 8
 634              		.cfi_def_cfa 2, 16
 635 002c 13010101 		addi	sp,sp,16
 636              		.cfi_def_cfa_offset 0
 637 0030 67800000 		jr	ra
 638              		.cfi_endproc
 639              	.LFE45:
 640              		.section	.gcc_except_table._ZN7WorkerDD2Ev,"awG",@progbits,_ZN7WorkerDD5Ev,comdat
 641              	.LLSDA45:
 642 0000 FF       		.byte	0xff
 643 0001 FF       		.byte	0xff
 644 0002 03       		.byte	0x3
 645 0003 00       		.byte	0
 646              		.section	.text._ZN7WorkerDD2Ev,"axG",@progbits,_ZN7WorkerDD5Ev,comdat
 648              		.weak	_ZN7WorkerDD1Ev
 649              		.set	_ZN7WorkerDD1Ev,_ZN7WorkerDD2Ev
 650              		.section	.text._ZN7WorkerDD0Ev,"axG",@progbits,_ZN7WorkerDD5Ev,comdat
 651              		.align	2
 652              		.weak	_ZN7WorkerDD0Ev
 654              	_ZN7WorkerDD0Ev:
 655              	.LFB47:
 656              		.loc 2 46 7 is_stmt 1
 657              		.cfi_startproc
 658              		.cfi_personality 0x9b,DW.ref.__gxx_personality_v0
 659              		.cfi_lsda 0x1b,.LLSDA47
 660              	.LVL45:
 661 0000 130101FE 		addi	sp,sp,-32
 662              		.cfi_def_cfa_offset 32
 663 0004 233C1100 		sd	ra,24(sp)
 664 0008 23388100 		sd	s0,16(sp)
 665 000c 23349100 		sd	s1,8(sp)
 666              		.cfi_offset 1, -8
 667              		.cfi_offset 8, -16
 668              		.cfi_offset 9, -24
 669 0010 13040102 		addi	s0,sp,32
 670              		.cfi_def_cfa 8, 0
 671 0014 93040500 		mv	s1,a0
 672              	.LVL46:
 673              	.LBB105:
 674              	.LBB106:
 675              	.LBB107:
  18:test/../h/syscall_cpp.hpp **** 
 676              		.loc 1 18 23 is_stmt 0
GAS LISTING /tmp/ccHYiiCD.s 			page 15


 677 0018 97070000 		lla	a5,_ZTV6Thread+16
 677      93870700 
 678 0020 2330F500 		sd	a5,0(a0)
  18:test/../h/syscall_cpp.hpp **** 
 679              		.loc 1 18 25 is_stmt 1
  18:test/../h/syscall_cpp.hpp **** 
 680              		.loc 1 18 36 is_stmt 0
 681 0024 97000000 		call	_Z11thread_exitv
 681      E7800000 
 682              	.LVL47:
 683              	.LBE107:
 684              	.LBE106:
 685              	.LBE105:
 686              		.loc 2 46 7
 687 002c 13850400 		mv	a0,s1
 688 0030 97000000 		call	_ZdlPv
 688      E7800000 
 689              	.LVL48:
 690 0038 83308101 		ld	ra,24(sp)
 691              		.cfi_restore 1
 692 003c 03340101 		ld	s0,16(sp)
 693              		.cfi_restore 8
 694              		.cfi_def_cfa 2, 32
 695 0040 83348100 		ld	s1,8(sp)
 696              		.cfi_restore 9
 697              	.LVL49:
 698 0044 13010102 		addi	sp,sp,32
 699              		.cfi_def_cfa_offset 0
 700 0048 67800000 		jr	ra
 701              		.cfi_endproc
 702              	.LFE47:
 703              		.section	.gcc_except_table._ZN7WorkerDD0Ev,"awG",@progbits,_ZN7WorkerDD5Ev,comdat
 704              	.LLSDA47:
 705 0000 FF       		.byte	0xff
 706 0001 FF       		.byte	0xff
 707 0002 03       		.byte	0x3
 708 0003 00       		.byte	0
 709              		.section	.text._ZN7WorkerDD0Ev,"axG",@progbits,_ZN7WorkerDD5Ev,comdat
 711              		.section	.rodata.str1.8,"aMS",@progbits,1
 712              		.align	3
 713              	.LC0:
 714 0000 413A2069 		.string	"A: i="
 714      3D00
 715 0006 0000     		.align	3
 716              	.LC1:
 717 0008 0A00     		.string	"\n"
 718 000a 00000000 		.align	3
 718      0000
 719              	.LC2:
 720 0010 41206669 		.string	"A finished!\n"
 720      6E697368 
 720      6564210A 
 720      00
 721              		.text
 722              		.align	2
 723              		.globl	_ZN7WorkerA11workerBodyAEPv
 725              	_ZN7WorkerA11workerBodyAEPv:
GAS LISTING /tmp/ccHYiiCD.s 			page 16


 726              	.LFB39:
  47:test/Threads_CPP_API_test.cpp ****     void workerBodyD(void* arg);
  48:test/Threads_CPP_API_test.cpp **** public:
  49:test/Threads_CPP_API_test.cpp ****     WorkerD():Thread() {}
  50:test/Threads_CPP_API_test.cpp **** 
  51:test/Threads_CPP_API_test.cpp ****     void run() override {
  52:test/Threads_CPP_API_test.cpp ****         workerBodyD(nullptr);
  53:test/Threads_CPP_API_test.cpp ****     }
  54:test/Threads_CPP_API_test.cpp **** };
  55:test/Threads_CPP_API_test.cpp **** 
  56:test/Threads_CPP_API_test.cpp **** void WorkerA::workerBodyA(void *arg) {
 727              		.loc 2 56 38 is_stmt 1
 728              		.cfi_startproc
 729              	.LVL50:
 730 0074 130101FE 		addi	sp,sp,-32
 731              		.cfi_def_cfa_offset 32
 732 0078 233C1100 		sd	ra,24(sp)
 733 007c 23388100 		sd	s0,16(sp)
 734 0080 23349100 		sd	s1,8(sp)
 735 0084 23302101 		sd	s2,0(sp)
 736              		.cfi_offset 1, -8
 737              		.cfi_offset 8, -16
 738              		.cfi_offset 9, -24
 739              		.cfi_offset 18, -32
 740 0088 13040102 		addi	s0,sp,32
 741              		.cfi_def_cfa 8, 0
  57:test/Threads_CPP_API_test.cpp ****     for (uint64 i = 0; i < 10; i++) {
 742              		.loc 2 57 5
 743              	.LVL51:
 744              	.LBB108:
 745              		.loc 2 57 17 is_stmt 0
 746 008c 13090000 		li	s2,0
 747 0090 6F008003 		j	.L41
 748              	.LVL52:
 749              	.L38:
 750              	.LBB109:
 751              	.LBB110:
 752              	.LBB111:
  58:test/Threads_CPP_API_test.cpp ****         printString("A: i="); printInt(i); printString("\n");
  59:test/Threads_CPP_API_test.cpp ****         for (uint64 j = 0; j < 10000; j++) {
  60:test/Threads_CPP_API_test.cpp ****             for (uint64 k = 0; k < 30000; k++) { /* busy wait */ }
  61:test/Threads_CPP_API_test.cpp ****             thread_dispatch();
 753              		.loc 2 61 13 is_stmt 1 discriminator 2
 754              		.loc 2 61 28 is_stmt 0 discriminator 2
 755 0094 97000000 		call	_Z15thread_dispatchv
 755      E7800000 
 756              	.LVL53:
 757              	.LBE111:
  59:test/Threads_CPP_API_test.cpp ****             for (uint64 k = 0; k < 30000; k++) { /* busy wait */ }
 758              		.loc 2 59 9 is_stmt 1 discriminator 2
 759 009c 93841400 		addi	s1,s1,1
 760              	.LVL54:
 761              	.L40:
  59:test/Threads_CPP_API_test.cpp ****             for (uint64 k = 0; k < 30000; k++) { /* busy wait */ }
 762              		.loc 2 59 30 discriminator 1
 763 00a0 B7270000 		li	a5,8192
 764 00a4 9387F770 		addi	a5,a5,1807
GAS LISTING /tmp/ccHYiiCD.s 			page 17


 765 00a8 63EE9700 		bgtu	s1,a5,.L37
 766              	.LBB113:
 767              	.LBB112:
  60:test/Threads_CPP_API_test.cpp ****             thread_dispatch();
 768              		.loc 2 60 25 is_stmt 0
 769 00ac 13070000 		li	a4,0
 770              	.L39:
 771              	.LVL55:
  60:test/Threads_CPP_API_test.cpp ****             thread_dispatch();
 772              		.loc 2 60 34 is_stmt 1 discriminator 3
 773 00b0 B7770000 		li	a5,28672
 774 00b4 9387F752 		addi	a5,a5,1327
 775 00b8 E3EEE7FC 		bgtu	a4,a5,.L38
  60:test/Threads_CPP_API_test.cpp ****             thread_dispatch();
 776              		.loc 2 60 13 discriminator 2
 777 00bc 13071700 		addi	a4,a4,1
 778              	.LVL56:
 779 00c0 6FF01FFF 		j	.L39
 780              	.LVL57:
 781              	.L37:
 782              	.LBE112:
 783              	.LBE113:
 784              	.LBE110:
 785              	.LBE109:
  57:test/Threads_CPP_API_test.cpp ****         printString("A: i="); printInt(i); printString("\n");
 786              		.loc 2 57 5 discriminator 2
 787 00c4 13091900 		addi	s2,s2,1
 788              	.LVL58:
 789              	.L41:
  57:test/Threads_CPP_API_test.cpp ****         printString("A: i="); printInt(i); printString("\n");
 790              		.loc 2 57 26 discriminator 1
 791 00c8 93079000 		li	a5,9
 792 00cc 63E02705 		bgtu	s2,a5,.L36
 793              	.LBB115:
  58:test/Threads_CPP_API_test.cpp ****         for (uint64 j = 0; j < 10000; j++) {
 794              		.loc 2 58 9
  58:test/Threads_CPP_API_test.cpp ****         for (uint64 j = 0; j < 10000; j++) {
 795              		.loc 2 58 20 is_stmt 0
 796 00d0 17050000 		lla	a0,.LC0
 796      13050500 
 797 00d8 97000000 		call	_Z11printStringPKc
 797      E7800000 
 798              	.LVL59:
  58:test/Threads_CPP_API_test.cpp ****         for (uint64 j = 0; j < 10000; j++) {
 799              		.loc 2 58 31 is_stmt 1
  58:test/Threads_CPP_API_test.cpp ****         for (uint64 j = 0; j < 10000; j++) {
 800              		.loc 2 58 39 is_stmt 0
 801 00e0 13060000 		li	a2,0
 802 00e4 9305A000 		li	a1,10
 803 00e8 1B050900 		sext.w	a0,s2
 804 00ec 97000000 		call	_Z8printIntiii
 804      E7800000 
 805              	.LVL60:
  58:test/Threads_CPP_API_test.cpp ****         for (uint64 j = 0; j < 10000; j++) {
 806              		.loc 2 58 44 is_stmt 1
  58:test/Threads_CPP_API_test.cpp ****         for (uint64 j = 0; j < 10000; j++) {
 807              		.loc 2 58 55 is_stmt 0
GAS LISTING /tmp/ccHYiiCD.s 			page 18


 808 00f4 17050000 		lla	a0,.LC1
 808      13050500 
 809 00fc 97000000 		call	_Z11printStringPKc
 809      E7800000 
 810              	.LVL61:
  59:test/Threads_CPP_API_test.cpp ****             for (uint64 k = 0; k < 30000; k++) { /* busy wait */ }
 811              		.loc 2 59 9 is_stmt 1
 812              	.LBB114:
  59:test/Threads_CPP_API_test.cpp ****             for (uint64 k = 0; k < 30000; k++) { /* busy wait */ }
 813              		.loc 2 59 21 is_stmt 0
 814 0104 93040000 		li	s1,0
 815 0108 6FF09FF9 		j	.L40
 816              	.LVL62:
 817              	.L36:
 818              	.LBE114:
 819              	.LBE115:
 820              	.LBE108:
  62:test/Threads_CPP_API_test.cpp ****         }
  63:test/Threads_CPP_API_test.cpp ****     }
  64:test/Threads_CPP_API_test.cpp ****     printString("A finished!\n");
 821              		.loc 2 64 5 is_stmt 1
 822              		.loc 2 64 16 is_stmt 0
 823 010c 17050000 		lla	a0,.LC2
 823      13050500 
 824 0114 97000000 		call	_Z11printStringPKc
 824      E7800000 
 825              	.LVL63:
  65:test/Threads_CPP_API_test.cpp ****     finishedA = true;
 826              		.loc 2 65 5 is_stmt 1
 827              		.loc 2 65 15 is_stmt 0
 828 011c 93071000 		li	a5,1
 829 0120 17070000 		sb	a5,_ZL9finishedA,a4
 829      2300F700 
  66:test/Threads_CPP_API_test.cpp **** }
 830              		.loc 2 66 1
 831 0128 83308101 		ld	ra,24(sp)
 832              		.cfi_restore 1
 833 012c 03340101 		ld	s0,16(sp)
 834              		.cfi_restore 8
 835              		.cfi_def_cfa 2, 32
 836 0130 83348100 		ld	s1,8(sp)
 837              		.cfi_restore 9
 838 0134 03390100 		ld	s2,0(sp)
 839              		.cfi_restore 18
 840              	.LVL64:
 841 0138 13010102 		addi	sp,sp,32
 842              		.cfi_def_cfa_offset 0
 843 013c 67800000 		jr	ra
 844              		.cfi_endproc
 845              	.LFE39:
 847              		.section	.text._ZN7WorkerA3runEv,"axG",@progbits,_ZN7WorkerA3runEv,comdat
 848              		.align	2
 849              		.weak	_ZN7WorkerA3runEv
 851              	_ZN7WorkerA3runEv:
 852              	.LFB26:
  21:test/Threads_CPP_API_test.cpp ****         workerBodyA(nullptr);
 853              		.loc 2 21 10 is_stmt 1
GAS LISTING /tmp/ccHYiiCD.s 			page 19


 854              		.cfi_startproc
 855              	.LVL65:
 856 0000 130101FF 		addi	sp,sp,-16
 857              		.cfi_def_cfa_offset 16
 858 0004 23341100 		sd	ra,8(sp)
 859 0008 23308100 		sd	s0,0(sp)
 860              		.cfi_offset 1, -8
 861              		.cfi_offset 8, -16
 862 000c 13040101 		addi	s0,sp,16
 863              		.cfi_def_cfa 8, 0
  22:test/Threads_CPP_API_test.cpp ****     }
 864              		.loc 2 22 9
  22:test/Threads_CPP_API_test.cpp ****     }
 865              		.loc 2 22 20 is_stmt 0
 866 0010 93050000 		li	a1,0
 867 0014 97000000 		call	_ZN7WorkerA11workerBodyAEPv
 867      E7800000 
 868              	.LVL66:
  23:test/Threads_CPP_API_test.cpp **** };
 869              		.loc 2 23 5
 870 001c 83308100 		ld	ra,8(sp)
 871              		.cfi_restore 1
 872 0020 03340100 		ld	s0,0(sp)
 873              		.cfi_restore 8
 874              		.cfi_def_cfa 2, 16
 875 0024 13010101 		addi	sp,sp,16
 876              		.cfi_def_cfa_offset 0
 877 0028 67800000 		jr	ra
 878              		.cfi_endproc
 879              	.LFE26:
 881              		.section	.rodata.str1.8
 882 001d 000000   		.align	3
 883              	.LC3:
 884 0020 423A2069 		.string	"B: i="
 884      3D00
 885 0026 0000     		.align	3
 886              	.LC4:
 887 0028 42206669 		.string	"B finished!\n"
 887      6E697368 
 887      6564210A 
 887      00
 888              		.text
 889              		.align	2
 890              		.globl	_ZN7WorkerB11workerBodyBEPv
 892              	_ZN7WorkerB11workerBodyBEPv:
 893              	.LFB40:
  67:test/Threads_CPP_API_test.cpp **** 
  68:test/Threads_CPP_API_test.cpp **** void WorkerB::workerBodyB(void *arg) {
 894              		.loc 2 68 38 is_stmt 1
 895              		.cfi_startproc
 896              	.LVL67:
 897 0140 130101FE 		addi	sp,sp,-32
 898              		.cfi_def_cfa_offset 32
 899 0144 233C1100 		sd	ra,24(sp)
 900 0148 23388100 		sd	s0,16(sp)
 901 014c 23349100 		sd	s1,8(sp)
 902 0150 23302101 		sd	s2,0(sp)
GAS LISTING /tmp/ccHYiiCD.s 			page 20


 903              		.cfi_offset 1, -8
 904              		.cfi_offset 8, -16
 905              		.cfi_offset 9, -24
 906              		.cfi_offset 18, -32
 907 0154 13040102 		addi	s0,sp,32
 908              		.cfi_def_cfa 8, 0
  69:test/Threads_CPP_API_test.cpp ****     for (uint64 i = 0; i < 16; i++) {
 909              		.loc 2 69 5
 910              	.LVL68:
 911              	.LBB116:
 912              		.loc 2 69 17 is_stmt 0
 913 0158 13090000 		li	s2,0
 914 015c 6F008003 		j	.L51
 915              	.LVL69:
 916              	.L48:
 917              	.LBB117:
 918              	.LBB118:
 919              	.LBB119:
  70:test/Threads_CPP_API_test.cpp ****         printString("B: i="); printInt(i); printString("\n");
  71:test/Threads_CPP_API_test.cpp ****         for (uint64 j = 0; j < 10000; j++) {
  72:test/Threads_CPP_API_test.cpp ****             for (uint64 k = 0; k < 30000; k++) { /* busy wait */ }
  73:test/Threads_CPP_API_test.cpp ****             thread_dispatch();
 920              		.loc 2 73 13 is_stmt 1 discriminator 2
 921              		.loc 2 73 28 is_stmt 0 discriminator 2
 922 0160 97000000 		call	_Z15thread_dispatchv
 922      E7800000 
 923              	.LVL70:
 924              	.LBE119:
  71:test/Threads_CPP_API_test.cpp ****             for (uint64 k = 0; k < 30000; k++) { /* busy wait */ }
 925              		.loc 2 71 9 is_stmt 1 discriminator 2
 926 0168 93841400 		addi	s1,s1,1
 927              	.LVL71:
 928              	.L50:
  71:test/Threads_CPP_API_test.cpp ****             for (uint64 k = 0; k < 30000; k++) { /* busy wait */ }
 929              		.loc 2 71 30 discriminator 1
 930 016c B7270000 		li	a5,8192
 931 0170 9387F770 		addi	a5,a5,1807
 932 0174 63EE9700 		bgtu	s1,a5,.L47
 933              	.LBB121:
 934              	.LBB120:
  72:test/Threads_CPP_API_test.cpp ****             thread_dispatch();
 935              		.loc 2 72 25 is_stmt 0
 936 0178 13070000 		li	a4,0
 937              	.L49:
 938              	.LVL72:
  72:test/Threads_CPP_API_test.cpp ****             thread_dispatch();
 939              		.loc 2 72 34 is_stmt 1 discriminator 3
 940 017c B7770000 		li	a5,28672
 941 0180 9387F752 		addi	a5,a5,1327
 942 0184 E3EEE7FC 		bgtu	a4,a5,.L48
  72:test/Threads_CPP_API_test.cpp ****             thread_dispatch();
 943              		.loc 2 72 13 discriminator 2
 944 0188 13071700 		addi	a4,a4,1
 945              	.LVL73:
 946 018c 6FF01FFF 		j	.L49
 947              	.LVL74:
 948              	.L47:
GAS LISTING /tmp/ccHYiiCD.s 			page 21


 949              	.LBE120:
 950              	.LBE121:
 951              	.LBE118:
 952              	.LBE117:
  69:test/Threads_CPP_API_test.cpp ****         printString("B: i="); printInt(i); printString("\n");
 953              		.loc 2 69 5 discriminator 2
 954 0190 13091900 		addi	s2,s2,1
 955              	.LVL75:
 956              	.L51:
  69:test/Threads_CPP_API_test.cpp ****         printString("B: i="); printInt(i); printString("\n");
 957              		.loc 2 69 26 discriminator 1
 958 0194 9307F000 		li	a5,15
 959 0198 63E02705 		bgtu	s2,a5,.L46
 960              	.LBB123:
  70:test/Threads_CPP_API_test.cpp ****         for (uint64 j = 0; j < 10000; j++) {
 961              		.loc 2 70 9
  70:test/Threads_CPP_API_test.cpp ****         for (uint64 j = 0; j < 10000; j++) {
 962              		.loc 2 70 20 is_stmt 0
 963 019c 17050000 		lla	a0,.LC3
 963      13050500 
 964 01a4 97000000 		call	_Z11printStringPKc
 964      E7800000 
 965              	.LVL76:
  70:test/Threads_CPP_API_test.cpp ****         for (uint64 j = 0; j < 10000; j++) {
 966              		.loc 2 70 31 is_stmt 1
  70:test/Threads_CPP_API_test.cpp ****         for (uint64 j = 0; j < 10000; j++) {
 967              		.loc 2 70 39 is_stmt 0
 968 01ac 13060000 		li	a2,0
 969 01b0 9305A000 		li	a1,10
 970 01b4 1B050900 		sext.w	a0,s2
 971 01b8 97000000 		call	_Z8printIntiii
 971      E7800000 
 972              	.LVL77:
  70:test/Threads_CPP_API_test.cpp ****         for (uint64 j = 0; j < 10000; j++) {
 973              		.loc 2 70 44 is_stmt 1
  70:test/Threads_CPP_API_test.cpp ****         for (uint64 j = 0; j < 10000; j++) {
 974              		.loc 2 70 55 is_stmt 0
 975 01c0 17050000 		lla	a0,.LC1
 975      13050500 
 976 01c8 97000000 		call	_Z11printStringPKc
 976      E7800000 
 977              	.LVL78:
  71:test/Threads_CPP_API_test.cpp ****             for (uint64 k = 0; k < 30000; k++) { /* busy wait */ }
 978              		.loc 2 71 9 is_stmt 1
 979              	.LBB122:
  71:test/Threads_CPP_API_test.cpp ****             for (uint64 k = 0; k < 30000; k++) { /* busy wait */ }
 980              		.loc 2 71 21 is_stmt 0
 981 01d0 93040000 		li	s1,0
 982 01d4 6FF09FF9 		j	.L50
 983              	.LVL79:
 984              	.L46:
 985              	.LBE122:
 986              	.LBE123:
 987              	.LBE116:
  74:test/Threads_CPP_API_test.cpp ****         }
  75:test/Threads_CPP_API_test.cpp ****     }
  76:test/Threads_CPP_API_test.cpp ****     printString("B finished!\n");
GAS LISTING /tmp/ccHYiiCD.s 			page 22


 988              		.loc 2 76 5 is_stmt 1
 989              		.loc 2 76 16 is_stmt 0
 990 01d8 17050000 		lla	a0,.LC4
 990      13050500 
 991 01e0 97000000 		call	_Z11printStringPKc
 991      E7800000 
 992              	.LVL80:
  77:test/Threads_CPP_API_test.cpp ****     finishedB = true;
 993              		.loc 2 77 5 is_stmt 1
 994              		.loc 2 77 15 is_stmt 0
 995 01e8 93071000 		li	a5,1
 996 01ec 17070000 		sb	a5,_ZL9finishedB,a4
 996      2300F700 
  78:test/Threads_CPP_API_test.cpp ****     thread_dispatch();
 997              		.loc 2 78 5 is_stmt 1
 998              		.loc 2 78 20 is_stmt 0
 999 01f4 97000000 		call	_Z15thread_dispatchv
 999      E7800000 
 1000              	.LVL81:
  79:test/Threads_CPP_API_test.cpp **** }
 1001              		.loc 2 79 1
 1002 01fc 83308101 		ld	ra,24(sp)
 1003              		.cfi_restore 1
 1004 0200 03340101 		ld	s0,16(sp)
 1005              		.cfi_restore 8
 1006              		.cfi_def_cfa 2, 32
 1007 0204 83348100 		ld	s1,8(sp)
 1008              		.cfi_restore 9
 1009 0208 03390100 		ld	s2,0(sp)
 1010              		.cfi_restore 18
 1011              	.LVL82:
 1012 020c 13010102 		addi	sp,sp,32
 1013              		.cfi_def_cfa_offset 0
 1014 0210 67800000 		jr	ra
 1015              		.cfi_endproc
 1016              	.LFE40:
 1018              		.section	.text._ZN7WorkerB3runEv,"axG",@progbits,_ZN7WorkerB3runEv,comdat
 1019              		.align	2
 1020              		.weak	_ZN7WorkerB3runEv
 1022              	_ZN7WorkerB3runEv:
 1023              	.LFB30:
  31:test/Threads_CPP_API_test.cpp ****         workerBodyB(nullptr);
 1024              		.loc 2 31 10 is_stmt 1
 1025              		.cfi_startproc
 1026              	.LVL83:
 1027 0000 130101FF 		addi	sp,sp,-16
 1028              		.cfi_def_cfa_offset 16
 1029 0004 23341100 		sd	ra,8(sp)
 1030 0008 23308100 		sd	s0,0(sp)
 1031              		.cfi_offset 1, -8
 1032              		.cfi_offset 8, -16
 1033 000c 13040101 		addi	s0,sp,16
 1034              		.cfi_def_cfa 8, 0
  32:test/Threads_CPP_API_test.cpp ****     }
 1035              		.loc 2 32 9
  32:test/Threads_CPP_API_test.cpp ****     }
 1036              		.loc 2 32 20 is_stmt 0
GAS LISTING /tmp/ccHYiiCD.s 			page 23


 1037 0010 93050000 		li	a1,0
 1038 0014 97000000 		call	_ZN7WorkerB11workerBodyBEPv
 1038      E7800000 
 1039              	.LVL84:
  33:test/Threads_CPP_API_test.cpp **** };
 1040              		.loc 2 33 5
 1041 001c 83308100 		ld	ra,8(sp)
 1042              		.cfi_restore 1
 1043 0020 03340100 		ld	s0,0(sp)
 1044              		.cfi_restore 8
 1045              		.cfi_def_cfa 2, 16
 1046 0024 13010101 		addi	sp,sp,16
 1047              		.cfi_def_cfa_offset 0
 1048 0028 67800000 		jr	ra
 1049              		.cfi_endproc
 1050              	.LFE30:
 1052              		.section	.rodata.str1.8
 1053 0035 000000   		.align	3
 1054              	.LC5:
 1055 0038 433A2069 		.string	"C: i="
 1055      3D00
 1056 003e 0000     		.align	3
 1057              	.LC6:
 1058 0040 433A2064 		.string	"C: dispatch\n"
 1058      69737061 
 1058      7463680A 
 1058      00
 1059 004d 000000   		.align	3
 1060              	.LC7:
 1061 0050 433A2074 		.string	"C: t1="
 1061      313D00
 1062 0057 00       		.align	3
 1063              	.LC8:
 1064 0058 433A2066 		.string	"C: fibonaci="
 1064      69626F6E 
 1064      6163693D 
 1064      00
 1065              		.text
 1066              		.align	2
 1067              		.globl	_ZN7WorkerC11workerBodyCEPv
 1069              	_ZN7WorkerC11workerBodyCEPv:
 1070              	.LFB41:
  80:test/Threads_CPP_API_test.cpp **** 
  81:test/Threads_CPP_API_test.cpp **** void WorkerC::workerBodyC(void *arg) {
 1071              		.loc 2 81 38 is_stmt 1
 1072              		.cfi_startproc
 1073              	.LVL85:
 1074 0214 130101FE 		addi	sp,sp,-32
 1075              		.cfi_def_cfa_offset 32
 1076 0218 233C1100 		sd	ra,24(sp)
 1077 021c 23388100 		sd	s0,16(sp)
 1078 0220 23349100 		sd	s1,8(sp)
 1079 0224 23302101 		sd	s2,0(sp)
 1080              		.cfi_offset 1, -8
 1081              		.cfi_offset 8, -16
 1082              		.cfi_offset 9, -24
 1083              		.cfi_offset 18, -32
GAS LISTING /tmp/ccHYiiCD.s 			page 24


 1084 0228 13040102 		addi	s0,sp,32
 1085              		.cfi_def_cfa 8, 0
  82:test/Threads_CPP_API_test.cpp ****     uint8 i = 0;
 1086              		.loc 2 82 5
 1087              	.LVL86:
 1088              		.loc 2 82 11 is_stmt 0
 1089 022c 93040000 		li	s1,0
 1090 0230 6F000004 		j	.L57
 1091              	.LVL87:
 1092              	.L61:
  83:test/Threads_CPP_API_test.cpp ****     for (; i < 3; i++) {
  84:test/Threads_CPP_API_test.cpp ****         printString("C: i="); printInt(i); printString("\n");
 1093              		.loc 2 84 9 is_stmt 1 discriminator 1
 1094              		.loc 2 84 20 is_stmt 0 discriminator 1
 1095 0234 17050000 		lla	a0,.LC5
 1095      13050500 
 1096 023c 97000000 		call	_Z11printStringPKc
 1096      E7800000 
 1097              	.LVL88:
 1098              		.loc 2 84 31 is_stmt 1 discriminator 1
 1099              		.loc 2 84 39 is_stmt 0 discriminator 1
 1100 0244 13060000 		li	a2,0
 1101 0248 9305A000 		li	a1,10
 1102 024c 13850400 		mv	a0,s1
 1103 0250 97000000 		call	_Z8printIntiii
 1103      E7800000 
 1104              	.LVL89:
 1105              		.loc 2 84 44 is_stmt 1 discriminator 1
 1106              		.loc 2 84 55 is_stmt 0 discriminator 1
 1107 0258 17050000 		lla	a0,.LC1
 1107      13050500 
 1108 0260 97000000 		call	_Z11printStringPKc
 1108      E7800000 
 1109              	.LVL90:
  83:test/Threads_CPP_API_test.cpp ****     for (; i < 3; i++) {
 1110              		.loc 2 83 5 is_stmt 1 discriminator 1
 1111 0268 9B841400 		addiw	s1,s1,1
 1112              	.LVL91:
 1113 026c 93F4F40F 		andi	s1,s1,0xff
 1114              	.LVL92:
 1115              	.L57:
  83:test/Threads_CPP_API_test.cpp ****     for (; i < 3; i++) {
 1116              		.loc 2 83 5 discriminator 2
  83:test/Threads_CPP_API_test.cpp ****     for (; i < 3; i++) {
 1117              		.loc 2 83 14 discriminator 2
 1118 0270 93072000 		li	a5,2
 1119 0274 E3F097FC 		bleu	s1,a5,.L61
  85:test/Threads_CPP_API_test.cpp ****     }
  86:test/Threads_CPP_API_test.cpp **** 
  87:test/Threads_CPP_API_test.cpp ****     printString("C: dispatch\n");
 1120              		.loc 2 87 5
 1121              		.loc 2 87 16 is_stmt 0
 1122 0278 17050000 		lla	a0,.LC6
 1122      13050500 
 1123 0280 97000000 		call	_Z11printStringPKc
 1123      E7800000 
 1124              	.LVL93:
GAS LISTING /tmp/ccHYiiCD.s 			page 25


  88:test/Threads_CPP_API_test.cpp ****     __asm__ ("li t1, 7");
 1125              		.loc 2 88 5 is_stmt 1
 1126              		.loc 2 88 25 is_stmt 0
 1127              	 #APP
 1128              	# 88 "test/Threads_CPP_API_test.cpp" 1
  89              	    thread_dispatch();
 1129              		li t1, 7
 1130              	# 0 "" 2
 1131              		.loc 2 89 5 is_stmt 1
 1132              		.loc 2 89 20 is_stmt 0
 1133              	 #NO_APP
 1134 028c 97000000 		call	_Z15thread_dispatchv
 1134      E7800000 
 1135              	.LVL94:
  90:test/Threads_CPP_API_test.cpp **** 
  91:test/Threads_CPP_API_test.cpp ****     uint64 t1 = 0;
 1136              		.loc 2 91 5 is_stmt 1
  92:test/Threads_CPP_API_test.cpp ****     __asm__ ("mv %[t1], t1" : [t1] "=r"(t1));
 1137              		.loc 2 92 5
 1138              		.loc 2 92 45 is_stmt 0
 1139              	 #APP
 1140              	# 92 "test/Threads_CPP_API_test.cpp" 1
  93              	
 1141              		mv s2, t1
 1142              	# 0 "" 2
 1143              	.LVL95:
  94:test/Threads_CPP_API_test.cpp ****     printString("C: t1="); printInt(t1); printString("\n");
 1144              		.loc 2 94 5 is_stmt 1
 1145              		.loc 2 94 16 is_stmt 0
 1146              	 #NO_APP
 1147 0298 17050000 		lla	a0,.LC7
 1147      13050500 
 1148 02a0 97000000 		call	_Z11printStringPKc
 1148      E7800000 
 1149              	.LVL96:
 1150              		.loc 2 94 28 is_stmt 1
 1151              		.loc 2 94 36 is_stmt 0
 1152 02a8 13060000 		li	a2,0
 1153 02ac 9305A000 		li	a1,10
 1154 02b0 1B050900 		sext.w	a0,s2
 1155 02b4 97000000 		call	_Z8printIntiii
 1155      E7800000 
 1156              	.LVL97:
 1157              		.loc 2 94 42 is_stmt 1
 1158              		.loc 2 94 53 is_stmt 0
 1159 02bc 17050000 		lla	a0,.LC1
 1159      13050500 
 1160 02c4 97000000 		call	_Z11printStringPKc
 1160      E7800000 
 1161              	.LVL98:
  95:test/Threads_CPP_API_test.cpp **** 
  96:test/Threads_CPP_API_test.cpp ****     uint64 result = fibonacci(12);
 1162              		.loc 2 96 5 is_stmt 1
 1163              		.loc 2 96 30 is_stmt 0
 1164 02cc 1305C000 		li	a0,12
 1165 02d0 97000000 		call	_ZL9fibonaccim
 1165      E7800000 
GAS LISTING /tmp/ccHYiiCD.s 			page 26


 1166              	.LVL99:
 1167 02d8 13090500 		mv	s2,a0
 1168              	.LVL100:
  97:test/Threads_CPP_API_test.cpp ****     printString("C: fibonaci="); printInt(result); printString("\n");
 1169              		.loc 2 97 5 is_stmt 1
 1170              		.loc 2 97 16 is_stmt 0
 1171 02dc 17050000 		lla	a0,.LC8
 1171      13050500 
 1172              	.LVL101:
 1173 02e4 97000000 		call	_Z11printStringPKc
 1173      E7800000 
 1174              	.LVL102:
 1175              		.loc 2 97 34 is_stmt 1
 1176              		.loc 2 97 42 is_stmt 0
 1177 02ec 13060000 		li	a2,0
 1178 02f0 9305A000 		li	a1,10
 1179 02f4 1B050900 		sext.w	a0,s2
 1180 02f8 97000000 		call	_Z8printIntiii
 1180      E7800000 
 1181              	.LVL103:
 1182              		.loc 2 97 52 is_stmt 1
 1183              		.loc 2 97 63 is_stmt 0
 1184 0300 17050000 		lla	a0,.LC1
 1184      13050500 
 1185 0308 97000000 		call	_Z11printStringPKc
 1185      E7800000 
 1186              	.LVL104:
 1187 0310 6F000004 		j	.L59
 1188              	.L62:
  98:test/Threads_CPP_API_test.cpp **** 
  99:test/Threads_CPP_API_test.cpp ****     for (; i < 6; i++) {
 100:test/Threads_CPP_API_test.cpp ****         printString("C: i="); printInt(i); printString("\n");
 1189              		.loc 2 100 9 is_stmt 1 discriminator 1
 1190              		.loc 2 100 20 is_stmt 0 discriminator 1
 1191 0314 17050000 		lla	a0,.LC5
 1191      13050500 
 1192 031c 97000000 		call	_Z11printStringPKc
 1192      E7800000 
 1193              	.LVL105:
 1194              		.loc 2 100 31 is_stmt 1 discriminator 1
 1195              		.loc 2 100 39 is_stmt 0 discriminator 1
 1196 0324 13060000 		li	a2,0
 1197 0328 9305A000 		li	a1,10
 1198 032c 13850400 		mv	a0,s1
 1199 0330 97000000 		call	_Z8printIntiii
 1199      E7800000 
 1200              	.LVL106:
 1201              		.loc 2 100 44 is_stmt 1 discriminator 1
 1202              		.loc 2 100 55 is_stmt 0 discriminator 1
 1203 0338 17050000 		lla	a0,.LC1
 1203      13050500 
 1204 0340 97000000 		call	_Z11printStringPKc
 1204      E7800000 
 1205              	.LVL107:
  99:test/Threads_CPP_API_test.cpp ****         printString("C: i="); printInt(i); printString("\n");
 1206              		.loc 2 99 5 is_stmt 1 discriminator 1
 1207 0348 9B841400 		addiw	s1,s1,1
GAS LISTING /tmp/ccHYiiCD.s 			page 27


 1208              	.LVL108:
 1209 034c 93F4F40F 		andi	s1,s1,0xff
 1210              	.LVL109:
 1211              	.L59:
  99:test/Threads_CPP_API_test.cpp ****         printString("C: i="); printInt(i); printString("\n");
 1212              		.loc 2 99 5 discriminator 2
  99:test/Threads_CPP_API_test.cpp ****         printString("C: i="); printInt(i); printString("\n");
 1213              		.loc 2 99 14 discriminator 2
 1214 0350 93075000 		li	a5,5
 1215 0354 E3F097FC 		bleu	s1,a5,.L62
 101:test/Threads_CPP_API_test.cpp ****     }
 102:test/Threads_CPP_API_test.cpp **** 
 103:test/Threads_CPP_API_test.cpp ****     printString("A finished!\n");
 1216              		.loc 2 103 5
 1217              		.loc 2 103 16 is_stmt 0
 1218 0358 17050000 		lla	a0,.LC2
 1218      13050500 
 1219 0360 97000000 		call	_Z11printStringPKc
 1219      E7800000 
 1220              	.LVL110:
 104:test/Threads_CPP_API_test.cpp ****     finishedC = true;
 1221              		.loc 2 104 5 is_stmt 1
 1222              		.loc 2 104 15 is_stmt 0
 1223 0368 93071000 		li	a5,1
 1224 036c 17070000 		sb	a5,_ZL9finishedC,a4
 1224      2300F700 
 105:test/Threads_CPP_API_test.cpp ****     thread_dispatch();
 1225              		.loc 2 105 5 is_stmt 1
 1226              		.loc 2 105 20 is_stmt 0
 1227 0374 97000000 		call	_Z15thread_dispatchv
 1227      E7800000 
 1228              	.LVL111:
 106:test/Threads_CPP_API_test.cpp **** }
 1229              		.loc 2 106 1
 1230 037c 83308101 		ld	ra,24(sp)
 1231              		.cfi_restore 1
 1232 0380 03340101 		ld	s0,16(sp)
 1233              		.cfi_restore 8
 1234              		.cfi_def_cfa 2, 32
 1235 0384 83348100 		ld	s1,8(sp)
 1236              		.cfi_restore 9
 1237              	.LVL112:
 1238 0388 03390100 		ld	s2,0(sp)
 1239              		.cfi_restore 18
 1240              	.LVL113:
 1241 038c 13010102 		addi	sp,sp,32
 1242              		.cfi_def_cfa_offset 0
 1243 0390 67800000 		jr	ra
 1244              		.cfi_endproc
 1245              	.LFE41:
 1247              		.section	.text._ZN7WorkerC3runEv,"axG",@progbits,_ZN7WorkerC3runEv,comdat
 1248              		.align	2
 1249              		.weak	_ZN7WorkerC3runEv
 1251              	_ZN7WorkerC3runEv:
 1252              	.LFB34:
  41:test/Threads_CPP_API_test.cpp ****         workerBodyC(nullptr);
 1253              		.loc 2 41 10 is_stmt 1
GAS LISTING /tmp/ccHYiiCD.s 			page 28


 1254              		.cfi_startproc
 1255              	.LVL114:
 1256 0000 130101FF 		addi	sp,sp,-16
 1257              		.cfi_def_cfa_offset 16
 1258 0004 23341100 		sd	ra,8(sp)
 1259 0008 23308100 		sd	s0,0(sp)
 1260              		.cfi_offset 1, -8
 1261              		.cfi_offset 8, -16
 1262 000c 13040101 		addi	s0,sp,16
 1263              		.cfi_def_cfa 8, 0
  42:test/Threads_CPP_API_test.cpp ****     }
 1264              		.loc 2 42 9
  42:test/Threads_CPP_API_test.cpp ****     }
 1265              		.loc 2 42 20 is_stmt 0
 1266 0010 93050000 		li	a1,0
 1267 0014 97000000 		call	_ZN7WorkerC11workerBodyCEPv
 1267      E7800000 
 1268              	.LVL115:
  43:test/Threads_CPP_API_test.cpp **** };
 1269              		.loc 2 43 5
 1270 001c 83308100 		ld	ra,8(sp)
 1271              		.cfi_restore 1
 1272 0020 03340100 		ld	s0,0(sp)
 1273              		.cfi_restore 8
 1274              		.cfi_def_cfa 2, 16
 1275 0024 13010101 		addi	sp,sp,16
 1276              		.cfi_def_cfa_offset 0
 1277 0028 67800000 		jr	ra
 1278              		.cfi_endproc
 1279              	.LFE34:
 1281              		.section	.rodata.str1.8
 1282 0065 000000   		.align	3
 1283              	.LC9:
 1284 0068 443A2069 		.string	"D: i="
 1284      3D00
 1285 006e 0000     		.align	3
 1286              	.LC10:
 1287 0070 443A2064 		.string	"D: dispatch\n"
 1287      69737061 
 1287      7463680A 
 1287      00
 1288 007d 000000   		.align	3
 1289              	.LC11:
 1290 0080 443A2066 		.string	"D: fibonaci="
 1290      69626F6E 
 1290      6163693D 
 1290      00
 1291 008d 000000   		.align	3
 1292              	.LC12:
 1293 0090 44206669 		.string	"D finished!\n"
 1293      6E697368 
 1293      6564210A 
 1293      00
 1294              		.text
 1295              		.align	2
 1296              		.globl	_ZN7WorkerD11workerBodyDEPv
 1298              	_ZN7WorkerD11workerBodyDEPv:
GAS LISTING /tmp/ccHYiiCD.s 			page 29


 1299              	.LFB42:
 107:test/Threads_CPP_API_test.cpp **** 
 108:test/Threads_CPP_API_test.cpp **** void WorkerD::workerBodyD(void* arg) {
 1300              		.loc 2 108 38 is_stmt 1
 1301              		.cfi_startproc
 1302              	.LVL116:
 1303 0394 130101FE 		addi	sp,sp,-32
 1304              		.cfi_def_cfa_offset 32
 1305 0398 233C1100 		sd	ra,24(sp)
 1306 039c 23388100 		sd	s0,16(sp)
 1307 03a0 23349100 		sd	s1,8(sp)
 1308 03a4 23302101 		sd	s2,0(sp)
 1309              		.cfi_offset 1, -8
 1310              		.cfi_offset 8, -16
 1311              		.cfi_offset 9, -24
 1312              		.cfi_offset 18, -32
 1313 03a8 13040102 		addi	s0,sp,32
 1314              		.cfi_def_cfa 8, 0
 109:test/Threads_CPP_API_test.cpp ****     uint8 i = 10;
 1315              		.loc 2 109 5
 1316              	.LVL117:
 1317              		.loc 2 109 11 is_stmt 0
 1318 03ac 9304A000 		li	s1,10
 1319 03b0 6F000004 		j	.L67
 1320              	.LVL118:
 1321              	.L71:
 110:test/Threads_CPP_API_test.cpp ****     for (; i < 13; i++) {
 111:test/Threads_CPP_API_test.cpp ****         printString("D: i="); printInt(i); printString("\n");
 1322              		.loc 2 111 9 is_stmt 1 discriminator 1
 1323              		.loc 2 111 20 is_stmt 0 discriminator 1
 1324 03b4 17050000 		lla	a0,.LC9
 1324      13050500 
 1325 03bc 97000000 		call	_Z11printStringPKc
 1325      E7800000 
 1326              	.LVL119:
 1327              		.loc 2 111 31 is_stmt 1 discriminator 1
 1328              		.loc 2 111 39 is_stmt 0 discriminator 1
 1329 03c4 13060000 		li	a2,0
 1330 03c8 9305A000 		li	a1,10
 1331 03cc 13850400 		mv	a0,s1
 1332 03d0 97000000 		call	_Z8printIntiii
 1332      E7800000 
 1333              	.LVL120:
 1334              		.loc 2 111 44 is_stmt 1 discriminator 1
 1335              		.loc 2 111 55 is_stmt 0 discriminator 1
 1336 03d8 17050000 		lla	a0,.LC1
 1336      13050500 
 1337 03e0 97000000 		call	_Z11printStringPKc
 1337      E7800000 
 1338              	.LVL121:
 110:test/Threads_CPP_API_test.cpp ****     for (; i < 13; i++) {
 1339              		.loc 2 110 5 is_stmt 1 discriminator 1
 1340 03e8 9B841400 		addiw	s1,s1,1
 1341              	.LVL122:
 1342 03ec 93F4F40F 		andi	s1,s1,0xff
 1343              	.LVL123:
 1344              	.L67:
GAS LISTING /tmp/ccHYiiCD.s 			page 30


 110:test/Threads_CPP_API_test.cpp ****     for (; i < 13; i++) {
 1345              		.loc 2 110 5 discriminator 2
 110:test/Threads_CPP_API_test.cpp ****     for (; i < 13; i++) {
 1346              		.loc 2 110 14 discriminator 2
 1347 03f0 9307C000 		li	a5,12
 1348 03f4 E3F097FC 		bleu	s1,a5,.L71
 112:test/Threads_CPP_API_test.cpp ****     }
 113:test/Threads_CPP_API_test.cpp **** 
 114:test/Threads_CPP_API_test.cpp ****     printString("D: dispatch\n");
 1349              		.loc 2 114 5
 1350              		.loc 2 114 16 is_stmt 0
 1351 03f8 17050000 		lla	a0,.LC10
 1351      13050500 
 1352 0400 97000000 		call	_Z11printStringPKc
 1352      E7800000 
 1353              	.LVL124:
 115:test/Threads_CPP_API_test.cpp ****     __asm__ ("li t1, 5");
 1354              		.loc 2 115 5 is_stmt 1
 1355              		.loc 2 115 25 is_stmt 0
 1356              	 #APP
 1357              	# 115 "test/Threads_CPP_API_test.cpp" 1
 116              	    thread_dispatch();
 1358              		li t1, 5
 1359              	# 0 "" 2
 1360              		.loc 2 116 5 is_stmt 1
 1361              		.loc 2 116 20 is_stmt 0
 1362              	 #NO_APP
 1363 040c 97000000 		call	_Z15thread_dispatchv
 1363      E7800000 
 1364              	.LVL125:
 117:test/Threads_CPP_API_test.cpp **** 
 118:test/Threads_CPP_API_test.cpp ****     uint64 result = fibonacci(16);
 1365              		.loc 2 118 5 is_stmt 1
 1366              		.loc 2 118 30 is_stmt 0
 1367 0414 13050001 		li	a0,16
 1368 0418 97000000 		call	_ZL9fibonaccim
 1368      E7800000 
 1369              	.LVL126:
 1370 0420 13090500 		mv	s2,a0
 1371              	.LVL127:
 119:test/Threads_CPP_API_test.cpp ****     printString("D: fibonaci="); printInt(result); printString("\n");
 1372              		.loc 2 119 5 is_stmt 1
 1373              		.loc 2 119 16 is_stmt 0
 1374 0424 17050000 		lla	a0,.LC11
 1374      13050500 
 1375              	.LVL128:
 1376 042c 97000000 		call	_Z11printStringPKc
 1376      E7800000 
 1377              	.LVL129:
 1378              		.loc 2 119 34 is_stmt 1
 1379              		.loc 2 119 42 is_stmt 0
 1380 0434 13060000 		li	a2,0
 1381 0438 9305A000 		li	a1,10
 1382 043c 1B050900 		sext.w	a0,s2
 1383 0440 97000000 		call	_Z8printIntiii
 1383      E7800000 
 1384              	.LVL130:
GAS LISTING /tmp/ccHYiiCD.s 			page 31


 1385              		.loc 2 119 52 is_stmt 1
 1386              		.loc 2 119 63 is_stmt 0
 1387 0448 17050000 		lla	a0,.LC1
 1387      13050500 
 1388 0450 97000000 		call	_Z11printStringPKc
 1388      E7800000 
 1389              	.LVL131:
 1390 0458 6F000004 		j	.L69
 1391              	.L72:
 120:test/Threads_CPP_API_test.cpp **** 
 121:test/Threads_CPP_API_test.cpp ****     for (; i < 16; i++) {
 122:test/Threads_CPP_API_test.cpp ****         printString("D: i="); printInt(i); printString("\n");
 1392              		.loc 2 122 9 is_stmt 1 discriminator 1
 1393              		.loc 2 122 20 is_stmt 0 discriminator 1
 1394 045c 17050000 		lla	a0,.LC9
 1394      13050500 
 1395 0464 97000000 		call	_Z11printStringPKc
 1395      E7800000 
 1396              	.LVL132:
 1397              		.loc 2 122 31 is_stmt 1 discriminator 1
 1398              		.loc 2 122 39 is_stmt 0 discriminator 1
 1399 046c 13060000 		li	a2,0
 1400 0470 9305A000 		li	a1,10
 1401 0474 13850400 		mv	a0,s1
 1402 0478 97000000 		call	_Z8printIntiii
 1402      E7800000 
 1403              	.LVL133:
 1404              		.loc 2 122 44 is_stmt 1 discriminator 1
 1405              		.loc 2 122 55 is_stmt 0 discriminator 1
 1406 0480 17050000 		lla	a0,.LC1
 1406      13050500 
 1407 0488 97000000 		call	_Z11printStringPKc
 1407      E7800000 
 1408              	.LVL134:
 121:test/Threads_CPP_API_test.cpp ****         printString("D: i="); printInt(i); printString("\n");
 1409              		.loc 2 121 5 is_stmt 1 discriminator 1
 1410 0490 9B841400 		addiw	s1,s1,1
 1411              	.LVL135:
 1412 0494 93F4F40F 		andi	s1,s1,0xff
 1413              	.LVL136:
 1414              	.L69:
 121:test/Threads_CPP_API_test.cpp ****         printString("D: i="); printInt(i); printString("\n");
 1415              		.loc 2 121 5 discriminator 2
 121:test/Threads_CPP_API_test.cpp ****         printString("D: i="); printInt(i); printString("\n");
 1416              		.loc 2 121 14 discriminator 2
 1417 0498 9307F000 		li	a5,15
 1418 049c E3F097FC 		bleu	s1,a5,.L72
 123:test/Threads_CPP_API_test.cpp ****     }
 124:test/Threads_CPP_API_test.cpp **** 
 125:test/Threads_CPP_API_test.cpp ****     printString("D finished!\n");
 1419              		.loc 2 125 5
 1420              		.loc 2 125 16 is_stmt 0
 1421 04a0 17050000 		lla	a0,.LC12
 1421      13050500 
 1422 04a8 97000000 		call	_Z11printStringPKc
 1422      E7800000 
 1423              	.LVL137:
GAS LISTING /tmp/ccHYiiCD.s 			page 32


 126:test/Threads_CPP_API_test.cpp ****     finishedD = true;
 1424              		.loc 2 126 5 is_stmt 1
 1425              		.loc 2 126 15 is_stmt 0
 1426 04b0 93071000 		li	a5,1
 1427 04b4 17070000 		sb	a5,_ZL9finishedD,a4
 1427      2300F700 
 127:test/Threads_CPP_API_test.cpp ****     thread_dispatch();
 1428              		.loc 2 127 5 is_stmt 1
 1429              		.loc 2 127 20 is_stmt 0
 1430 04bc 97000000 		call	_Z15thread_dispatchv
 1430      E7800000 
 1431              	.LVL138:
 128:test/Threads_CPP_API_test.cpp **** }
 1432              		.loc 2 128 1
 1433 04c4 83308101 		ld	ra,24(sp)
 1434              		.cfi_restore 1
 1435 04c8 03340101 		ld	s0,16(sp)
 1436              		.cfi_restore 8
 1437              		.cfi_def_cfa 2, 32
 1438 04cc 83348100 		ld	s1,8(sp)
 1439              		.cfi_restore 9
 1440              	.LVL139:
 1441 04d0 03390100 		ld	s2,0(sp)
 1442              		.cfi_restore 18
 1443              	.LVL140:
 1444 04d4 13010102 		addi	sp,sp,32
 1445              		.cfi_def_cfa_offset 0
 1446 04d8 67800000 		jr	ra
 1447              		.cfi_endproc
 1448              	.LFE42:
 1450              		.section	.text._ZN7WorkerD3runEv,"axG",@progbits,_ZN7WorkerD3runEv,comdat
 1451              		.align	2
 1452              		.weak	_ZN7WorkerD3runEv
 1454              	_ZN7WorkerD3runEv:
 1455              	.LFB38:
  51:test/Threads_CPP_API_test.cpp ****         workerBodyD(nullptr);
 1456              		.loc 2 51 10 is_stmt 1
 1457              		.cfi_startproc
 1458              	.LVL141:
 1459 0000 130101FF 		addi	sp,sp,-16
 1460              		.cfi_def_cfa_offset 16
 1461 0004 23341100 		sd	ra,8(sp)
 1462 0008 23308100 		sd	s0,0(sp)
 1463              		.cfi_offset 1, -8
 1464              		.cfi_offset 8, -16
 1465 000c 13040101 		addi	s0,sp,16
 1466              		.cfi_def_cfa 8, 0
  52:test/Threads_CPP_API_test.cpp ****     }
 1467              		.loc 2 52 9
  52:test/Threads_CPP_API_test.cpp ****     }
 1468              		.loc 2 52 20 is_stmt 0
 1469 0010 93050000 		li	a1,0
 1470 0014 97000000 		call	_ZN7WorkerD11workerBodyDEPv
 1470      E7800000 
 1471              	.LVL142:
  53:test/Threads_CPP_API_test.cpp **** };
 1472              		.loc 2 53 5
GAS LISTING /tmp/ccHYiiCD.s 			page 33


 1473 001c 83308100 		ld	ra,8(sp)
 1474              		.cfi_restore 1
 1475 0020 03340100 		ld	s0,0(sp)
 1476              		.cfi_restore 8
 1477              		.cfi_def_cfa 2, 16
 1478 0024 13010101 		addi	sp,sp,16
 1479              		.cfi_def_cfa_offset 0
 1480 0028 67800000 		jr	ra
 1481              		.cfi_endproc
 1482              	.LFE38:
 1484              		.section	.rodata.str1.8
 1485 009d 000000   		.align	3
 1486              	.LC13:
 1487 00a0 54687265 		.string	"ThreadA created\n"
 1487      61644120 
 1487      63726561 
 1487      7465640A 
 1487      00
 1488 00b1 00000000 		.align	3
 1488      000000
 1489              	.LC14:
 1490 00b8 54687265 		.string	"ThreadB created\n"
 1490      61644220 
 1490      63726561 
 1490      7465640A 
 1490      00
 1491 00c9 00000000 		.align	3
 1491      000000
 1492              	.LC15:
 1493 00d0 54687265 		.string	"ThreadC created\n"
 1493      61644320 
 1493      63726561 
 1493      7465640A 
 1493      00
 1494 00e1 00000000 		.align	3
 1494      000000
 1495              	.LC16:
 1496 00e8 54687265 		.string	"ThreadD created\n"
 1496      61644420 
 1496      63726561 
 1496      7465640A 
 1496      00
 1497 00f9 00000000 		.align	3
 1497      000000
 1498              	.LC17:
 1499 0100 4F627269 		.string	"Obrisao\n"
 1499      73616F0A 
 1499      00
 1500              		.text
 1501              		.align	2
 1502              		.globl	_Z20Threads_CPP_API_testv
 1504              	_Z20Threads_CPP_API_testv:
 1505              	.LFB43:
 129:test/Threads_CPP_API_test.cpp **** 
 130:test/Threads_CPP_API_test.cpp **** 
 131:test/Threads_CPP_API_test.cpp **** void Threads_CPP_API_test() {
 1506              		.loc 2 131 29 is_stmt 1
GAS LISTING /tmp/ccHYiiCD.s 			page 34


 1507              		.cfi_startproc
 1508 04dc 130101FC 		addi	sp,sp,-64
 1509              		.cfi_def_cfa_offset 64
 1510 04e0 233C1102 		sd	ra,56(sp)
 1511 04e4 23388102 		sd	s0,48(sp)
 1512 04e8 23349102 		sd	s1,40(sp)
 1513 04ec 23302103 		sd	s2,32(sp)
 1514              		.cfi_offset 1, -8
 1515              		.cfi_offset 8, -16
 1516              		.cfi_offset 9, -24
 1517              		.cfi_offset 18, -32
 1518 04f0 13040104 		addi	s0,sp,64
 1519              		.cfi_def_cfa 8, 0
 132:test/Threads_CPP_API_test.cpp ****     Thread* threads[4];
 1520              		.loc 2 132 5
 133:test/Threads_CPP_API_test.cpp **** 
 134:test/Threads_CPP_API_test.cpp ****     threads[0] = new WorkerA();
 1521              		.loc 2 134 5
 1522              		.loc 2 134 30 is_stmt 0
 1523 04f4 13050002 		li	a0,32
 1524 04f8 97000000 		call	_Znwm
 1524      E7800000 
 1525              	.LVL143:
 1526              	.LBB150:
 1527              	.LBB151:
 1528              	.LBB152:
 1529              	.LBB153:
  34:test/../h/syscall_cpp.hpp ****     virtual void run(){}
 1530              		.loc 1 34 13
 1531 0500 23380500 		sd	zero,16(a0)
 1532              	.LVL144:
 1533              	.LBE153:
 1534              	.LBE152:
  19:test/Threads_CPP_API_test.cpp **** 
 1535              		.loc 2 19 22
 1536 0504 97070000 		lla	a5,_ZTV7WorkerA+16
 1536      93870700 
 1537 050c 2330F500 		sd	a5,0(a0)
 1538              	.LVL145:
 1539              	.LBE151:
 1540              	.LBE150:
 1541              		.loc 2 134 16
 1542 0510 2330A4FC 		sd	a0,-64(s0)
 135:test/Threads_CPP_API_test.cpp ****     printString("ThreadA created\n");
 1543              		.loc 2 135 5 is_stmt 1
 1544              		.loc 2 135 16 is_stmt 0
 1545 0514 17050000 		lla	a0,.LC13
 1545      13050500 
 1546 051c 97000000 		call	_Z11printStringPKc
 1546      E7800000 
 1547              	.LVL146:
 136:test/Threads_CPP_API_test.cpp **** 
 137:test/Threads_CPP_API_test.cpp ****     threads[1] = new WorkerB();
 1548              		.loc 2 137 5 is_stmt 1
 1549              		.loc 2 137 30 is_stmt 0
 1550 0524 13050002 		li	a0,32
 1551 0528 97000000 		call	_Znwm
GAS LISTING /tmp/ccHYiiCD.s 			page 35


 1551      E7800000 
 1552              	.LVL147:
 1553              	.LBB154:
 1554              	.LBB155:
 1555              	.LBB156:
 1556              	.LBB157:
  34:test/../h/syscall_cpp.hpp ****     virtual void run(){}
 1557              		.loc 1 34 13
 1558 0530 23380500 		sd	zero,16(a0)
 1559              	.LVL148:
 1560              	.LBE157:
 1561              	.LBE156:
  29:test/Threads_CPP_API_test.cpp **** 
 1562              		.loc 2 29 22
 1563 0534 97070000 		lla	a5,_ZTV7WorkerB+16
 1563      93870700 
 1564 053c 2330F500 		sd	a5,0(a0)
 1565              	.LVL149:
 1566              	.LBE155:
 1567              	.LBE154:
 1568              		.loc 2 137 16
 1569 0540 2334A4FC 		sd	a0,-56(s0)
 138:test/Threads_CPP_API_test.cpp ****     printString("ThreadB created\n");
 1570              		.loc 2 138 5 is_stmt 1
 1571              		.loc 2 138 16 is_stmt 0
 1572 0544 17050000 		lla	a0,.LC14
 1572      13050500 
 1573 054c 97000000 		call	_Z11printStringPKc
 1573      E7800000 
 1574              	.LVL150:
 139:test/Threads_CPP_API_test.cpp **** 
 140:test/Threads_CPP_API_test.cpp ****     threads[2] = new WorkerC();
 1575              		.loc 2 140 5 is_stmt 1
 1576              		.loc 2 140 30 is_stmt 0
 1577 0554 13050002 		li	a0,32
 1578 0558 97000000 		call	_Znwm
 1578      E7800000 
 1579              	.LVL151:
 1580              	.LBB158:
 1581              	.LBB159:
 1582              	.LBB160:
 1583              	.LBB161:
  34:test/../h/syscall_cpp.hpp ****     virtual void run(){}
 1584              		.loc 1 34 13
 1585 0560 23380500 		sd	zero,16(a0)
 1586              	.LVL152:
 1587              	.LBE161:
 1588              	.LBE160:
  39:test/Threads_CPP_API_test.cpp **** 
 1589              		.loc 2 39 22
 1590 0564 97070000 		lla	a5,_ZTV7WorkerC+16
 1590      93870700 
 1591 056c 2330F500 		sd	a5,0(a0)
 1592              	.LVL153:
 1593              	.LBE159:
 1594              	.LBE158:
 1595              		.loc 2 140 16
GAS LISTING /tmp/ccHYiiCD.s 			page 36


 1596 0570 2338A4FC 		sd	a0,-48(s0)
 141:test/Threads_CPP_API_test.cpp ****     printString("ThreadC created\n");
 1597              		.loc 2 141 5 is_stmt 1
 1598              		.loc 2 141 16 is_stmt 0
 1599 0574 17050000 		lla	a0,.LC15
 1599      13050500 
 1600 057c 97000000 		call	_Z11printStringPKc
 1600      E7800000 
 1601              	.LVL154:
 142:test/Threads_CPP_API_test.cpp **** 
 143:test/Threads_CPP_API_test.cpp ****     threads[3] = new WorkerD();
 1602              		.loc 2 143 5 is_stmt 1
 1603              		.loc 2 143 30 is_stmt 0
 1604 0584 13050002 		li	a0,32
 1605 0588 97000000 		call	_Znwm
 1605      E7800000 
 1606              	.LVL155:
 1607              	.LBB162:
 1608              	.LBB163:
 1609              	.LBB164:
 1610              	.LBB165:
  34:test/../h/syscall_cpp.hpp ****     virtual void run(){}
 1611              		.loc 1 34 13
 1612 0590 23380500 		sd	zero,16(a0)
 1613              	.LVL156:
 1614              	.LBE165:
 1615              	.LBE164:
  49:test/Threads_CPP_API_test.cpp **** 
 1616              		.loc 2 49 22
 1617 0594 97070000 		lla	a5,_ZTV7WorkerD+16
 1617      93870700 
 1618 059c 2330F500 		sd	a5,0(a0)
 1619              	.LVL157:
 1620              	.LBE163:
 1621              	.LBE162:
 1622              		.loc 2 143 16
 1623 05a0 233CA4FC 		sd	a0,-40(s0)
 144:test/Threads_CPP_API_test.cpp ****     printString("ThreadD created\n");
 1624              		.loc 2 144 5 is_stmt 1
 1625              		.loc 2 144 16 is_stmt 0
 1626 05a4 17050000 		lla	a0,.LC16
 1626      13050500 
 1627 05ac 97000000 		call	_Z11printStringPKc
 1627      E7800000 
 1628              	.LVL158:
 1629              	.LBB166:
 145:test/Threads_CPP_API_test.cpp **** 
 146:test/Threads_CPP_API_test.cpp ****     for(int i=0; i<4; i++) {
 1630              		.loc 2 146 13
 1631 05b4 93040000 		li	s1,0
 1632 05b8 6F000002 		j	.L79
 1633              	.LVL159:
 1634              	.L86:
 1635              	.LBB167:
 1636              	.LBB168:
  22:test/../h/syscall_cpp.hpp ****         }
 1637              		.loc 1 22 13 is_stmt 1
GAS LISTING /tmp/ccHYiiCD.s 			page 37


  22:test/../h/syscall_cpp.hpp ****         }
 1638              		.loc 1 22 26 is_stmt 0
 1639 05bc 13060500 		mv	a2,a0
 1640 05c0 97050000 		lla	a1,_ZN6Thread13threadWrapperEPv
 1640      93850500 
 1641 05c8 13058500 		addi	a0,a0,8
 1642              	.LVL160:
 1643 05cc 97000000 		call	_Z13thread_createPP7_threadPFvPvES2_
 1643      E7800000 
 1644              	.LVL161:
 1645              	.L78:
  27:test/../h/syscall_cpp.hpp ****     }
 1646              		.loc 1 27 9 is_stmt 1
 1647              	.LBE168:
 1648              	.LBE167:
 1649              		.loc 2 146 5
 1650 05d4 9B841400 		addiw	s1,s1,1
 1651              	.LVL162:
 1652              	.L79:
 1653              		.loc 2 146 19 discriminator 1
 1654 05d8 93073000 		li	a5,3
 1655 05dc 63CC9702 		bgt	s1,a5,.L76
 147:test/Threads_CPP_API_test.cpp ****         threads[i]->start();
 1656              		.loc 2 147 9
 1657              		.loc 2 147 18 is_stmt 0
 1658 05e0 93973400 		slli	a5,s1,3
 1659 05e4 130704FE 		addi	a4,s0,-32
 1660 05e8 B307F700 		add	a5,a4,a5
 1661 05ec 03B507FE 		ld	a0,-32(a5)
 1662              	.LVL163:
 1663              	.LBB170:
 1664              	.LBB169:
  21:test/../h/syscall_cpp.hpp ****             thread_create(&myhandle, &threadWrapper,this);
 1665              		.loc 1 21 9 is_stmt 1
  21:test/../h/syscall_cpp.hpp ****             thread_create(&myhandle, &threadWrapper,this);
 1666              		.loc 1 21 13 is_stmt 0
 1667 05f0 83350501 		ld	a1,16(a0)
  21:test/../h/syscall_cpp.hpp ****             thread_create(&myhandle, &threadWrapper,this);
 1668              		.loc 1 21 9
 1669 05f4 E38405FC 		beqz	a1,.L86
  25:test/../h/syscall_cpp.hpp ****         }
 1670              		.loc 1 25 13 is_stmt 1
  25:test/../h/syscall_cpp.hpp ****         }
 1671              		.loc 1 25 26 is_stmt 0
 1672 05f8 03368501 		ld	a2,24(a0)
 1673 05fc 13058500 		addi	a0,a0,8
 1674              	.LVL164:
 1675 0600 97000000 		call	_Z13thread_createPP7_threadPFvPvES2_
 1675      E7800000 
 1676              	.LVL165:
 1677 0608 6FF0DFFC 		j	.L78
 1678              	.L80:
 1679              	.LBE169:
 1680              	.LBE170:
 1681              	.LBE166:
 148:test/Threads_CPP_API_test.cpp ****     }
 149:test/Threads_CPP_API_test.cpp **** 
GAS LISTING /tmp/ccHYiiCD.s 			page 38


 150:test/Threads_CPP_API_test.cpp ****     while (!(finishedA && finishedB && finishedC && finishedD)) {
 151:test/Threads_CPP_API_test.cpp ****         Thread::dispatch();
 1682              		.loc 2 151 9 is_stmt 1
 1683              	.LBB171:
 1684              	.LBB172:
  30:test/../h/syscall_cpp.hpp ****     static int sleep(time_t);
 1685              		.loc 1 30 29
  30:test/../h/syscall_cpp.hpp ****     static int sleep(time_t);
 1686              		.loc 1 30 44 is_stmt 0
 1687 060c 97000000 		call	_Z15thread_dispatchv
 1687      E7800000 
 1688              	.LVL166:
 1689              	.L76:
 1690              	.LBE172:
 1691              	.LBE171:
 150:test/Threads_CPP_API_test.cpp ****         Thread::dispatch();
 1692              		.loc 2 150 5 is_stmt 1
 150:test/Threads_CPP_API_test.cpp ****         Thread::dispatch();
 1693              		.loc 2 150 12
 150:test/Threads_CPP_API_test.cpp ****         Thread::dispatch();
 1694              		.loc 2 150 14 is_stmt 0
 1695 0614 97070000 		lbu	a5,_ZL9finishedA
 1695      83C70700 
 150:test/Threads_CPP_API_test.cpp ****         Thread::dispatch();
 1696              		.loc 2 150 12
 1697 061c E38807FE 		beqz	a5,.L80
 150:test/Threads_CPP_API_test.cpp ****         Thread::dispatch();
 1698              		.loc 2 150 27 discriminator 2
 1699 0620 97070000 		lbu	a5,_ZL9finishedB
 1699      83C70700 
 150:test/Threads_CPP_API_test.cpp ****         Thread::dispatch();
 1700              		.loc 2 150 24 discriminator 2
 1701 0628 E38207FE 		beqz	a5,.L80
 150:test/Threads_CPP_API_test.cpp ****         Thread::dispatch();
 1702              		.loc 2 150 40 discriminator 4
 1703 062c 97070000 		lbu	a5,_ZL9finishedC
 1703      83C70700 
 150:test/Threads_CPP_API_test.cpp ****         Thread::dispatch();
 1704              		.loc 2 150 37 discriminator 4
 1705 0634 E38C07FC 		beqz	a5,.L80
 150:test/Threads_CPP_API_test.cpp ****         Thread::dispatch();
 1706              		.loc 2 150 53 discriminator 6
 1707 0638 97070000 		lbu	a5,_ZL9finishedD
 1707      83C70700 
 150:test/Threads_CPP_API_test.cpp ****         Thread::dispatch();
 1708              		.loc 2 150 12 discriminator 6
 1709 0640 E38607FC 		beqz	a5,.L80
 1710 0644 930404FC 		addi	s1,s0,-64
 1711              	.LVL167:
 1712 0648 6F008000 		j	.L81
 1713              	.LVL168:
 1714              	.L83:
 1715              	.LBB173:
 152:test/Threads_CPP_API_test.cpp ****     }
 153:test/Threads_CPP_API_test.cpp **** 
 154:test/Threads_CPP_API_test.cpp ****     for (auto thread: threads) {  printString("Obrisao\n"); delete thread; }
 1716              		.loc 2 154 5 is_stmt 1 discriminator 6
GAS LISTING /tmp/ccHYiiCD.s 			page 39


 1717 064c 93848400 		addi	s1,s1,8
 1718              	.LVL169:
 1719              	.L81:
 1720              		.loc 2 154 23 discriminator 7
 1721 0650 930704FE 		addi	a5,s0,-32
 1722 0654 6388F402 		beq	s1,a5,.L75
 1723              		.loc 2 154 15 is_stmt 0 discriminator 2
 1724 0658 03B90400 		ld	s2,0(s1)
 1725              	.LVL170:
 1726              		.loc 2 154 35 is_stmt 1 discriminator 2
 1727              		.loc 2 154 46 is_stmt 0 discriminator 2
 1728 065c 17050000 		lla	a0,.LC17
 1728      13050500 
 1729 0664 97000000 		call	_Z11printStringPKc
 1729      E7800000 
 1730              	.LVL171:
 1731              		.loc 2 154 61 is_stmt 1 discriminator 2
 1732              		.loc 2 154 74 is_stmt 0 discriminator 2
 1733 066c E30009FE 		beqz	s2,.L83
 1734              		.loc 2 154 68 discriminator 4
 1735 0670 83370900 		ld	a5,0(s2)
 1736 0674 83B78700 		ld	a5,8(a5)
 1737 0678 13050900 		mv	a0,s2
 1738 067c E7800700 		jalr	a5
 1739              	.LVL172:
 1740 0680 6FF0DFFC 		j	.L83
 1741              	.LVL173:
 1742              	.L75:
 1743              	.LBE173:
 155:test/Threads_CPP_API_test.cpp **** }
 1744              		.loc 2 155 1
 1745 0684 83308103 		ld	ra,56(sp)
 1746              		.cfi_restore 1
 1747 0688 03340103 		ld	s0,48(sp)
 1748              		.cfi_restore 8
 1749              		.cfi_def_cfa 2, 64
 1750 068c 83348102 		ld	s1,40(sp)
 1751              		.cfi_restore 9
 1752              	.LVL174:
 1753 0690 03390102 		ld	s2,32(sp)
 1754              		.cfi_restore 18
 1755 0694 13010104 		addi	sp,sp,64
 1756              		.cfi_def_cfa_offset 0
 1757 0698 67800000 		jr	ra
 1758              		.cfi_endproc
 1759              	.LFE43:
 1761              		.weak	_ZTV6Thread
 1762              		.section	.rodata._ZTV6Thread,"aG",@progbits,_ZTV6Thread,comdat
 1763              		.align	3
 1766              	_ZTV6Thread:
 1767 0000 00000000 		.dword	0
 1767      00000000 
 1768 0008 00000000 		.dword	0
 1768      00000000 
 1769 0010 00000000 		.dword	_ZN6ThreadD1Ev
 1769      00000000 
 1770 0018 00000000 		.dword	_ZN6ThreadD0Ev
GAS LISTING /tmp/ccHYiiCD.s 			page 40


 1770      00000000 
 1771 0020 00000000 		.dword	_ZN6Thread3runEv
 1771      00000000 
 1772              		.weak	_ZTV7WorkerA
 1773              		.section	.rodata._ZTV7WorkerA,"aG",@progbits,_ZTV7WorkerA,comdat
 1774              		.align	3
 1777              	_ZTV7WorkerA:
 1778 0000 00000000 		.dword	0
 1778      00000000 
 1779 0008 00000000 		.dword	0
 1779      00000000 
 1780 0010 00000000 		.dword	_ZN7WorkerAD1Ev
 1780      00000000 
 1781 0018 00000000 		.dword	_ZN7WorkerAD0Ev
 1781      00000000 
 1782 0020 00000000 		.dword	_ZN7WorkerA3runEv
 1782      00000000 
 1783              		.weak	_ZTV7WorkerB
 1784              		.section	.rodata._ZTV7WorkerB,"aG",@progbits,_ZTV7WorkerB,comdat
 1785              		.align	3
 1788              	_ZTV7WorkerB:
 1789 0000 00000000 		.dword	0
 1789      00000000 
 1790 0008 00000000 		.dword	0
 1790      00000000 
 1791 0010 00000000 		.dword	_ZN7WorkerBD1Ev
 1791      00000000 
 1792 0018 00000000 		.dword	_ZN7WorkerBD0Ev
 1792      00000000 
 1793 0020 00000000 		.dword	_ZN7WorkerB3runEv
 1793      00000000 
 1794              		.weak	_ZTV7WorkerC
 1795              		.section	.rodata._ZTV7WorkerC,"aG",@progbits,_ZTV7WorkerC,comdat
 1796              		.align	3
 1799              	_ZTV7WorkerC:
 1800 0000 00000000 		.dword	0
 1800      00000000 
 1801 0008 00000000 		.dword	0
 1801      00000000 
 1802 0010 00000000 		.dword	_ZN7WorkerCD1Ev
 1802      00000000 
 1803 0018 00000000 		.dword	_ZN7WorkerCD0Ev
 1803      00000000 
 1804 0020 00000000 		.dword	_ZN7WorkerC3runEv
 1804      00000000 
 1805              		.weak	_ZTV7WorkerD
 1806              		.section	.rodata._ZTV7WorkerD,"aG",@progbits,_ZTV7WorkerD,comdat
 1807              		.align	3
 1810              	_ZTV7WorkerD:
 1811 0000 00000000 		.dword	0
 1811      00000000 
 1812 0008 00000000 		.dword	0
 1812      00000000 
 1813 0010 00000000 		.dword	_ZN7WorkerDD1Ev
 1813      00000000 
 1814 0018 00000000 		.dword	_ZN7WorkerDD0Ev
 1814      00000000 
GAS LISTING /tmp/ccHYiiCD.s 			page 41


 1815 0020 00000000 		.dword	_ZN7WorkerD3runEv
 1815      00000000 
 1816              		.section	.sbss,"aw",@nobits
 1819              	_ZL9finishedD:
 1820 0000 00       		.zero	1
 1823              	_ZL9finishedC:
 1824 0001 00       		.zero	1
 1827              	_ZL9finishedB:
 1828 0002 00       		.zero	1
 1831              	_ZL9finishedA:
 1832 0003 00       		.zero	1
 1833              		.text
 1834              	.Letext0:
 1835              		.file 3 "test/../h/../lib/hw.h"
 1836              		.file 4 "test/../h/syscall_c.hpp"
 1837              		.file 5 "test/printing.hpp"
 6512              		.align	3
 6515              	DW.ref.__gxx_personality_v0:
 6516 0000 00000000 		.dword	__gxx_personality_v0
 6516      00000000 
 6517              		.ident	"GCC: () 9.3.0"
GAS LISTING /tmp/ccHYiiCD.s 			page 42


DEFINED SYMBOLS
                            *ABS*:0000000000000000 Threads_CPP_API_test.cpp
     /tmp/ccHYiiCD.s:13     .text._ZN6Thread3runEv:0000000000000000 _ZN6Thread3runEv
     /tmp/ccHYiiCD.s:17     .text._ZN6Thread3runEv:0000000000000000 .L0 
     /tmp/ccHYiiCD.s:19     .text._ZN6Thread3runEv:0000000000000000 .L0 
     /tmp/ccHYiiCD.s:20     .text._ZN6Thread3runEv:0000000000000004 .L0 
     /tmp/ccHYiiCD.s:22     .text._ZN6Thread3runEv:0000000000000008 .L0 
     /tmp/ccHYiiCD.s:24     .text._ZN6Thread3runEv:000000000000000c .L0 
     /tmp/ccHYiiCD.s:26     .text._ZN6Thread3runEv:000000000000000c .L0 
     /tmp/ccHYiiCD.s:27     .text._ZN6Thread3runEv:0000000000000010 .L0 
     /tmp/ccHYiiCD.s:28     .text._ZN6Thread3runEv:0000000000000010 .L0 
     /tmp/ccHYiiCD.s:30     .text._ZN6Thread3runEv:0000000000000014 .L0 
     /tmp/ccHYiiCD.s:32     .text._ZN6Thread3runEv:0000000000000018 .L0 
     /tmp/ccHYiiCD.s:39     .text._ZN6Thread13threadWrapperEPv:0000000000000000 _ZN6Thread13threadWrapperEPv
     /tmp/ccHYiiCD.s:42     .text._ZN6Thread13threadWrapperEPv:0000000000000000 .L0 
     /tmp/ccHYiiCD.s:44     .text._ZN6Thread13threadWrapperEPv:0000000000000000 .L0 
     /tmp/ccHYiiCD.s:45     .text._ZN6Thread13threadWrapperEPv:0000000000000000 .L0 
     /tmp/ccHYiiCD.s:46     .text._ZN6Thread13threadWrapperEPv:0000000000000000 .L0 
     /tmp/ccHYiiCD.s:48     .text._ZN6Thread13threadWrapperEPv:0000000000000004 .L0 
     /tmp/ccHYiiCD.s:49     .text._ZN6Thread13threadWrapperEPv:0000000000000008 .L0 
     /tmp/ccHYiiCD.s:52     .text._ZN6Thread13threadWrapperEPv:0000000000000010 .L0 
     /tmp/ccHYiiCD.s:53     .text._ZN6Thread13threadWrapperEPv:0000000000000010 .L0 
     /tmp/ccHYiiCD.s:55     .text._ZN6Thread13threadWrapperEPv:0000000000000014 .L0 
     /tmp/ccHYiiCD.s:57     .text._ZN6Thread13threadWrapperEPv:0000000000000014 .L0 
     /tmp/ccHYiiCD.s:58     .text._ZN6Thread13threadWrapperEPv:0000000000000014 .L0 
     /tmp/ccHYiiCD.s:61     .text._ZN6Thread13threadWrapperEPv:000000000000001c .L0 
     /tmp/ccHYiiCD.s:64     .text._ZN6Thread13threadWrapperEPv:0000000000000020 .L0 
     /tmp/ccHYiiCD.s:65     .text._ZN6Thread13threadWrapperEPv:0000000000000024 .L0 
     /tmp/ccHYiiCD.s:67     .text._ZN6Thread13threadWrapperEPv:0000000000000028 .L0 
     /tmp/ccHYiiCD.s:68     .text._ZN6Thread13threadWrapperEPv:0000000000000028 .L0 
     /tmp/ccHYiiCD.s:70     .text._ZN6Thread13threadWrapperEPv:000000000000002c .L0 
     /tmp/ccHYiiCD.s:75     .text._ZN6Thread13threadWrapperEPv:0000000000000034 .L0 
     /tmp/ccHYiiCD.s:81     .text:0000000000000000 _ZL9fibonaccim
     /tmp/ccHYiiCD.s:85     .text:0000000000000000 .L0 
     /tmp/ccHYiiCD.s:87     .text:0000000000000000 .L0 
     /tmp/ccHYiiCD.s:88     .text:0000000000000004 .L0 
     /tmp/ccHYiiCD.s:93     .text:0000000000000014 .L0 
     /tmp/ccHYiiCD.s:94     .text:0000000000000014 .L0 
     /tmp/ccHYiiCD.s:95     .text:0000000000000014 .L0 
     /tmp/ccHYiiCD.s:96     .text:0000000000000014 .L0 
     /tmp/ccHYiiCD.s:98     .text:0000000000000018 .L0 
     /tmp/ccHYiiCD.s:101    .text:000000000000001c .L0 
     /tmp/ccHYiiCD.s:104    .text:0000000000000024 .L0 
     /tmp/ccHYiiCD.s:105    .text:0000000000000024 .L0 
     /tmp/ccHYiiCD.s:108    .text:000000000000002c .L0 
     /tmp/ccHYiiCD.s:112    .text:0000000000000030 .L0 
     /tmp/ccHYiiCD.s:113    .text:0000000000000030 .L0 
     /tmp/ccHYiiCD.s:118    .text:0000000000000040 .L0 
     /tmp/ccHYiiCD.s:122    .text:000000000000004c .L0 
     /tmp/ccHYiiCD.s:125    .text:0000000000000050 .L0 
     /tmp/ccHYiiCD.s:126    .text:0000000000000054 .L0 
     /tmp/ccHYiiCD.s:127    .text:0000000000000054 .L0 
     /tmp/ccHYiiCD.s:129    .text:0000000000000058 .L0 
     /tmp/ccHYiiCD.s:130    .text:0000000000000058 .L0 
     /tmp/ccHYiiCD.s:132    .text:000000000000005c .L0 
     /tmp/ccHYiiCD.s:135    .text:0000000000000060 .L0 
     /tmp/ccHYiiCD.s:137    .text:0000000000000064 .L0 
GAS LISTING /tmp/ccHYiiCD.s 			page 43


     /tmp/ccHYiiCD.s:141    .text:0000000000000068 .L0 
     /tmp/ccHYiiCD.s:143    .text:0000000000000068 .L0 
     /tmp/ccHYiiCD.s:144    .text:0000000000000068 .L0 
     /tmp/ccHYiiCD.s:147    .text:0000000000000074 .L0 
     /tmp/ccHYiiCD.s:154    .text._ZN6ThreadD2Ev:0000000000000000 _ZN6ThreadD2Ev
     /tmp/ccHYiiCD.s:157    .text._ZN6ThreadD2Ev:0000000000000000 .L0 
     /tmp/ccHYiiCD.s:6515   .sdata.DW.ref.__gxx_personality_v0:0000000000000000 DW.ref.__gxx_personality_v0
     /tmp/ccHYiiCD.s:161    .text._ZN6ThreadD2Ev:0000000000000000 .L0 
     /tmp/ccHYiiCD.s:162    .text._ZN6ThreadD2Ev:0000000000000004 .L0 
     /tmp/ccHYiiCD.s:165    .text._ZN6ThreadD2Ev:000000000000000c .L0 
     /tmp/ccHYiiCD.s:166    .text._ZN6ThreadD2Ev:000000000000000c .L0 
     /tmp/ccHYiiCD.s:168    .text._ZN6ThreadD2Ev:0000000000000010 .L0 
     /tmp/ccHYiiCD.s:1766   .rodata._ZTV6Thread:0000000000000000 _ZTV6Thread
     /tmp/ccHYiiCD.s:171    .text._ZN6ThreadD2Ev:0000000000000010 .L0 
     /tmp/ccHYiiCD.s:174    .text._ZN6ThreadD2Ev:000000000000001c .L0 
     /tmp/ccHYiiCD.s:175    .text._ZN6ThreadD2Ev:000000000000001c .L0 
     /tmp/ccHYiiCD.s:179    .text._ZN6ThreadD2Ev:0000000000000024 .L0 
     /tmp/ccHYiiCD.s:180    .text._ZN6ThreadD2Ev:0000000000000028 .L0 
     /tmp/ccHYiiCD.s:182    .text._ZN6ThreadD2Ev:000000000000002c .L0 
     /tmp/ccHYiiCD.s:183    .text._ZN6ThreadD2Ev:000000000000002c .L0 
     /tmp/ccHYiiCD.s:185    .text._ZN6ThreadD2Ev:0000000000000030 .L0 
     /tmp/ccHYiiCD.s:187    .text._ZN6ThreadD2Ev:0000000000000034 .L0 
     /tmp/ccHYiiCD.s:154    .text._ZN6ThreadD2Ev:0000000000000000 _ZN6ThreadD1Ev
     /tmp/ccHYiiCD.s:204    .text._ZN6ThreadD0Ev:0000000000000000 _ZN6ThreadD0Ev
     /tmp/ccHYiiCD.s:207    .text._ZN6ThreadD0Ev:0000000000000000 .L0 
     /tmp/ccHYiiCD.s:211    .text._ZN6ThreadD0Ev:0000000000000000 .L0 
     /tmp/ccHYiiCD.s:212    .text._ZN6ThreadD0Ev:0000000000000004 .L0 
     /tmp/ccHYiiCD.s:216    .text._ZN6ThreadD0Ev:0000000000000010 .L0 
     /tmp/ccHYiiCD.s:217    .text._ZN6ThreadD0Ev:0000000000000010 .L0 
     /tmp/ccHYiiCD.s:218    .text._ZN6ThreadD0Ev:0000000000000010 .L0 
     /tmp/ccHYiiCD.s:220    .text._ZN6ThreadD0Ev:0000000000000014 .L0 
     /tmp/ccHYiiCD.s:226    .text._ZN6ThreadD0Ev:0000000000000018 .L0 
     /tmp/ccHYiiCD.s:229    .text._ZN6ThreadD0Ev:0000000000000024 .L0 
     /tmp/ccHYiiCD.s:230    .text._ZN6ThreadD0Ev:0000000000000024 .L0 
     /tmp/ccHYiiCD.s:235    .text._ZN6ThreadD0Ev:000000000000002c .L0 
     /tmp/ccHYiiCD.s:239    .text._ZN6ThreadD0Ev:000000000000003c .L0 
     /tmp/ccHYiiCD.s:241    .text._ZN6ThreadD0Ev:0000000000000040 .L0 
     /tmp/ccHYiiCD.s:242    .text._ZN6ThreadD0Ev:0000000000000040 .L0 
     /tmp/ccHYiiCD.s:244    .text._ZN6ThreadD0Ev:0000000000000044 .L0 
     /tmp/ccHYiiCD.s:247    .text._ZN6ThreadD0Ev:0000000000000048 .L0 
     /tmp/ccHYiiCD.s:249    .text._ZN6ThreadD0Ev:000000000000004c .L0 
     /tmp/ccHYiiCD.s:263    .text._ZN7WorkerAD2Ev:0000000000000000 _ZN7WorkerAD2Ev
     /tmp/ccHYiiCD.s:266    .text._ZN7WorkerAD2Ev:0000000000000000 .L0 
     /tmp/ccHYiiCD.s:270    .text._ZN7WorkerAD2Ev:0000000000000000 .L0 
     /tmp/ccHYiiCD.s:271    .text._ZN7WorkerAD2Ev:0000000000000004 .L0 
     /tmp/ccHYiiCD.s:274    .text._ZN7WorkerAD2Ev:000000000000000c .L0 
     /tmp/ccHYiiCD.s:275    .text._ZN7WorkerAD2Ev:000000000000000c .L0 
     /tmp/ccHYiiCD.s:277    .text._ZN7WorkerAD2Ev:0000000000000010 .L0 
     /tmp/ccHYiiCD.s:282    .text._ZN7WorkerAD2Ev:0000000000000010 .L0 
     /tmp/ccHYiiCD.s:285    .text._ZN7WorkerAD2Ev:000000000000001c .L0 
     /tmp/ccHYiiCD.s:286    .text._ZN7WorkerAD2Ev:000000000000001c .L0 
     /tmp/ccHYiiCD.s:291    .text._ZN7WorkerAD2Ev:0000000000000024 .L0 
     /tmp/ccHYiiCD.s:292    .text._ZN7WorkerAD2Ev:0000000000000028 .L0 
     /tmp/ccHYiiCD.s:294    .text._ZN7WorkerAD2Ev:000000000000002c .L0 
     /tmp/ccHYiiCD.s:295    .text._ZN7WorkerAD2Ev:000000000000002c .L0 
     /tmp/ccHYiiCD.s:297    .text._ZN7WorkerAD2Ev:0000000000000030 .L0 
     /tmp/ccHYiiCD.s:299    .text._ZN7WorkerAD2Ev:0000000000000034 .L0 
GAS LISTING /tmp/ccHYiiCD.s 			page 44


     /tmp/ccHYiiCD.s:263    .text._ZN7WorkerAD2Ev:0000000000000000 _ZN7WorkerAD1Ev
     /tmp/ccHYiiCD.s:315    .text._ZN7WorkerAD0Ev:0000000000000000 _ZN7WorkerAD0Ev
     /tmp/ccHYiiCD.s:318    .text._ZN7WorkerAD0Ev:0000000000000000 .L0 
     /tmp/ccHYiiCD.s:322    .text._ZN7WorkerAD0Ev:0000000000000000 .L0 
     /tmp/ccHYiiCD.s:323    .text._ZN7WorkerAD0Ev:0000000000000004 .L0 
     /tmp/ccHYiiCD.s:327    .text._ZN7WorkerAD0Ev:0000000000000010 .L0 
     /tmp/ccHYiiCD.s:328    .text._ZN7WorkerAD0Ev:0000000000000010 .L0 
     /tmp/ccHYiiCD.s:329    .text._ZN7WorkerAD0Ev:0000000000000010 .L0 
     /tmp/ccHYiiCD.s:331    .text._ZN7WorkerAD0Ev:0000000000000014 .L0 
     /tmp/ccHYiiCD.s:338    .text._ZN7WorkerAD0Ev:0000000000000018 .L0 
     /tmp/ccHYiiCD.s:341    .text._ZN7WorkerAD0Ev:0000000000000024 .L0 
     /tmp/ccHYiiCD.s:342    .text._ZN7WorkerAD0Ev:0000000000000024 .L0 
     /tmp/ccHYiiCD.s:348    .text._ZN7WorkerAD0Ev:000000000000002c .L0 
     /tmp/ccHYiiCD.s:352    .text._ZN7WorkerAD0Ev:000000000000003c .L0 
     /tmp/ccHYiiCD.s:354    .text._ZN7WorkerAD0Ev:0000000000000040 .L0 
     /tmp/ccHYiiCD.s:355    .text._ZN7WorkerAD0Ev:0000000000000040 .L0 
     /tmp/ccHYiiCD.s:357    .text._ZN7WorkerAD0Ev:0000000000000044 .L0 
     /tmp/ccHYiiCD.s:360    .text._ZN7WorkerAD0Ev:0000000000000048 .L0 
     /tmp/ccHYiiCD.s:362    .text._ZN7WorkerAD0Ev:000000000000004c .L0 
     /tmp/ccHYiiCD.s:376    .text._ZN7WorkerBD2Ev:0000000000000000 _ZN7WorkerBD2Ev
     /tmp/ccHYiiCD.s:379    .text._ZN7WorkerBD2Ev:0000000000000000 .L0 
     /tmp/ccHYiiCD.s:383    .text._ZN7WorkerBD2Ev:0000000000000000 .L0 
     /tmp/ccHYiiCD.s:384    .text._ZN7WorkerBD2Ev:0000000000000004 .L0 
     /tmp/ccHYiiCD.s:387    .text._ZN7WorkerBD2Ev:000000000000000c .L0 
     /tmp/ccHYiiCD.s:388    .text._ZN7WorkerBD2Ev:000000000000000c .L0 
     /tmp/ccHYiiCD.s:390    .text._ZN7WorkerBD2Ev:0000000000000010 .L0 
     /tmp/ccHYiiCD.s:395    .text._ZN7WorkerBD2Ev:0000000000000010 .L0 
     /tmp/ccHYiiCD.s:398    .text._ZN7WorkerBD2Ev:000000000000001c .L0 
     /tmp/ccHYiiCD.s:399    .text._ZN7WorkerBD2Ev:000000000000001c .L0 
     /tmp/ccHYiiCD.s:404    .text._ZN7WorkerBD2Ev:0000000000000024 .L0 
     /tmp/ccHYiiCD.s:405    .text._ZN7WorkerBD2Ev:0000000000000028 .L0 
     /tmp/ccHYiiCD.s:407    .text._ZN7WorkerBD2Ev:000000000000002c .L0 
     /tmp/ccHYiiCD.s:408    .text._ZN7WorkerBD2Ev:000000000000002c .L0 
     /tmp/ccHYiiCD.s:410    .text._ZN7WorkerBD2Ev:0000000000000030 .L0 
     /tmp/ccHYiiCD.s:412    .text._ZN7WorkerBD2Ev:0000000000000034 .L0 
     /tmp/ccHYiiCD.s:376    .text._ZN7WorkerBD2Ev:0000000000000000 _ZN7WorkerBD1Ev
     /tmp/ccHYiiCD.s:428    .text._ZN7WorkerBD0Ev:0000000000000000 _ZN7WorkerBD0Ev
     /tmp/ccHYiiCD.s:431    .text._ZN7WorkerBD0Ev:0000000000000000 .L0 
     /tmp/ccHYiiCD.s:435    .text._ZN7WorkerBD0Ev:0000000000000000 .L0 
     /tmp/ccHYiiCD.s:436    .text._ZN7WorkerBD0Ev:0000000000000004 .L0 
     /tmp/ccHYiiCD.s:440    .text._ZN7WorkerBD0Ev:0000000000000010 .L0 
     /tmp/ccHYiiCD.s:441    .text._ZN7WorkerBD0Ev:0000000000000010 .L0 
     /tmp/ccHYiiCD.s:442    .text._ZN7WorkerBD0Ev:0000000000000010 .L0 
     /tmp/ccHYiiCD.s:444    .text._ZN7WorkerBD0Ev:0000000000000014 .L0 
     /tmp/ccHYiiCD.s:451    .text._ZN7WorkerBD0Ev:0000000000000018 .L0 
     /tmp/ccHYiiCD.s:454    .text._ZN7WorkerBD0Ev:0000000000000024 .L0 
     /tmp/ccHYiiCD.s:455    .text._ZN7WorkerBD0Ev:0000000000000024 .L0 
     /tmp/ccHYiiCD.s:461    .text._ZN7WorkerBD0Ev:000000000000002c .L0 
     /tmp/ccHYiiCD.s:465    .text._ZN7WorkerBD0Ev:000000000000003c .L0 
     /tmp/ccHYiiCD.s:467    .text._ZN7WorkerBD0Ev:0000000000000040 .L0 
     /tmp/ccHYiiCD.s:468    .text._ZN7WorkerBD0Ev:0000000000000040 .L0 
     /tmp/ccHYiiCD.s:470    .text._ZN7WorkerBD0Ev:0000000000000044 .L0 
     /tmp/ccHYiiCD.s:473    .text._ZN7WorkerBD0Ev:0000000000000048 .L0 
     /tmp/ccHYiiCD.s:475    .text._ZN7WorkerBD0Ev:000000000000004c .L0 
     /tmp/ccHYiiCD.s:489    .text._ZN7WorkerCD2Ev:0000000000000000 _ZN7WorkerCD2Ev
     /tmp/ccHYiiCD.s:492    .text._ZN7WorkerCD2Ev:0000000000000000 .L0 
     /tmp/ccHYiiCD.s:496    .text._ZN7WorkerCD2Ev:0000000000000000 .L0 
GAS LISTING /tmp/ccHYiiCD.s 			page 45


     /tmp/ccHYiiCD.s:497    .text._ZN7WorkerCD2Ev:0000000000000004 .L0 
     /tmp/ccHYiiCD.s:500    .text._ZN7WorkerCD2Ev:000000000000000c .L0 
     /tmp/ccHYiiCD.s:501    .text._ZN7WorkerCD2Ev:000000000000000c .L0 
     /tmp/ccHYiiCD.s:503    .text._ZN7WorkerCD2Ev:0000000000000010 .L0 
     /tmp/ccHYiiCD.s:508    .text._ZN7WorkerCD2Ev:0000000000000010 .L0 
     /tmp/ccHYiiCD.s:511    .text._ZN7WorkerCD2Ev:000000000000001c .L0 
     /tmp/ccHYiiCD.s:512    .text._ZN7WorkerCD2Ev:000000000000001c .L0 
     /tmp/ccHYiiCD.s:517    .text._ZN7WorkerCD2Ev:0000000000000024 .L0 
     /tmp/ccHYiiCD.s:518    .text._ZN7WorkerCD2Ev:0000000000000028 .L0 
     /tmp/ccHYiiCD.s:520    .text._ZN7WorkerCD2Ev:000000000000002c .L0 
     /tmp/ccHYiiCD.s:521    .text._ZN7WorkerCD2Ev:000000000000002c .L0 
     /tmp/ccHYiiCD.s:523    .text._ZN7WorkerCD2Ev:0000000000000030 .L0 
     /tmp/ccHYiiCD.s:525    .text._ZN7WorkerCD2Ev:0000000000000034 .L0 
     /tmp/ccHYiiCD.s:489    .text._ZN7WorkerCD2Ev:0000000000000000 _ZN7WorkerCD1Ev
     /tmp/ccHYiiCD.s:541    .text._ZN7WorkerCD0Ev:0000000000000000 _ZN7WorkerCD0Ev
     /tmp/ccHYiiCD.s:544    .text._ZN7WorkerCD0Ev:0000000000000000 .L0 
     /tmp/ccHYiiCD.s:548    .text._ZN7WorkerCD0Ev:0000000000000000 .L0 
     /tmp/ccHYiiCD.s:549    .text._ZN7WorkerCD0Ev:0000000000000004 .L0 
     /tmp/ccHYiiCD.s:553    .text._ZN7WorkerCD0Ev:0000000000000010 .L0 
     /tmp/ccHYiiCD.s:554    .text._ZN7WorkerCD0Ev:0000000000000010 .L0 
     /tmp/ccHYiiCD.s:555    .text._ZN7WorkerCD0Ev:0000000000000010 .L0 
     /tmp/ccHYiiCD.s:557    .text._ZN7WorkerCD0Ev:0000000000000014 .L0 
     /tmp/ccHYiiCD.s:564    .text._ZN7WorkerCD0Ev:0000000000000018 .L0 
     /tmp/ccHYiiCD.s:567    .text._ZN7WorkerCD0Ev:0000000000000024 .L0 
     /tmp/ccHYiiCD.s:568    .text._ZN7WorkerCD0Ev:0000000000000024 .L0 
     /tmp/ccHYiiCD.s:574    .text._ZN7WorkerCD0Ev:000000000000002c .L0 
     /tmp/ccHYiiCD.s:578    .text._ZN7WorkerCD0Ev:000000000000003c .L0 
     /tmp/ccHYiiCD.s:580    .text._ZN7WorkerCD0Ev:0000000000000040 .L0 
     /tmp/ccHYiiCD.s:581    .text._ZN7WorkerCD0Ev:0000000000000040 .L0 
     /tmp/ccHYiiCD.s:583    .text._ZN7WorkerCD0Ev:0000000000000044 .L0 
     /tmp/ccHYiiCD.s:586    .text._ZN7WorkerCD0Ev:0000000000000048 .L0 
     /tmp/ccHYiiCD.s:588    .text._ZN7WorkerCD0Ev:000000000000004c .L0 
     /tmp/ccHYiiCD.s:602    .text._ZN7WorkerDD2Ev:0000000000000000 _ZN7WorkerDD2Ev
     /tmp/ccHYiiCD.s:605    .text._ZN7WorkerDD2Ev:0000000000000000 .L0 
     /tmp/ccHYiiCD.s:609    .text._ZN7WorkerDD2Ev:0000000000000000 .L0 
     /tmp/ccHYiiCD.s:610    .text._ZN7WorkerDD2Ev:0000000000000004 .L0 
     /tmp/ccHYiiCD.s:613    .text._ZN7WorkerDD2Ev:000000000000000c .L0 
     /tmp/ccHYiiCD.s:614    .text._ZN7WorkerDD2Ev:000000000000000c .L0 
     /tmp/ccHYiiCD.s:616    .text._ZN7WorkerDD2Ev:0000000000000010 .L0 
     /tmp/ccHYiiCD.s:621    .text._ZN7WorkerDD2Ev:0000000000000010 .L0 
     /tmp/ccHYiiCD.s:624    .text._ZN7WorkerDD2Ev:000000000000001c .L0 
     /tmp/ccHYiiCD.s:625    .text._ZN7WorkerDD2Ev:000000000000001c .L0 
     /tmp/ccHYiiCD.s:630    .text._ZN7WorkerDD2Ev:0000000000000024 .L0 
     /tmp/ccHYiiCD.s:631    .text._ZN7WorkerDD2Ev:0000000000000028 .L0 
     /tmp/ccHYiiCD.s:633    .text._ZN7WorkerDD2Ev:000000000000002c .L0 
     /tmp/ccHYiiCD.s:634    .text._ZN7WorkerDD2Ev:000000000000002c .L0 
     /tmp/ccHYiiCD.s:636    .text._ZN7WorkerDD2Ev:0000000000000030 .L0 
     /tmp/ccHYiiCD.s:638    .text._ZN7WorkerDD2Ev:0000000000000034 .L0 
     /tmp/ccHYiiCD.s:602    .text._ZN7WorkerDD2Ev:0000000000000000 _ZN7WorkerDD1Ev
     /tmp/ccHYiiCD.s:654    .text._ZN7WorkerDD0Ev:0000000000000000 _ZN7WorkerDD0Ev
     /tmp/ccHYiiCD.s:657    .text._ZN7WorkerDD0Ev:0000000000000000 .L0 
     /tmp/ccHYiiCD.s:661    .text._ZN7WorkerDD0Ev:0000000000000000 .L0 
     /tmp/ccHYiiCD.s:662    .text._ZN7WorkerDD0Ev:0000000000000004 .L0 
     /tmp/ccHYiiCD.s:666    .text._ZN7WorkerDD0Ev:0000000000000010 .L0 
     /tmp/ccHYiiCD.s:667    .text._ZN7WorkerDD0Ev:0000000000000010 .L0 
     /tmp/ccHYiiCD.s:668    .text._ZN7WorkerDD0Ev:0000000000000010 .L0 
     /tmp/ccHYiiCD.s:670    .text._ZN7WorkerDD0Ev:0000000000000014 .L0 
GAS LISTING /tmp/ccHYiiCD.s 			page 46


     /tmp/ccHYiiCD.s:677    .text._ZN7WorkerDD0Ev:0000000000000018 .L0 
     /tmp/ccHYiiCD.s:680    .text._ZN7WorkerDD0Ev:0000000000000024 .L0 
     /tmp/ccHYiiCD.s:681    .text._ZN7WorkerDD0Ev:0000000000000024 .L0 
     /tmp/ccHYiiCD.s:687    .text._ZN7WorkerDD0Ev:000000000000002c .L0 
     /tmp/ccHYiiCD.s:691    .text._ZN7WorkerDD0Ev:000000000000003c .L0 
     /tmp/ccHYiiCD.s:693    .text._ZN7WorkerDD0Ev:0000000000000040 .L0 
     /tmp/ccHYiiCD.s:694    .text._ZN7WorkerDD0Ev:0000000000000040 .L0 
     /tmp/ccHYiiCD.s:696    .text._ZN7WorkerDD0Ev:0000000000000044 .L0 
     /tmp/ccHYiiCD.s:699    .text._ZN7WorkerDD0Ev:0000000000000048 .L0 
     /tmp/ccHYiiCD.s:701    .text._ZN7WorkerDD0Ev:000000000000004c .L0 
     /tmp/ccHYiiCD.s:725    .text:0000000000000074 _ZN7WorkerA11workerBodyAEPv
     /tmp/ccHYiiCD.s:728    .text:0000000000000074 .L0 
     /tmp/ccHYiiCD.s:730    .text:0000000000000074 .L0 
     /tmp/ccHYiiCD.s:731    .text:0000000000000078 .L0 
     /tmp/ccHYiiCD.s:736    .text:0000000000000088 .L0 
     /tmp/ccHYiiCD.s:737    .text:0000000000000088 .L0 
     /tmp/ccHYiiCD.s:738    .text:0000000000000088 .L0 
     /tmp/ccHYiiCD.s:739    .text:0000000000000088 .L0 
     /tmp/ccHYiiCD.s:741    .text:000000000000008c .L0 
     /tmp/ccHYiiCD.s:745    .text:000000000000008c .L0 
     /tmp/ccHYiiCD.s:746    .text:000000000000008c .L0 
     /tmp/ccHYiiCD.s:754    .text:0000000000000094 .L0 
     /tmp/ccHYiiCD.s:755    .text:0000000000000094 .L0 
     /tmp/ccHYiiCD.s:759    .text:000000000000009c .L0 
     /tmp/ccHYiiCD.s:763    .text:00000000000000a0 .L0 
     /tmp/ccHYiiCD.s:769    .text:00000000000000ac .L0 
     /tmp/ccHYiiCD.s:773    .text:00000000000000b0 .L0 
     /tmp/ccHYiiCD.s:777    .text:00000000000000bc .L0 
     /tmp/ccHYiiCD.s:787    .text:00000000000000c4 .L0 
     /tmp/ccHYiiCD.s:791    .text:00000000000000c8 .L0 
     /tmp/ccHYiiCD.s:795    .text:00000000000000d0 .L0 
     /tmp/ccHYiiCD.s:796    .text:00000000000000d0 .L0 
     /tmp/ccHYiiCD.s:800    .text:00000000000000e0 .L0 
     /tmp/ccHYiiCD.s:801    .text:00000000000000e0 .L0 
     /tmp/ccHYiiCD.s:807    .text:00000000000000f4 .L0 
     /tmp/ccHYiiCD.s:808    .text:00000000000000f4 .L0 
     /tmp/ccHYiiCD.s:813    .text:0000000000000104 .L0 
     /tmp/ccHYiiCD.s:814    .text:0000000000000104 .L0 
     /tmp/ccHYiiCD.s:822    .text:000000000000010c .L0 
     /tmp/ccHYiiCD.s:823    .text:000000000000010c .L0 
     /tmp/ccHYiiCD.s:827    .text:000000000000011c .L0 
     /tmp/ccHYiiCD.s:828    .text:000000000000011c .L0 
     /tmp/ccHYiiCD.s:1831   .sbss:0000000000000003 _ZL9finishedA
     /tmp/ccHYiiCD.s:831    .text:0000000000000128 .L0 
     /tmp/ccHYiiCD.s:832    .text:000000000000012c .L0 
     /tmp/ccHYiiCD.s:834    .text:0000000000000130 .L0 
     /tmp/ccHYiiCD.s:835    .text:0000000000000130 .L0 
     /tmp/ccHYiiCD.s:837    .text:0000000000000134 .L0 
     /tmp/ccHYiiCD.s:839    .text:0000000000000138 .L0 
     /tmp/ccHYiiCD.s:842    .text:000000000000013c .L0 
     /tmp/ccHYiiCD.s:844    .text:0000000000000140 .L0 
     /tmp/ccHYiiCD.s:851    .text._ZN7WorkerA3runEv:0000000000000000 _ZN7WorkerA3runEv
     /tmp/ccHYiiCD.s:854    .text._ZN7WorkerA3runEv:0000000000000000 .L0 
     /tmp/ccHYiiCD.s:856    .text._ZN7WorkerA3runEv:0000000000000000 .L0 
     /tmp/ccHYiiCD.s:857    .text._ZN7WorkerA3runEv:0000000000000004 .L0 
     /tmp/ccHYiiCD.s:860    .text._ZN7WorkerA3runEv:000000000000000c .L0 
     /tmp/ccHYiiCD.s:861    .text._ZN7WorkerA3runEv:000000000000000c .L0 
GAS LISTING /tmp/ccHYiiCD.s 			page 47


     /tmp/ccHYiiCD.s:863    .text._ZN7WorkerA3runEv:0000000000000010 .L0 
     /tmp/ccHYiiCD.s:865    .text._ZN7WorkerA3runEv:0000000000000010 .L0 
     /tmp/ccHYiiCD.s:866    .text._ZN7WorkerA3runEv:0000000000000010 .L0 
     /tmp/ccHYiiCD.s:870    .text._ZN7WorkerA3runEv:000000000000001c .L0 
     /tmp/ccHYiiCD.s:871    .text._ZN7WorkerA3runEv:0000000000000020 .L0 
     /tmp/ccHYiiCD.s:873    .text._ZN7WorkerA3runEv:0000000000000024 .L0 
     /tmp/ccHYiiCD.s:874    .text._ZN7WorkerA3runEv:0000000000000024 .L0 
     /tmp/ccHYiiCD.s:876    .text._ZN7WorkerA3runEv:0000000000000028 .L0 
     /tmp/ccHYiiCD.s:878    .text._ZN7WorkerA3runEv:000000000000002c .L0 
     /tmp/ccHYiiCD.s:892    .text:0000000000000140 _ZN7WorkerB11workerBodyBEPv
     /tmp/ccHYiiCD.s:895    .text:0000000000000140 .L0 
     /tmp/ccHYiiCD.s:897    .text:0000000000000140 .L0 
     /tmp/ccHYiiCD.s:898    .text:0000000000000144 .L0 
     /tmp/ccHYiiCD.s:903    .text:0000000000000154 .L0 
     /tmp/ccHYiiCD.s:904    .text:0000000000000154 .L0 
     /tmp/ccHYiiCD.s:905    .text:0000000000000154 .L0 
     /tmp/ccHYiiCD.s:906    .text:0000000000000154 .L0 
     /tmp/ccHYiiCD.s:908    .text:0000000000000158 .L0 
     /tmp/ccHYiiCD.s:912    .text:0000000000000158 .L0 
     /tmp/ccHYiiCD.s:913    .text:0000000000000158 .L0 
     /tmp/ccHYiiCD.s:921    .text:0000000000000160 .L0 
     /tmp/ccHYiiCD.s:922    .text:0000000000000160 .L0 
     /tmp/ccHYiiCD.s:926    .text:0000000000000168 .L0 
     /tmp/ccHYiiCD.s:930    .text:000000000000016c .L0 
     /tmp/ccHYiiCD.s:936    .text:0000000000000178 .L0 
     /tmp/ccHYiiCD.s:940    .text:000000000000017c .L0 
     /tmp/ccHYiiCD.s:944    .text:0000000000000188 .L0 
     /tmp/ccHYiiCD.s:954    .text:0000000000000190 .L0 
     /tmp/ccHYiiCD.s:958    .text:0000000000000194 .L0 
     /tmp/ccHYiiCD.s:962    .text:000000000000019c .L0 
     /tmp/ccHYiiCD.s:963    .text:000000000000019c .L0 
     /tmp/ccHYiiCD.s:967    .text:00000000000001ac .L0 
     /tmp/ccHYiiCD.s:968    .text:00000000000001ac .L0 
     /tmp/ccHYiiCD.s:974    .text:00000000000001c0 .L0 
     /tmp/ccHYiiCD.s:975    .text:00000000000001c0 .L0 
     /tmp/ccHYiiCD.s:980    .text:00000000000001d0 .L0 
     /tmp/ccHYiiCD.s:981    .text:00000000000001d0 .L0 
     /tmp/ccHYiiCD.s:989    .text:00000000000001d8 .L0 
     /tmp/ccHYiiCD.s:990    .text:00000000000001d8 .L0 
     /tmp/ccHYiiCD.s:994    .text:00000000000001e8 .L0 
     /tmp/ccHYiiCD.s:995    .text:00000000000001e8 .L0 
     /tmp/ccHYiiCD.s:1827   .sbss:0000000000000002 _ZL9finishedB
     /tmp/ccHYiiCD.s:998    .text:00000000000001f4 .L0 
     /tmp/ccHYiiCD.s:999    .text:00000000000001f4 .L0 
     /tmp/ccHYiiCD.s:1002   .text:00000000000001fc .L0 
     /tmp/ccHYiiCD.s:1003   .text:0000000000000200 .L0 
     /tmp/ccHYiiCD.s:1005   .text:0000000000000204 .L0 
     /tmp/ccHYiiCD.s:1006   .text:0000000000000204 .L0 
     /tmp/ccHYiiCD.s:1008   .text:0000000000000208 .L0 
     /tmp/ccHYiiCD.s:1010   .text:000000000000020c .L0 
     /tmp/ccHYiiCD.s:1013   .text:0000000000000210 .L0 
     /tmp/ccHYiiCD.s:1015   .text:0000000000000214 .L0 
     /tmp/ccHYiiCD.s:1022   .text._ZN7WorkerB3runEv:0000000000000000 _ZN7WorkerB3runEv
     /tmp/ccHYiiCD.s:1025   .text._ZN7WorkerB3runEv:0000000000000000 .L0 
     /tmp/ccHYiiCD.s:1027   .text._ZN7WorkerB3runEv:0000000000000000 .L0 
     /tmp/ccHYiiCD.s:1028   .text._ZN7WorkerB3runEv:0000000000000004 .L0 
     /tmp/ccHYiiCD.s:1031   .text._ZN7WorkerB3runEv:000000000000000c .L0 
GAS LISTING /tmp/ccHYiiCD.s 			page 48


     /tmp/ccHYiiCD.s:1032   .text._ZN7WorkerB3runEv:000000000000000c .L0 
     /tmp/ccHYiiCD.s:1034   .text._ZN7WorkerB3runEv:0000000000000010 .L0 
     /tmp/ccHYiiCD.s:1036   .text._ZN7WorkerB3runEv:0000000000000010 .L0 
     /tmp/ccHYiiCD.s:1037   .text._ZN7WorkerB3runEv:0000000000000010 .L0 
     /tmp/ccHYiiCD.s:1041   .text._ZN7WorkerB3runEv:000000000000001c .L0 
     /tmp/ccHYiiCD.s:1042   .text._ZN7WorkerB3runEv:0000000000000020 .L0 
     /tmp/ccHYiiCD.s:1044   .text._ZN7WorkerB3runEv:0000000000000024 .L0 
     /tmp/ccHYiiCD.s:1045   .text._ZN7WorkerB3runEv:0000000000000024 .L0 
     /tmp/ccHYiiCD.s:1047   .text._ZN7WorkerB3runEv:0000000000000028 .L0 
     /tmp/ccHYiiCD.s:1049   .text._ZN7WorkerB3runEv:000000000000002c .L0 
     /tmp/ccHYiiCD.s:1069   .text:0000000000000214 _ZN7WorkerC11workerBodyCEPv
     /tmp/ccHYiiCD.s:1072   .text:0000000000000214 .L0 
     /tmp/ccHYiiCD.s:1074   .text:0000000000000214 .L0 
     /tmp/ccHYiiCD.s:1075   .text:0000000000000218 .L0 
     /tmp/ccHYiiCD.s:1080   .text:0000000000000228 .L0 
     /tmp/ccHYiiCD.s:1081   .text:0000000000000228 .L0 
     /tmp/ccHYiiCD.s:1082   .text:0000000000000228 .L0 
     /tmp/ccHYiiCD.s:1083   .text:0000000000000228 .L0 
     /tmp/ccHYiiCD.s:1085   .text:000000000000022c .L0 
     /tmp/ccHYiiCD.s:1088   .text:000000000000022c .L0 
     /tmp/ccHYiiCD.s:1089   .text:000000000000022c .L0 
     /tmp/ccHYiiCD.s:1094   .text:0000000000000234 .L0 
     /tmp/ccHYiiCD.s:1095   .text:0000000000000234 .L0 
     /tmp/ccHYiiCD.s:1099   .text:0000000000000244 .L0 
     /tmp/ccHYiiCD.s:1100   .text:0000000000000244 .L0 
     /tmp/ccHYiiCD.s:1106   .text:0000000000000258 .L0 
     /tmp/ccHYiiCD.s:1107   .text:0000000000000258 .L0 
     /tmp/ccHYiiCD.s:1111   .text:0000000000000268 .L0 
     /tmp/ccHYiiCD.s:1117   .text:0000000000000270 .L0 
     /tmp/ccHYiiCD.s:1118   .text:0000000000000270 .L0 
     /tmp/ccHYiiCD.s:1121   .text:0000000000000278 .L0 
     /tmp/ccHYiiCD.s:1122   .text:0000000000000278 .L0 
     /tmp/ccHYiiCD.s:1126   .text:0000000000000288 .L0 
test/Threads_CPP_API_test.cpp:88     .text:0000000000000288 .L0 
     /tmp/ccHYiiCD.s:1132   .text:000000000000028c .L0 
     /tmp/ccHYiiCD.s:1134   .text:000000000000028c .L0 
     /tmp/ccHYiiCD.s:1137   .text:0000000000000294 .L0 
     /tmp/ccHYiiCD.s:1138   .text:0000000000000294 .L0 
test/Threads_CPP_API_test.cpp:92     .text:0000000000000294 .L0 
     /tmp/ccHYiiCD.s:1145   .text:0000000000000298 .L0 
     /tmp/ccHYiiCD.s:1147   .text:0000000000000298 .L0 
     /tmp/ccHYiiCD.s:1151   .text:00000000000002a8 .L0 
     /tmp/ccHYiiCD.s:1152   .text:00000000000002a8 .L0 
     /tmp/ccHYiiCD.s:1158   .text:00000000000002bc .L0 
     /tmp/ccHYiiCD.s:1159   .text:00000000000002bc .L0 
     /tmp/ccHYiiCD.s:1163   .text:00000000000002cc .L0 
     /tmp/ccHYiiCD.s:1164   .text:00000000000002cc .L0 
     /tmp/ccHYiiCD.s:1170   .text:00000000000002dc .L0 
     /tmp/ccHYiiCD.s:1171   .text:00000000000002dc .L0 
     /tmp/ccHYiiCD.s:1176   .text:00000000000002ec .L0 
     /tmp/ccHYiiCD.s:1177   .text:00000000000002ec .L0 
     /tmp/ccHYiiCD.s:1183   .text:0000000000000300 .L0 
     /tmp/ccHYiiCD.s:1184   .text:0000000000000300 .L0 
     /tmp/ccHYiiCD.s:1190   .text:0000000000000314 .L0 
     /tmp/ccHYiiCD.s:1191   .text:0000000000000314 .L0 
     /tmp/ccHYiiCD.s:1195   .text:0000000000000324 .L0 
     /tmp/ccHYiiCD.s:1196   .text:0000000000000324 .L0 
GAS LISTING /tmp/ccHYiiCD.s 			page 49


     /tmp/ccHYiiCD.s:1202   .text:0000000000000338 .L0 
     /tmp/ccHYiiCD.s:1203   .text:0000000000000338 .L0 
     /tmp/ccHYiiCD.s:1207   .text:0000000000000348 .L0 
     /tmp/ccHYiiCD.s:1213   .text:0000000000000350 .L0 
     /tmp/ccHYiiCD.s:1214   .text:0000000000000350 .L0 
     /tmp/ccHYiiCD.s:1217   .text:0000000000000358 .L0 
     /tmp/ccHYiiCD.s:1218   .text:0000000000000358 .L0 
     /tmp/ccHYiiCD.s:1222   .text:0000000000000368 .L0 
     /tmp/ccHYiiCD.s:1223   .text:0000000000000368 .L0 
     /tmp/ccHYiiCD.s:1823   .sbss:0000000000000001 _ZL9finishedC
     /tmp/ccHYiiCD.s:1226   .text:0000000000000374 .L0 
     /tmp/ccHYiiCD.s:1227   .text:0000000000000374 .L0 
     /tmp/ccHYiiCD.s:1230   .text:000000000000037c .L0 
     /tmp/ccHYiiCD.s:1231   .text:0000000000000380 .L0 
     /tmp/ccHYiiCD.s:1233   .text:0000000000000384 .L0 
     /tmp/ccHYiiCD.s:1234   .text:0000000000000384 .L0 
     /tmp/ccHYiiCD.s:1236   .text:0000000000000388 .L0 
     /tmp/ccHYiiCD.s:1239   .text:000000000000038c .L0 
     /tmp/ccHYiiCD.s:1242   .text:0000000000000390 .L0 
     /tmp/ccHYiiCD.s:1244   .text:0000000000000394 .L0 
     /tmp/ccHYiiCD.s:1251   .text._ZN7WorkerC3runEv:0000000000000000 _ZN7WorkerC3runEv
     /tmp/ccHYiiCD.s:1254   .text._ZN7WorkerC3runEv:0000000000000000 .L0 
     /tmp/ccHYiiCD.s:1256   .text._ZN7WorkerC3runEv:0000000000000000 .L0 
     /tmp/ccHYiiCD.s:1257   .text._ZN7WorkerC3runEv:0000000000000004 .L0 
     /tmp/ccHYiiCD.s:1260   .text._ZN7WorkerC3runEv:000000000000000c .L0 
     /tmp/ccHYiiCD.s:1261   .text._ZN7WorkerC3runEv:000000000000000c .L0 
     /tmp/ccHYiiCD.s:1263   .text._ZN7WorkerC3runEv:0000000000000010 .L0 
     /tmp/ccHYiiCD.s:1265   .text._ZN7WorkerC3runEv:0000000000000010 .L0 
     /tmp/ccHYiiCD.s:1266   .text._ZN7WorkerC3runEv:0000000000000010 .L0 
     /tmp/ccHYiiCD.s:1270   .text._ZN7WorkerC3runEv:000000000000001c .L0 
     /tmp/ccHYiiCD.s:1271   .text._ZN7WorkerC3runEv:0000000000000020 .L0 
     /tmp/ccHYiiCD.s:1273   .text._ZN7WorkerC3runEv:0000000000000024 .L0 
     /tmp/ccHYiiCD.s:1274   .text._ZN7WorkerC3runEv:0000000000000024 .L0 
     /tmp/ccHYiiCD.s:1276   .text._ZN7WorkerC3runEv:0000000000000028 .L0 
     /tmp/ccHYiiCD.s:1278   .text._ZN7WorkerC3runEv:000000000000002c .L0 
     /tmp/ccHYiiCD.s:1298   .text:0000000000000394 _ZN7WorkerD11workerBodyDEPv
     /tmp/ccHYiiCD.s:1301   .text:0000000000000394 .L0 
     /tmp/ccHYiiCD.s:1303   .text:0000000000000394 .L0 
     /tmp/ccHYiiCD.s:1304   .text:0000000000000398 .L0 
     /tmp/ccHYiiCD.s:1309   .text:00000000000003a8 .L0 
     /tmp/ccHYiiCD.s:1310   .text:00000000000003a8 .L0 
     /tmp/ccHYiiCD.s:1311   .text:00000000000003a8 .L0 
     /tmp/ccHYiiCD.s:1312   .text:00000000000003a8 .L0 
     /tmp/ccHYiiCD.s:1314   .text:00000000000003ac .L0 
     /tmp/ccHYiiCD.s:1317   .text:00000000000003ac .L0 
     /tmp/ccHYiiCD.s:1318   .text:00000000000003ac .L0 
     /tmp/ccHYiiCD.s:1323   .text:00000000000003b4 .L0 
     /tmp/ccHYiiCD.s:1324   .text:00000000000003b4 .L0 
     /tmp/ccHYiiCD.s:1328   .text:00000000000003c4 .L0 
     /tmp/ccHYiiCD.s:1329   .text:00000000000003c4 .L0 
     /tmp/ccHYiiCD.s:1335   .text:00000000000003d8 .L0 
     /tmp/ccHYiiCD.s:1336   .text:00000000000003d8 .L0 
     /tmp/ccHYiiCD.s:1340   .text:00000000000003e8 .L0 
     /tmp/ccHYiiCD.s:1346   .text:00000000000003f0 .L0 
     /tmp/ccHYiiCD.s:1347   .text:00000000000003f0 .L0 
     /tmp/ccHYiiCD.s:1350   .text:00000000000003f8 .L0 
     /tmp/ccHYiiCD.s:1351   .text:00000000000003f8 .L0 
GAS LISTING /tmp/ccHYiiCD.s 			page 50


     /tmp/ccHYiiCD.s:1355   .text:0000000000000408 .L0 
test/Threads_CPP_API_test.cpp:115    .text:0000000000000408 .L0 
     /tmp/ccHYiiCD.s:1361   .text:000000000000040c .L0 
     /tmp/ccHYiiCD.s:1363   .text:000000000000040c .L0 
     /tmp/ccHYiiCD.s:1366   .text:0000000000000414 .L0 
     /tmp/ccHYiiCD.s:1367   .text:0000000000000414 .L0 
     /tmp/ccHYiiCD.s:1373   .text:0000000000000424 .L0 
     /tmp/ccHYiiCD.s:1374   .text:0000000000000424 .L0 
     /tmp/ccHYiiCD.s:1379   .text:0000000000000434 .L0 
     /tmp/ccHYiiCD.s:1380   .text:0000000000000434 .L0 
     /tmp/ccHYiiCD.s:1386   .text:0000000000000448 .L0 
     /tmp/ccHYiiCD.s:1387   .text:0000000000000448 .L0 
     /tmp/ccHYiiCD.s:1393   .text:000000000000045c .L0 
     /tmp/ccHYiiCD.s:1394   .text:000000000000045c .L0 
     /tmp/ccHYiiCD.s:1398   .text:000000000000046c .L0 
     /tmp/ccHYiiCD.s:1399   .text:000000000000046c .L0 
     /tmp/ccHYiiCD.s:1405   .text:0000000000000480 .L0 
     /tmp/ccHYiiCD.s:1406   .text:0000000000000480 .L0 
     /tmp/ccHYiiCD.s:1410   .text:0000000000000490 .L0 
     /tmp/ccHYiiCD.s:1416   .text:0000000000000498 .L0 
     /tmp/ccHYiiCD.s:1417   .text:0000000000000498 .L0 
     /tmp/ccHYiiCD.s:1420   .text:00000000000004a0 .L0 
     /tmp/ccHYiiCD.s:1421   .text:00000000000004a0 .L0 
     /tmp/ccHYiiCD.s:1425   .text:00000000000004b0 .L0 
     /tmp/ccHYiiCD.s:1426   .text:00000000000004b0 .L0 
     /tmp/ccHYiiCD.s:1819   .sbss:0000000000000000 _ZL9finishedD
     /tmp/ccHYiiCD.s:1429   .text:00000000000004bc .L0 
     /tmp/ccHYiiCD.s:1430   .text:00000000000004bc .L0 
     /tmp/ccHYiiCD.s:1433   .text:00000000000004c4 .L0 
     /tmp/ccHYiiCD.s:1434   .text:00000000000004c8 .L0 
     /tmp/ccHYiiCD.s:1436   .text:00000000000004cc .L0 
     /tmp/ccHYiiCD.s:1437   .text:00000000000004cc .L0 
     /tmp/ccHYiiCD.s:1439   .text:00000000000004d0 .L0 
     /tmp/ccHYiiCD.s:1442   .text:00000000000004d4 .L0 
     /tmp/ccHYiiCD.s:1445   .text:00000000000004d8 .L0 
     /tmp/ccHYiiCD.s:1447   .text:00000000000004dc .L0 
     /tmp/ccHYiiCD.s:1454   .text._ZN7WorkerD3runEv:0000000000000000 _ZN7WorkerD3runEv
     /tmp/ccHYiiCD.s:1457   .text._ZN7WorkerD3runEv:0000000000000000 .L0 
     /tmp/ccHYiiCD.s:1459   .text._ZN7WorkerD3runEv:0000000000000000 .L0 
     /tmp/ccHYiiCD.s:1460   .text._ZN7WorkerD3runEv:0000000000000004 .L0 
     /tmp/ccHYiiCD.s:1463   .text._ZN7WorkerD3runEv:000000000000000c .L0 
     /tmp/ccHYiiCD.s:1464   .text._ZN7WorkerD3runEv:000000000000000c .L0 
     /tmp/ccHYiiCD.s:1466   .text._ZN7WorkerD3runEv:0000000000000010 .L0 
     /tmp/ccHYiiCD.s:1468   .text._ZN7WorkerD3runEv:0000000000000010 .L0 
     /tmp/ccHYiiCD.s:1469   .text._ZN7WorkerD3runEv:0000000000000010 .L0 
     /tmp/ccHYiiCD.s:1473   .text._ZN7WorkerD3runEv:000000000000001c .L0 
     /tmp/ccHYiiCD.s:1474   .text._ZN7WorkerD3runEv:0000000000000020 .L0 
     /tmp/ccHYiiCD.s:1476   .text._ZN7WorkerD3runEv:0000000000000024 .L0 
     /tmp/ccHYiiCD.s:1477   .text._ZN7WorkerD3runEv:0000000000000024 .L0 
     /tmp/ccHYiiCD.s:1479   .text._ZN7WorkerD3runEv:0000000000000028 .L0 
     /tmp/ccHYiiCD.s:1481   .text._ZN7WorkerD3runEv:000000000000002c .L0 
     /tmp/ccHYiiCD.s:1504   .text:00000000000004dc _Z20Threads_CPP_API_testv
     /tmp/ccHYiiCD.s:1507   .text:00000000000004dc .L0 
     /tmp/ccHYiiCD.s:1508   .text:00000000000004dc .L0 
     /tmp/ccHYiiCD.s:1509   .text:00000000000004e0 .L0 
     /tmp/ccHYiiCD.s:1514   .text:00000000000004f0 .L0 
     /tmp/ccHYiiCD.s:1515   .text:00000000000004f0 .L0 
GAS LISTING /tmp/ccHYiiCD.s 			page 51


     /tmp/ccHYiiCD.s:1516   .text:00000000000004f0 .L0 
     /tmp/ccHYiiCD.s:1517   .text:00000000000004f0 .L0 
     /tmp/ccHYiiCD.s:1519   .text:00000000000004f4 .L0 
     /tmp/ccHYiiCD.s:1521   .text:00000000000004f4 .L0 
     /tmp/ccHYiiCD.s:1522   .text:00000000000004f4 .L0 
     /tmp/ccHYiiCD.s:1523   .text:00000000000004f4 .L0 
     /tmp/ccHYiiCD.s:1531   .text:0000000000000500 .L0 
     /tmp/ccHYiiCD.s:1777   .rodata._ZTV7WorkerA:0000000000000000 _ZTV7WorkerA
     /tmp/ccHYiiCD.s:1536   .text:0000000000000504 .L0 
     /tmp/ccHYiiCD.s:1542   .text:0000000000000510 .L0 
     /tmp/ccHYiiCD.s:1544   .text:0000000000000514 .L0 
     /tmp/ccHYiiCD.s:1545   .text:0000000000000514 .L0 
     /tmp/ccHYiiCD.s:1549   .text:0000000000000524 .L0 
     /tmp/ccHYiiCD.s:1550   .text:0000000000000524 .L0 
     /tmp/ccHYiiCD.s:1558   .text:0000000000000530 .L0 
     /tmp/ccHYiiCD.s:1788   .rodata._ZTV7WorkerB:0000000000000000 _ZTV7WorkerB
     /tmp/ccHYiiCD.s:1563   .text:0000000000000534 .L0 
     /tmp/ccHYiiCD.s:1569   .text:0000000000000540 .L0 
     /tmp/ccHYiiCD.s:1571   .text:0000000000000544 .L0 
     /tmp/ccHYiiCD.s:1572   .text:0000000000000544 .L0 
     /tmp/ccHYiiCD.s:1576   .text:0000000000000554 .L0 
     /tmp/ccHYiiCD.s:1577   .text:0000000000000554 .L0 
     /tmp/ccHYiiCD.s:1585   .text:0000000000000560 .L0 
     /tmp/ccHYiiCD.s:1799   .rodata._ZTV7WorkerC:0000000000000000 _ZTV7WorkerC
     /tmp/ccHYiiCD.s:1590   .text:0000000000000564 .L0 
     /tmp/ccHYiiCD.s:1596   .text:0000000000000570 .L0 
     /tmp/ccHYiiCD.s:1598   .text:0000000000000574 .L0 
     /tmp/ccHYiiCD.s:1599   .text:0000000000000574 .L0 
     /tmp/ccHYiiCD.s:1603   .text:0000000000000584 .L0 
     /tmp/ccHYiiCD.s:1604   .text:0000000000000584 .L0 
     /tmp/ccHYiiCD.s:1612   .text:0000000000000590 .L0 
     /tmp/ccHYiiCD.s:1810   .rodata._ZTV7WorkerD:0000000000000000 _ZTV7WorkerD
     /tmp/ccHYiiCD.s:1617   .text:0000000000000594 .L0 
     /tmp/ccHYiiCD.s:1623   .text:00000000000005a0 .L0 
     /tmp/ccHYiiCD.s:1625   .text:00000000000005a4 .L0 
     /tmp/ccHYiiCD.s:1626   .text:00000000000005a4 .L0 
     /tmp/ccHYiiCD.s:1631   .text:00000000000005b4 .L0 
     /tmp/ccHYiiCD.s:1638   .text:00000000000005bc .L0 
     /tmp/ccHYiiCD.s:1639   .text:00000000000005bc .L0 
     /tmp/ccHYiiCD.s:1649   .text:00000000000005d4 .L0 
     /tmp/ccHYiiCD.s:1650   .text:00000000000005d4 .L0 
     /tmp/ccHYiiCD.s:1654   .text:00000000000005d8 .L0 
     /tmp/ccHYiiCD.s:1657   .text:00000000000005e0 .L0 
     /tmp/ccHYiiCD.s:1658   .text:00000000000005e0 .L0 
     /tmp/ccHYiiCD.s:1666   .text:00000000000005f0 .L0 
     /tmp/ccHYiiCD.s:1667   .text:00000000000005f0 .L0 
     /tmp/ccHYiiCD.s:1669   .text:00000000000005f4 .L0 
     /tmp/ccHYiiCD.s:1671   .text:00000000000005f8 .L0 
     /tmp/ccHYiiCD.s:1672   .text:00000000000005f8 .L0 
     /tmp/ccHYiiCD.s:1685   .text:000000000000060c .L0 
     /tmp/ccHYiiCD.s:1686   .text:000000000000060c .L0 
     /tmp/ccHYiiCD.s:1687   .text:000000000000060c .L0 
     /tmp/ccHYiiCD.s:1693   .text:0000000000000614 .L0 
     /tmp/ccHYiiCD.s:1694   .text:0000000000000614 .L0 
     /tmp/ccHYiiCD.s:1695   .text:0000000000000614 .L0 
     /tmp/ccHYiiCD.s:1697   .text:000000000000061c .L0 
     /tmp/ccHYiiCD.s:1699   .text:0000000000000620 .L0 
GAS LISTING /tmp/ccHYiiCD.s 			page 52


     /tmp/ccHYiiCD.s:1701   .text:0000000000000628 .L0 
     /tmp/ccHYiiCD.s:1703   .text:000000000000062c .L0 
     /tmp/ccHYiiCD.s:1705   .text:0000000000000634 .L0 
     /tmp/ccHYiiCD.s:1707   .text:0000000000000638 .L0 
     /tmp/ccHYiiCD.s:1709   .text:0000000000000640 .L0 
     /tmp/ccHYiiCD.s:1717   .text:000000000000064c .L0 
     /tmp/ccHYiiCD.s:1721   .text:0000000000000650 .L0 
     /tmp/ccHYiiCD.s:1724   .text:0000000000000658 .L0 
     /tmp/ccHYiiCD.s:1727   .text:000000000000065c .L0 
     /tmp/ccHYiiCD.s:1728   .text:000000000000065c .L0 
     /tmp/ccHYiiCD.s:1732   .text:000000000000066c .L0 
     /tmp/ccHYiiCD.s:1733   .text:000000000000066c .L0 
     /tmp/ccHYiiCD.s:1735   .text:0000000000000670 .L0 
     /tmp/ccHYiiCD.s:1745   .text:0000000000000684 .L0 
     /tmp/ccHYiiCD.s:1746   .text:0000000000000688 .L0 
     /tmp/ccHYiiCD.s:1748   .text:000000000000068c .L0 
     /tmp/ccHYiiCD.s:1749   .text:000000000000068c .L0 
     /tmp/ccHYiiCD.s:1751   .text:0000000000000690 .L0 
     /tmp/ccHYiiCD.s:1754   .text:0000000000000694 .L0 
     /tmp/ccHYiiCD.s:1756   .text:0000000000000698 .L0 
     /tmp/ccHYiiCD.s:1758   .text:000000000000069c .L0 
     /tmp/ccHYiiCD.s:35     .text._ZN6Thread3runEv:0000000000000018 .L0 
     /tmp/ccHYiiCD.s:78     .text._ZN6Thread13threadWrapperEPv:0000000000000034 .L0 
     /tmp/ccHYiiCD.s:1838   .text:000000000000069c .L0 
     /tmp/ccHYiiCD.s:200    .text._ZN6ThreadD2Ev:0000000000000034 .L0 
     /tmp/ccHYiiCD.s:259    .text._ZN6ThreadD0Ev:000000000000004c .L0 
     /tmp/ccHYiiCD.s:311    .text._ZN7WorkerAD2Ev:0000000000000034 .L0 
     /tmp/ccHYiiCD.s:372    .text._ZN7WorkerAD0Ev:000000000000004c .L0 
     /tmp/ccHYiiCD.s:424    .text._ZN7WorkerBD2Ev:0000000000000034 .L0 
     /tmp/ccHYiiCD.s:485    .text._ZN7WorkerBD0Ev:000000000000004c .L0 
     /tmp/ccHYiiCD.s:537    .text._ZN7WorkerCD2Ev:0000000000000034 .L0 
     /tmp/ccHYiiCD.s:598    .text._ZN7WorkerCD0Ev:000000000000004c .L0 
     /tmp/ccHYiiCD.s:650    .text._ZN7WorkerDD2Ev:0000000000000034 .L0 
     /tmp/ccHYiiCD.s:711    .text._ZN7WorkerDD0Ev:000000000000004c .L0 
     /tmp/ccHYiiCD.s:881    .text._ZN7WorkerA3runEv:000000000000002c .L0 
     /tmp/ccHYiiCD.s:1052   .text._ZN7WorkerB3runEv:000000000000002c .L0 
     /tmp/ccHYiiCD.s:1281   .text._ZN7WorkerC3runEv:000000000000002c .L0 
     /tmp/ccHYiiCD.s:1484   .text._ZN7WorkerD3runEv:000000000000002c .L0 
     /tmp/ccHYiiCD.s:713    .rodata.str1.8:0000000000000000 .LC0
     /tmp/ccHYiiCD.s:796    .text:00000000000000d0 .L0 
     /tmp/ccHYiiCD.s:716    .rodata.str1.8:0000000000000008 .LC1
     /tmp/ccHYiiCD.s:808    .text:00000000000000f4 .L0 
     /tmp/ccHYiiCD.s:719    .rodata.str1.8:0000000000000010 .LC2
     /tmp/ccHYiiCD.s:823    .text:000000000000010c .L0 
     /tmp/ccHYiiCD.s:829    .text:0000000000000120 .L0 
     /tmp/ccHYiiCD.s:883    .rodata.str1.8:0000000000000020 .LC3
     /tmp/ccHYiiCD.s:963    .text:000000000000019c .L0 
     /tmp/ccHYiiCD.s:975    .text:00000000000001c0 .L0 
     /tmp/ccHYiiCD.s:886    .rodata.str1.8:0000000000000028 .LC4
     /tmp/ccHYiiCD.s:990    .text:00000000000001d8 .L0 
     /tmp/ccHYiiCD.s:996    .text:00000000000001ec .L0 
     /tmp/ccHYiiCD.s:1054   .rodata.str1.8:0000000000000038 .LC5
     /tmp/ccHYiiCD.s:1095   .text:0000000000000234 .L0 
     /tmp/ccHYiiCD.s:1107   .text:0000000000000258 .L0 
     /tmp/ccHYiiCD.s:1057   .rodata.str1.8:0000000000000040 .LC6
     /tmp/ccHYiiCD.s:1122   .text:0000000000000278 .L0 
     /tmp/ccHYiiCD.s:1060   .rodata.str1.8:0000000000000050 .LC7
GAS LISTING /tmp/ccHYiiCD.s 			page 53


     /tmp/ccHYiiCD.s:1147   .text:0000000000000298 .L0 
     /tmp/ccHYiiCD.s:1159   .text:00000000000002bc .L0 
     /tmp/ccHYiiCD.s:1063   .rodata.str1.8:0000000000000058 .LC8
     /tmp/ccHYiiCD.s:1171   .text:00000000000002dc .L0 
     /tmp/ccHYiiCD.s:1184   .text:0000000000000300 .L0 
     /tmp/ccHYiiCD.s:1191   .text:0000000000000314 .L0 
     /tmp/ccHYiiCD.s:1203   .text:0000000000000338 .L0 
     /tmp/ccHYiiCD.s:1218   .text:0000000000000358 .L0 
     /tmp/ccHYiiCD.s:1224   .text:000000000000036c .L0 
     /tmp/ccHYiiCD.s:1283   .rodata.str1.8:0000000000000068 .LC9
     /tmp/ccHYiiCD.s:1324   .text:00000000000003b4 .L0 
     /tmp/ccHYiiCD.s:1336   .text:00000000000003d8 .L0 
     /tmp/ccHYiiCD.s:1286   .rodata.str1.8:0000000000000070 .LC10
     /tmp/ccHYiiCD.s:1351   .text:00000000000003f8 .L0 
     /tmp/ccHYiiCD.s:1289   .rodata.str1.8:0000000000000080 .LC11
     /tmp/ccHYiiCD.s:1374   .text:0000000000000424 .L0 
     /tmp/ccHYiiCD.s:1387   .text:0000000000000448 .L0 
     /tmp/ccHYiiCD.s:1394   .text:000000000000045c .L0 
     /tmp/ccHYiiCD.s:1406   .text:0000000000000480 .L0 
     /tmp/ccHYiiCD.s:1292   .rodata.str1.8:0000000000000090 .LC12
     /tmp/ccHYiiCD.s:1421   .text:00000000000004a0 .L0 
     /tmp/ccHYiiCD.s:1427   .text:00000000000004b4 .L0 
     /tmp/ccHYiiCD.s:1536   .text:0000000000000504 .L0 
     /tmp/ccHYiiCD.s:1486   .rodata.str1.8:00000000000000a0 .LC13
     /tmp/ccHYiiCD.s:1545   .text:0000000000000514 .L0 
     /tmp/ccHYiiCD.s:1563   .text:0000000000000534 .L0 
     /tmp/ccHYiiCD.s:1489   .rodata.str1.8:00000000000000b8 .LC14
     /tmp/ccHYiiCD.s:1572   .text:0000000000000544 .L0 
     /tmp/ccHYiiCD.s:1590   .text:0000000000000564 .L0 
     /tmp/ccHYiiCD.s:1492   .rodata.str1.8:00000000000000d0 .LC15
     /tmp/ccHYiiCD.s:1599   .text:0000000000000574 .L0 
     /tmp/ccHYiiCD.s:1617   .text:0000000000000594 .L0 
     /tmp/ccHYiiCD.s:1495   .rodata.str1.8:00000000000000e8 .LC16
     /tmp/ccHYiiCD.s:1626   .text:00000000000005a4 .L0 
     /tmp/ccHYiiCD.s:1640   .text:00000000000005c0 .L0 
     /tmp/ccHYiiCD.s:1695   .text:0000000000000614 .L0 
     /tmp/ccHYiiCD.s:1699   .text:0000000000000620 .L0 
     /tmp/ccHYiiCD.s:1703   .text:000000000000062c .L0 
     /tmp/ccHYiiCD.s:1707   .text:0000000000000638 .L0 
     /tmp/ccHYiiCD.s:1498   .rodata.str1.8:0000000000000100 .LC17
     /tmp/ccHYiiCD.s:1728   .text:000000000000065c .L0 
     /tmp/ccHYiiCD.s:123    .text:0000000000000050 .L9
     /tmp/ccHYiiCD.s:140    .text:0000000000000068 .L14
     /tmp/ccHYiiCD.s:110    .text:0000000000000030 .L11
     /tmp/ccHYiiCD.s:789    .text:00000000000000c8 .L41
     /tmp/ccHYiiCD.s:781    .text:00000000000000c4 .L37
     /tmp/ccHYiiCD.s:749    .text:0000000000000094 .L38
     /tmp/ccHYiiCD.s:770    .text:00000000000000b0 .L39
     /tmp/ccHYiiCD.s:817    .text:000000000000010c .L36
     /tmp/ccHYiiCD.s:761    .text:00000000000000a0 .L40
     /tmp/ccHYiiCD.s:956    .text:0000000000000194 .L51
     /tmp/ccHYiiCD.s:948    .text:0000000000000190 .L47
     /tmp/ccHYiiCD.s:916    .text:0000000000000160 .L48
     /tmp/ccHYiiCD.s:937    .text:000000000000017c .L49
     /tmp/ccHYiiCD.s:984    .text:00000000000001d8 .L46
     /tmp/ccHYiiCD.s:928    .text:000000000000016c .L50
     /tmp/ccHYiiCD.s:1115   .text:0000000000000270 .L57
GAS LISTING /tmp/ccHYiiCD.s 			page 54


     /tmp/ccHYiiCD.s:1092   .text:0000000000000234 .L61
     /tmp/ccHYiiCD.s:1211   .text:0000000000000350 .L59
     /tmp/ccHYiiCD.s:1188   .text:0000000000000314 .L62
     /tmp/ccHYiiCD.s:1344   .text:00000000000003f0 .L67
     /tmp/ccHYiiCD.s:1321   .text:00000000000003b4 .L71
     /tmp/ccHYiiCD.s:1414   .text:0000000000000498 .L69
     /tmp/ccHYiiCD.s:1391   .text:000000000000045c .L72
     /tmp/ccHYiiCD.s:1652   .text:00000000000005d8 .L79
     /tmp/ccHYiiCD.s:1689   .text:0000000000000614 .L76
     /tmp/ccHYiiCD.s:1634   .text:00000000000005bc .L86
     /tmp/ccHYiiCD.s:1645   .text:00000000000005d4 .L78
     /tmp/ccHYiiCD.s:1678   .text:000000000000060c .L80
     /tmp/ccHYiiCD.s:1719   .text:0000000000000650 .L81
     /tmp/ccHYiiCD.s:1742   .text:0000000000000684 .L75
     /tmp/ccHYiiCD.s:1714   .text:000000000000064c .L83
     /tmp/ccHYiiCD.s:73     .text._ZN6Thread13threadWrapperEPv:0000000000000030 .L6
     /tmp/ccHYiiCD.s:171    .text._ZN6ThreadD2Ev:0000000000000010 .L0 
     /tmp/ccHYiiCD.s:226    .text._ZN6ThreadD0Ev:0000000000000018 .L0 
     /tmp/ccHYiiCD.s:282    .text._ZN7WorkerAD2Ev:0000000000000010 .L0 
     /tmp/ccHYiiCD.s:338    .text._ZN7WorkerAD0Ev:0000000000000018 .L0 
     /tmp/ccHYiiCD.s:395    .text._ZN7WorkerBD2Ev:0000000000000010 .L0 
     /tmp/ccHYiiCD.s:451    .text._ZN7WorkerBD0Ev:0000000000000018 .L0 
     /tmp/ccHYiiCD.s:508    .text._ZN7WorkerCD2Ev:0000000000000010 .L0 
     /tmp/ccHYiiCD.s:564    .text._ZN7WorkerCD0Ev:0000000000000018 .L0 
     /tmp/ccHYiiCD.s:621    .text._ZN7WorkerDD2Ev:0000000000000010 .L0 
     /tmp/ccHYiiCD.s:677    .text._ZN7WorkerDD0Ev:0000000000000018 .L0 
     /tmp/ccHYiiCD.s:4378   .debug_abbrev:0000000000000000 .Ldebug_abbrev0
     /tmp/ccHYiiCD.s:6283   .debug_str:00000000000000a7 .LASF111
     /tmp/ccHYiiCD.s:6289   .debug_str:0000000000000182 .LASF112
     /tmp/ccHYiiCD.s:6337   .debug_str:00000000000002e5 .LASF113
     /tmp/ccHYiiCD.s:6203   .debug_ranges:0000000000000000 .Ldebug_ranges0
     /tmp/ccHYiiCD.s:6259   .debug_line:0000000000000000 .Ldebug_line0
     /tmp/ccHYiiCD.s:6399   .debug_str:00000000000004d7 .LASF0
     /tmp/ccHYiiCD.s:6409   .debug_str:0000000000000515 .LASF1
     /tmp/ccHYiiCD.s:6385   .debug_str:000000000000044e .LASF2
     /tmp/ccHYiiCD.s:6319   .debug_str:000000000000024b .LASF3
     /tmp/ccHYiiCD.s:6355   .debug_str:0000000000000387 .LASF4
     /tmp/ccHYiiCD.s:6447   .debug_str:0000000000000629 .LASF5
     /tmp/ccHYiiCD.s:6285   .debug_str:000000000000016b .LASF6
     /tmp/ccHYiiCD.s:6317   .debug_str:0000000000000244 .LASF7
     /tmp/ccHYiiCD.s:6415   .debug_str:000000000000054b .LASF8
     /tmp/ccHYiiCD.s:6397   .debug_str:00000000000004c4 .LASF9
     /tmp/ccHYiiCD.s:6467   .debug_str:00000000000006b9 .LASF10
     /tmp/ccHYiiCD.s:6335   .debug_str:00000000000002d7 .LASF11
     /tmp/ccHYiiCD.s:6427   .debug_str:000000000000059b .LASF12
     /tmp/ccHYiiCD.s:6463   .debug_str:00000000000006a3 .LASF13
     /tmp/ccHYiiCD.s:6287   .debug_str:0000000000000172 .LASF14
     /tmp/ccHYiiCD.s:6269   .debug_str:0000000000000034 .LASF15
     /tmp/ccHYiiCD.s:6305   .debug_str:00000000000001e4 .LASF16
     /tmp/ccHYiiCD.s:6441   .debug_str:00000000000005f7 .LASF17
     /tmp/ccHYiiCD.s:6313   .debug_str:0000000000000220 .LASF18
     /tmp/ccHYiiCD.s:6351   .debug_str:0000000000000375 .LASF114
     /tmp/ccHYiiCD.s:6261   .debug_str:0000000000000000 .LASF19
     /tmp/ccHYiiCD.s:6433   .debug_str:00000000000005c9 .LASF20
     /tmp/ccHYiiCD.s:6327   .debug_str:000000000000028d .LASF21
     /tmp/ccHYiiCD.s:6353   .debug_str:000000000000037d .LASF22
     /tmp/ccHYiiCD.s:6271   .debug_str:0000000000000044 .LASF23
GAS LISTING /tmp/ccHYiiCD.s 			page 55


     /tmp/ccHYiiCD.s:6357   .debug_str:000000000000038e .LASF24
     /tmp/ccHYiiCD.s:6429   .debug_str:00000000000005aa .LASF25
     /tmp/ccHYiiCD.s:6391   .debug_str:0000000000000491 .LASF26
     /tmp/ccHYiiCD.s:6347   .debug_str:0000000000000358 .LASF27
     /tmp/ccHYiiCD.s:6403   .debug_str:00000000000004f4 .LASF28
     /tmp/ccHYiiCD.s:6275   .debug_str:000000000000005d .LASF46
     /tmp/ccHYiiCD.s:6321   .debug_str:0000000000000251 .LASF32
     /tmp/ccHYiiCD.s:6277   .debug_str:0000000000000079 .LASF37
     /tmp/ccHYiiCD.s:6301   .debug_str:00000000000001d2 .LASF29
     /tmp/ccHYiiCD.s:6389   .debug_str:0000000000000481 .LASF51
     /tmp/ccHYiiCD.s:6465   .debug_str:00000000000006b2 .LASF30
     /tmp/ccHYiiCD.s:6411   .debug_str:0000000000000528 .LASF31
     /tmp/ccHYiiCD.s:6383   .debug_str:0000000000000441 .LASF115
     /tmp/ccHYiiCD.s:6431   .debug_str:00000000000005b2 .LASF33
     /tmp/ccHYiiCD.s:6365   .debug_str:00000000000003b9 .LASF116
     /tmp/ccHYiiCD.s:6405   .debug_str:0000000000000500 .LASF117
     /tmp/ccHYiiCD.s:6407   .debug_str:000000000000050f .LASF81
     /tmp/ccHYiiCD.s:6487   .debug_str:0000000000000749 .LASF83
     /tmp/ccHYiiCD.s:6489   .debug_str:000000000000075c .LASF118
     /tmp/ccHYiiCD.s:6331   .debug_str:00000000000002a7 .LASF119
     /tmp/ccHYiiCD.s:6505   .debug_str:00000000000007e4 .LASF34
     /tmp/ccHYiiCD.s:6339   .debug_str:0000000000000310 .LASF35
     /tmp/ccHYiiCD.s:6439   .debug_str:00000000000005e8 .LASF36
     /tmp/ccHYiiCD.s:6377   .debug_str:0000000000000412 .LASF38
     /tmp/ccHYiiCD.s:6381   .debug_str:0000000000000433 .LASF39
     /tmp/ccHYiiCD.s:6367   .debug_str:00000000000003c1 .LASF120
     /tmp/ccHYiiCD.s:6449   .debug_str:000000000000063b .LASF40
     /tmp/ccHYiiCD.s:6361   .debug_str:00000000000003a8 .LASF41
     /tmp/ccHYiiCD.s:6477   .debug_str:0000000000000702 .LASF42
     /tmp/ccHYiiCD.s:6499   .debug_str:00000000000007b0 .LASF43
     /tmp/ccHYiiCD.s:6267   .debug_str:0000000000000021 .LASF44
     /tmp/ccHYiiCD.s:6279   .debug_str:000000000000008b .LASF45
     /tmp/ccHYiiCD.s:6323   .debug_str:0000000000000261 .LASF47
     /tmp/ccHYiiCD.s:6479   .debug_str:000000000000070a .LASF48
     /tmp/ccHYiiCD.s:6393   .debug_str:00000000000004a3 .LASF49
     /tmp/ccHYiiCD.s:6299   .debug_str:00000000000001c9 .LASF50
     /tmp/ccHYiiCD.s:6307   .debug_str:00000000000001f0 .LASF52
     /tmp/ccHYiiCD.s:6425   .debug_str:0000000000000593 .LASF53
     /tmp/ccHYiiCD.s:6371   .debug_str:00000000000003e8 .LASF54
     /tmp/ccHYiiCD.s:6481   .debug_str:000000000000071a .LASF55
     /tmp/ccHYiiCD.s:6265   .debug_str:0000000000000015 .LASF56
     /tmp/ccHYiiCD.s:6495   .debug_str:0000000000000788 .LASF57
     /tmp/ccHYiiCD.s:6401   .debug_str:00000000000004e4 .LASF58
     /tmp/ccHYiiCD.s:6503   .debug_str:00000000000007d2 .LASF59
     /tmp/ccHYiiCD.s:6297   .debug_str:00000000000001c0 .LASF60
     /tmp/ccHYiiCD.s:6457   .debug_str:0000000000000674 .LASF61
     /tmp/ccHYiiCD.s:6423   .debug_str:000000000000058b .LASF62
     /tmp/ccHYiiCD.s:6475   .debug_str:00000000000006f0 .LASF63
     /tmp/ccHYiiCD.s:6341   .debug_str:0000000000000323 .LASF64
     /tmp/ccHYiiCD.s:6263   .debug_str:0000000000000009 .LASF65
     /tmp/ccHYiiCD.s:6421   .debug_str:000000000000056f .LASF66
     /tmp/ccHYiiCD.s:6461   .debug_str:0000000000000693 .LASF67
     /tmp/ccHYiiCD.s:6373   .debug_str:00000000000003fa .LASF68
     /tmp/ccHYiiCD.s:6295   .debug_str:00000000000001b7 .LASF69
     /tmp/ccHYiiCD.s:6379   .debug_str:0000000000000423 .LASF70
     /tmp/ccHYiiCD.s:6469   .debug_str:00000000000006c9 .LASF121
     /tmp/ccHYiiCD.s:6435   .debug_str:00000000000005d3 .LASF71
GAS LISTING /tmp/ccHYiiCD.s 			page 56


     /tmp/ccHYiiCD.s:6349   .debug_str:000000000000036b .LASF72
     /tmp/ccHYiiCD.s:6483   .debug_str:000000000000072d .LASF73
     /tmp/ccHYiiCD.s:316    .text._ZN7WorkerAD0Ev:0000000000000000 .LFB59
     /tmp/ccHYiiCD.s:363    .text._ZN7WorkerAD0Ev:000000000000004c .LFE59
     /tmp/ccHYiiCD.s:5419   .debug_loc:0000000000000000 .LLST8
     /tmp/ccHYiiCD.s:334    .text._ZN7WorkerAD0Ev:0000000000000018 .LBB90
     /tmp/ccHYiiCD.s:346    .text._ZN7WorkerAD0Ev:000000000000002c .LBE90
     /tmp/ccHYiiCD.s:5437   .debug_loc:000000000000004c .LLST9
     /tmp/ccHYiiCD.s:335    .text._ZN7WorkerAD0Ev:0000000000000018 .LBB91
     /tmp/ccHYiiCD.s:345    .text._ZN7WorkerAD0Ev:000000000000002c .LBE91
     /tmp/ccHYiiCD.s:343    .text._ZN7WorkerAD0Ev:000000000000002c .LVL23
     /tmp/ccHYiiCD.s:350    .text._ZN7WorkerAD0Ev:0000000000000038 .LVL24
     /tmp/ccHYiiCD.s:6437   .debug_str:00000000000005d8 .LASF74
     /tmp/ccHYiiCD.s:264    .text._ZN7WorkerAD2Ev:0000000000000000 .LFB57
     /tmp/ccHYiiCD.s:300    .text._ZN7WorkerAD2Ev:0000000000000034 .LFE57
     /tmp/ccHYiiCD.s:5448   .debug_loc:0000000000000082 .LLST6
     /tmp/ccHYiiCD.s:279    .text._ZN7WorkerAD2Ev:0000000000000010 .LBB88
     /tmp/ccHYiiCD.s:289    .text._ZN7WorkerAD2Ev:0000000000000024 .LBE88
     /tmp/ccHYiiCD.s:5462   .debug_loc:00000000000000bb .LLST7
     /tmp/ccHYiiCD.s:287    .text._ZN7WorkerAD2Ev:0000000000000024 .LVL20
     /tmp/ccHYiiCD.s:6325   .debug_str:000000000000027d .LASF75
     /tmp/ccHYiiCD.s:429    .text._ZN7WorkerBD0Ev:0000000000000000 .LFB55
     /tmp/ccHYiiCD.s:476    .text._ZN7WorkerBD0Ev:000000000000004c .LFE55
     /tmp/ccHYiiCD.s:5476   .debug_loc:00000000000000f4 .LLST13
     /tmp/ccHYiiCD.s:447    .text._ZN7WorkerBD0Ev:0000000000000018 .LBB95
     /tmp/ccHYiiCD.s:459    .text._ZN7WorkerBD0Ev:000000000000002c .LBE95
     /tmp/ccHYiiCD.s:5494   .debug_loc:0000000000000140 .LLST14
     /tmp/ccHYiiCD.s:448    .text._ZN7WorkerBD0Ev:0000000000000018 .LBB96
     /tmp/ccHYiiCD.s:458    .text._ZN7WorkerBD0Ev:000000000000002c .LBE96
     /tmp/ccHYiiCD.s:456    .text._ZN7WorkerBD0Ev:000000000000002c .LVL31
     /tmp/ccHYiiCD.s:463    .text._ZN7WorkerBD0Ev:0000000000000038 .LVL32
     /tmp/ccHYiiCD.s:6501   .debug_str:00000000000007c2 .LASF76
     /tmp/ccHYiiCD.s:377    .text._ZN7WorkerBD2Ev:0000000000000000 .LFB53
     /tmp/ccHYiiCD.s:413    .text._ZN7WorkerBD2Ev:0000000000000034 .LFE53
     /tmp/ccHYiiCD.s:5505   .debug_loc:0000000000000176 .LLST11
     /tmp/ccHYiiCD.s:392    .text._ZN7WorkerBD2Ev:0000000000000010 .LBB93
     /tmp/ccHYiiCD.s:402    .text._ZN7WorkerBD2Ev:0000000000000024 .LBE93
     /tmp/ccHYiiCD.s:5519   .debug_loc:00000000000001af .LLST12
     /tmp/ccHYiiCD.s:400    .text._ZN7WorkerBD2Ev:0000000000000024 .LVL28
     /tmp/ccHYiiCD.s:6311   .debug_str:0000000000000210 .LASF77
     /tmp/ccHYiiCD.s:542    .text._ZN7WorkerCD0Ev:0000000000000000 .LFB51
     /tmp/ccHYiiCD.s:589    .text._ZN7WorkerCD0Ev:000000000000004c .LFE51
     /tmp/ccHYiiCD.s:5533   .debug_loc:00000000000001e8 .LLST18
     /tmp/ccHYiiCD.s:560    .text._ZN7WorkerCD0Ev:0000000000000018 .LBB100
     /tmp/ccHYiiCD.s:572    .text._ZN7WorkerCD0Ev:000000000000002c .LBE100
     /tmp/ccHYiiCD.s:5551   .debug_loc:0000000000000234 .LLST19
     /tmp/ccHYiiCD.s:561    .text._ZN7WorkerCD0Ev:0000000000000018 .LBB101
     /tmp/ccHYiiCD.s:571    .text._ZN7WorkerCD0Ev:000000000000002c .LBE101
     /tmp/ccHYiiCD.s:569    .text._ZN7WorkerCD0Ev:000000000000002c .LVL39
     /tmp/ccHYiiCD.s:576    .text._ZN7WorkerCD0Ev:0000000000000038 .LVL40
     /tmp/ccHYiiCD.s:6359   .debug_str:0000000000000398 .LASF78
     /tmp/ccHYiiCD.s:490    .text._ZN7WorkerCD2Ev:0000000000000000 .LFB49
     /tmp/ccHYiiCD.s:526    .text._ZN7WorkerCD2Ev:0000000000000034 .LFE49
     /tmp/ccHYiiCD.s:5562   .debug_loc:000000000000026a .LLST16
     /tmp/ccHYiiCD.s:505    .text._ZN7WorkerCD2Ev:0000000000000010 .LBB98
     /tmp/ccHYiiCD.s:515    .text._ZN7WorkerCD2Ev:0000000000000024 .LBE98
     /tmp/ccHYiiCD.s:5576   .debug_loc:00000000000002a3 .LLST17
GAS LISTING /tmp/ccHYiiCD.s 			page 57


     /tmp/ccHYiiCD.s:513    .text._ZN7WorkerCD2Ev:0000000000000024 .LVL36
     /tmp/ccHYiiCD.s:6493   .debug_str:0000000000000778 .LASF79
     /tmp/ccHYiiCD.s:655    .text._ZN7WorkerDD0Ev:0000000000000000 .LFB47
     /tmp/ccHYiiCD.s:702    .text._ZN7WorkerDD0Ev:000000000000004c .LFE47
     /tmp/ccHYiiCD.s:5590   .debug_loc:00000000000002dc .LLST23
     /tmp/ccHYiiCD.s:673    .text._ZN7WorkerDD0Ev:0000000000000018 .LBB105
     /tmp/ccHYiiCD.s:685    .text._ZN7WorkerDD0Ev:000000000000002c .LBE105
     /tmp/ccHYiiCD.s:5608   .debug_loc:0000000000000328 .LLST24
     /tmp/ccHYiiCD.s:674    .text._ZN7WorkerDD0Ev:0000000000000018 .LBB106
     /tmp/ccHYiiCD.s:684    .text._ZN7WorkerDD0Ev:000000000000002c .LBE106
     /tmp/ccHYiiCD.s:682    .text._ZN7WorkerDD0Ev:000000000000002c .LVL47
     /tmp/ccHYiiCD.s:689    .text._ZN7WorkerDD0Ev:0000000000000038 .LVL48
     /tmp/ccHYiiCD.s:6445   .debug_str:0000000000000619 .LASF80
     /tmp/ccHYiiCD.s:603    .text._ZN7WorkerDD2Ev:0000000000000000 .LFB45
     /tmp/ccHYiiCD.s:639    .text._ZN7WorkerDD2Ev:0000000000000034 .LFE45
     /tmp/ccHYiiCD.s:5619   .debug_loc:000000000000035e .LLST21
     /tmp/ccHYiiCD.s:618    .text._ZN7WorkerDD2Ev:0000000000000010 .LBB103
     /tmp/ccHYiiCD.s:628    .text._ZN7WorkerDD2Ev:0000000000000024 .LBE103
     /tmp/ccHYiiCD.s:5633   .debug_loc:0000000000000397 .LLST22
     /tmp/ccHYiiCD.s:626    .text._ZN7WorkerDD2Ev:0000000000000024 .LVL44
     /tmp/ccHYiiCD.s:6345   .debug_str:0000000000000343 .LASF82
     /tmp/ccHYiiCD.s:6333   .debug_str:00000000000002bd .LASF84
     /tmp/ccHYiiCD.s:1505   .text:00000000000004dc .LFB43
     /tmp/ccHYiiCD.s:1759   .text:000000000000069c .LFE43
     /tmp/ccHYiiCD.s:6471   .debug_str:00000000000006d9 .LASF85
     /tmp/ccHYiiCD.s:1629   .text:00000000000005b4 .LBB166
     /tmp/ccHYiiCD.s:1681   .text:000000000000060c .LBE166
     /tmp/ccHYiiCD.s:5647   .debug_loc:00000000000003d0 .LLST57
     /tmp/ccHYiiCD.s:1635   .text:00000000000005bc .LBB167
     /tmp/ccHYiiCD.s:5654   .debug_loc:00000000000003f3 .LLST58
     /tmp/ccHYiiCD.s:1644   .text:00000000000005d4 .LVL161
     /tmp/ccHYiiCD.s:1676   .text:0000000000000608 .LVL165
     /tmp/ccHYiiCD.s:1715   .text:000000000000064c .LBB173
     /tmp/ccHYiiCD.s:1743   .text:0000000000000684 .LBE173
     /tmp/ccHYiiCD.s:6419   .debug_str:0000000000000568 .LASF86
     /tmp/ccHYiiCD.s:5675   .debug_loc:0000000000000451 .LLST59
     /tmp/ccHYiiCD.s:6485   .debug_str:000000000000073d .LASF87
     /tmp/ccHYiiCD.s:6443   .debug_str:000000000000060d .LASF122
     /tmp/ccHYiiCD.s:5686   .debug_loc:0000000000000487 .LLST60
     /tmp/ccHYiiCD.s:6369   .debug_str:00000000000003de .LASF88
     /tmp/ccHYiiCD.s:1730   .text:000000000000066c .LVL171
     /tmp/ccHYiiCD.s:1739   .text:0000000000000680 .LVL172
     /tmp/ccHYiiCD.s:1526   .text:0000000000000500 .LBB150
     /tmp/ccHYiiCD.s:1540   .text:0000000000000510 .LBE150
     /tmp/ccHYiiCD.s:5693   .debug_loc:00000000000004aa .LLST49
     /tmp/ccHYiiCD.s:1528   .text:0000000000000500 .LBB152
     /tmp/ccHYiiCD.s:1534   .text:0000000000000504 .LBE152
     /tmp/ccHYiiCD.s:5700   .debug_loc:00000000000004cd .LLST50
     /tmp/ccHYiiCD.s:1553   .text:0000000000000530 .LBB154
     /tmp/ccHYiiCD.s:1567   .text:0000000000000540 .LBE154
     /tmp/ccHYiiCD.s:5707   .debug_loc:00000000000004f0 .LLST51
     /tmp/ccHYiiCD.s:1555   .text:0000000000000530 .LBB156
     /tmp/ccHYiiCD.s:1561   .text:0000000000000534 .LBE156
     /tmp/ccHYiiCD.s:5714   .debug_loc:0000000000000513 .LLST52
     /tmp/ccHYiiCD.s:1580   .text:0000000000000560 .LBB158
     /tmp/ccHYiiCD.s:1594   .text:0000000000000570 .LBE158
     /tmp/ccHYiiCD.s:5721   .debug_loc:0000000000000536 .LLST53
GAS LISTING /tmp/ccHYiiCD.s 			page 58


     /tmp/ccHYiiCD.s:1582   .text:0000000000000560 .LBB160
     /tmp/ccHYiiCD.s:1588   .text:0000000000000564 .LBE160
     /tmp/ccHYiiCD.s:5728   .debug_loc:0000000000000559 .LLST54
     /tmp/ccHYiiCD.s:1607   .text:0000000000000590 .LBB162
     /tmp/ccHYiiCD.s:1621   .text:00000000000005a0 .LBE162
     /tmp/ccHYiiCD.s:5735   .debug_loc:000000000000057c .LLST55
     /tmp/ccHYiiCD.s:1609   .text:0000000000000590 .LBB164
     /tmp/ccHYiiCD.s:1615   .text:0000000000000594 .LBE164
     /tmp/ccHYiiCD.s:5742   .debug_loc:000000000000059f .LLST56
     /tmp/ccHYiiCD.s:1683   .text:000000000000060c .LBB171
     /tmp/ccHYiiCD.s:1691   .text:0000000000000614 .LBE171
     /tmp/ccHYiiCD.s:1688   .text:0000000000000614 .LVL166
     /tmp/ccHYiiCD.s:1525   .text:0000000000000500 .LVL143
     /tmp/ccHYiiCD.s:1547   .text:0000000000000524 .LVL146
     /tmp/ccHYiiCD.s:1552   .text:0000000000000530 .LVL147
     /tmp/ccHYiiCD.s:1574   .text:0000000000000554 .LVL150
     /tmp/ccHYiiCD.s:1579   .text:0000000000000560 .LVL151
     /tmp/ccHYiiCD.s:1601   .text:0000000000000584 .LVL154
     /tmp/ccHYiiCD.s:1606   .text:0000000000000590 .LVL155
     /tmp/ccHYiiCD.s:1628   .text:00000000000005b4 .LVL158
     /tmp/ccHYiiCD.s:1299   .text:0000000000000394 .LFB42
     /tmp/ccHYiiCD.s:1448   .text:00000000000004dc .LFE42
     /tmp/ccHYiiCD.s:5749   .debug_loc:00000000000005c2 .LLST44
     /tmp/ccHYiiCD.s:5763   .debug_loc:00000000000005fb .LLST45
     /tmp/ccHYiiCD.s:5777   .debug_loc:0000000000000634 .LLST46
     /tmp/ccHYiiCD.s:6291   .debug_str:00000000000001a0 .LASF89
     /tmp/ccHYiiCD.s:5797   .debug_loc:0000000000000691 .LLST47
     /tmp/ccHYiiCD.s:1326   .text:00000000000003c4 .LVL119
     /tmp/ccHYiiCD.s:1333   .text:00000000000003d8 .LVL120
     /tmp/ccHYiiCD.s:1338   .text:00000000000003e8 .LVL121
     /tmp/ccHYiiCD.s:1353   .text:0000000000000408 .LVL124
     /tmp/ccHYiiCD.s:1364   .text:0000000000000414 .LVL125
     /tmp/ccHYiiCD.s:1369   .text:0000000000000420 .LVL126
     /tmp/ccHYiiCD.s:1377   .text:0000000000000434 .LVL129
     /tmp/ccHYiiCD.s:1384   .text:0000000000000448 .LVL130
     /tmp/ccHYiiCD.s:1389   .text:0000000000000458 .LVL131
     /tmp/ccHYiiCD.s:1396   .text:000000000000046c .LVL132
     /tmp/ccHYiiCD.s:1403   .text:0000000000000480 .LVL133
     /tmp/ccHYiiCD.s:1408   .text:0000000000000490 .LVL134
     /tmp/ccHYiiCD.s:1423   .text:00000000000004b0 .LVL137
     /tmp/ccHYiiCD.s:1431   .text:00000000000004c4 .LVL138
     /tmp/ccHYiiCD.s:1070   .text:0000000000000214 .LFB41
     /tmp/ccHYiiCD.s:1245   .text:0000000000000394 .LFE41
     /tmp/ccHYiiCD.s:5808   .debug_loc:00000000000006c7 .LLST38
     /tmp/ccHYiiCD.s:5822   .debug_loc:0000000000000700 .LLST39
     /tmp/ccHYiiCD.s:5836   .debug_loc:0000000000000739 .LLST40
     /tmp/ccHYiiCD.s:5856   .debug_loc:0000000000000796 .LLST41
     /tmp/ccHYiiCD.s:5864   .debug_loc:00000000000007ba .LLST42
     /tmp/ccHYiiCD.s:1097   .text:0000000000000244 .LVL88
     /tmp/ccHYiiCD.s:1104   .text:0000000000000258 .LVL89
     /tmp/ccHYiiCD.s:1109   .text:0000000000000268 .LVL90
     /tmp/ccHYiiCD.s:1124   .text:0000000000000288 .LVL93
     /tmp/ccHYiiCD.s:1135   .text:0000000000000294 .LVL94
     /tmp/ccHYiiCD.s:1149   .text:00000000000002a8 .LVL96
     /tmp/ccHYiiCD.s:1156   .text:00000000000002bc .LVL97
     /tmp/ccHYiiCD.s:1161   .text:00000000000002cc .LVL98
     /tmp/ccHYiiCD.s:1166   .text:00000000000002d8 .LVL99
GAS LISTING /tmp/ccHYiiCD.s 			page 59


     /tmp/ccHYiiCD.s:1174   .text:00000000000002ec .LVL102
     /tmp/ccHYiiCD.s:1181   .text:0000000000000300 .LVL103
     /tmp/ccHYiiCD.s:1186   .text:0000000000000310 .LVL104
     /tmp/ccHYiiCD.s:1193   .text:0000000000000324 .LVL105
     /tmp/ccHYiiCD.s:1200   .text:0000000000000338 .LVL106
     /tmp/ccHYiiCD.s:1205   .text:0000000000000348 .LVL107
     /tmp/ccHYiiCD.s:1220   .text:0000000000000368 .LVL110
     /tmp/ccHYiiCD.s:1228   .text:000000000000037c .LVL111
     /tmp/ccHYiiCD.s:893    .text:0000000000000140 .LFB40
     /tmp/ccHYiiCD.s:1016   .text:0000000000000214 .LFE40
     /tmp/ccHYiiCD.s:5875   .debug_loc:00000000000007f0 .LLST32
     /tmp/ccHYiiCD.s:5889   .debug_loc:0000000000000829 .LLST33
     /tmp/ccHYiiCD.s:911    .text:0000000000000158 .LBB116
     /tmp/ccHYiiCD.s:987    .text:00000000000001d8 .LBE116
     /tmp/ccHYiiCD.s:5903   .debug_loc:0000000000000862 .LLST34
     /tmp/ccHYiiCD.s:5915   .debug_loc:0000000000000899 .LLST35
     /tmp/ccHYiiCD.s:934    .text:0000000000000178 .LBB120
     /tmp/ccHYiiCD.s:949    .text:0000000000000190 .LBE120
     /tmp/ccHYiiCD.s:5927   .debug_loc:00000000000008d0 .LLST36
     /tmp/ccHYiiCD.s:923    .text:0000000000000168 .LVL70
     /tmp/ccHYiiCD.s:965    .text:00000000000001ac .LVL76
     /tmp/ccHYiiCD.s:972    .text:00000000000001c0 .LVL77
     /tmp/ccHYiiCD.s:977    .text:00000000000001d0 .LVL78
     /tmp/ccHYiiCD.s:992    .text:00000000000001e8 .LVL80
     /tmp/ccHYiiCD.s:1000   .text:00000000000001fc .LVL81
     /tmp/ccHYiiCD.s:726    .text:0000000000000074 .LFB39
     /tmp/ccHYiiCD.s:845    .text:0000000000000140 .LFE39
     /tmp/ccHYiiCD.s:5938   .debug_loc:0000000000000906 .LLST26
     /tmp/ccHYiiCD.s:5952   .debug_loc:000000000000093f .LLST27
     /tmp/ccHYiiCD.s:744    .text:000000000000008c .LBB108
     /tmp/ccHYiiCD.s:820    .text:000000000000010c .LBE108
     /tmp/ccHYiiCD.s:5966   .debug_loc:0000000000000978 .LLST28
     /tmp/ccHYiiCD.s:5978   .debug_loc:00000000000009af .LLST29
     /tmp/ccHYiiCD.s:767    .text:00000000000000ac .LBB112
     /tmp/ccHYiiCD.s:782    .text:00000000000000c4 .LBE112
     /tmp/ccHYiiCD.s:5990   .debug_loc:00000000000009e6 .LLST30
     /tmp/ccHYiiCD.s:756    .text:000000000000009c .LVL53
     /tmp/ccHYiiCD.s:798    .text:00000000000000e0 .LVL59
     /tmp/ccHYiiCD.s:805    .text:00000000000000f4 .LVL60
     /tmp/ccHYiiCD.s:810    .text:0000000000000104 .LVL61
     /tmp/ccHYiiCD.s:825    .text:000000000000011c .LVL63
     /tmp/ccHYiiCD.s:1455   .text._ZN7WorkerD3runEv:0000000000000000 .LFB38
     /tmp/ccHYiiCD.s:1482   .text._ZN7WorkerD3runEv:000000000000002c .LFE38
     /tmp/ccHYiiCD.s:6001   .debug_loc:0000000000000a1c .LLST48
     /tmp/ccHYiiCD.s:1471   .text._ZN7WorkerD3runEv:000000000000001c .LVL142
     /tmp/ccHYiiCD.s:6455   .debug_str:0000000000000664 .LASF90
     /tmp/ccHYiiCD.s:1252   .text._ZN7WorkerC3runEv:0000000000000000 .LFB34
     /tmp/ccHYiiCD.s:1279   .text._ZN7WorkerC3runEv:000000000000002c .LFE34
     /tmp/ccHYiiCD.s:6015   .debug_loc:0000000000000a55 .LLST43
     /tmp/ccHYiiCD.s:1268   .text._ZN7WorkerC3runEv:000000000000001c .LVL115
     /tmp/ccHYiiCD.s:6281   .debug_str:0000000000000097 .LASF91
     /tmp/ccHYiiCD.s:1023   .text._ZN7WorkerB3runEv:0000000000000000 .LFB30
     /tmp/ccHYiiCD.s:1050   .text._ZN7WorkerB3runEv:000000000000002c .LFE30
     /tmp/ccHYiiCD.s:6029   .debug_loc:0000000000000a8e .LLST37
     /tmp/ccHYiiCD.s:1039   .text._ZN7WorkerB3runEv:000000000000001c .LVL84
     /tmp/ccHYiiCD.s:6453   .debug_str:0000000000000654 .LASF92
     /tmp/ccHYiiCD.s:852    .text._ZN7WorkerA3runEv:0000000000000000 .LFB26
GAS LISTING /tmp/ccHYiiCD.s 			page 60


     /tmp/ccHYiiCD.s:879    .text._ZN7WorkerA3runEv:000000000000002c .LFE26
     /tmp/ccHYiiCD.s:6043   .debug_loc:0000000000000ac7 .LLST31
     /tmp/ccHYiiCD.s:868    .text._ZN7WorkerA3runEv:000000000000001c .LVL66
     /tmp/ccHYiiCD.s:6293   .debug_str:00000000000001a7 .LASF93
     /tmp/ccHYiiCD.s:6417   .debug_str:000000000000055e .LASF123
     /tmp/ccHYiiCD.s:82     .text:0000000000000000 .LFB22
     /tmp/ccHYiiCD.s:148    .text:0000000000000074 .LFE22
     /tmp/ccHYiiCD.s:6057   .debug_loc:0000000000000b00 .LLST2
     /tmp/ccHYiiCD.s:115    .text:000000000000003c .LVL6
     /tmp/ccHYiiCD.s:120    .text:000000000000004c .LVL7
     /tmp/ccHYiiCD.s:145    .text:0000000000000070 .LVL10
     /tmp/ccHYiiCD.s:40     .text._ZN6Thread13threadWrapperEPv:0000000000000000 .LFB21
     /tmp/ccHYiiCD.s:76     .text._ZN6Thread13threadWrapperEPv:0000000000000034 .LFE21
     /tmp/ccHYiiCD.s:6079   .debug_loc:0000000000000b5f .LLST0
     /tmp/ccHYiiCD.s:6097   .debug_loc:0000000000000bab .LLST1
     /tmp/ccHYiiCD.s:62     .text._ZN6Thread13threadWrapperEPv:0000000000000020 .LVL2
     /tmp/ccHYiiCD.s:14     .text._ZN6Thread3runEv:0000000000000000 .LFB20
     /tmp/ccHYiiCD.s:33     .text._ZN6Thread3runEv:0000000000000018 .LFE20
     /tmp/ccHYiiCD.s:6473   .debug_str:00000000000006e1 .LASF94
     /tmp/ccHYiiCD.s:6273   .debug_str:000000000000004e .LASF95
     /tmp/ccHYiiCD.s:205    .text._ZN6ThreadD0Ev:0000000000000000 .LFB14
     /tmp/ccHYiiCD.s:250    .text._ZN6ThreadD0Ev:000000000000004c .LFE14
     /tmp/ccHYiiCD.s:6115   .debug_loc:0000000000000bf7 .LLST4
     /tmp/ccHYiiCD.s:223    .text._ZN6ThreadD0Ev:0000000000000018 .LBB86
     /tmp/ccHYiiCD.s:233    .text._ZN6ThreadD0Ev:000000000000002c .LBE86
     /tmp/ccHYiiCD.s:6133   .debug_loc:0000000000000c43 .LLST5
     /tmp/ccHYiiCD.s:231    .text._ZN6ThreadD0Ev:000000000000002c .LVL15
     /tmp/ccHYiiCD.s:237    .text._ZN6ThreadD0Ev:0000000000000038 .LVL16
     /tmp/ccHYiiCD.s:6459   .debug_str:0000000000000684 .LASF96
     /tmp/ccHYiiCD.s:155    .text._ZN6ThreadD2Ev:0000000000000000 .LFB12
     /tmp/ccHYiiCD.s:188    .text._ZN6ThreadD2Ev:0000000000000034 .LFE12
     /tmp/ccHYiiCD.s:6144   .debug_loc:0000000000000c79 .LLST3
     /tmp/ccHYiiCD.s:176    .text._ZN6ThreadD2Ev:0000000000000024 .LVL12
     /tmp/ccHYiiCD.s:6413   .debug_str:000000000000053a .LASF97
     /tmp/ccHYiiCD.s:6497   .debug_str:00000000000007a4 .LASF99
     /tmp/ccHYiiCD.s:6507   .debug_str:00000000000007ea .LASF105
     /tmp/ccHYiiCD.s:6451   .debug_str:0000000000000644 .LASF107
     /tmp/ccHYiiCD.s:6387   .debug_str:000000000000045c .LASF98
     /tmp/ccHYiiCD.s:6315   .debug_str:0000000000000236 .LASF100
     /tmp/ccHYiiCD.s:6491   .debug_str:0000000000000765 .LASF101
     /tmp/ccHYiiCD.s:6363   .debug_str:00000000000003ad .LASF102
     /tmp/ccHYiiCD.s:6329   .debug_str:0000000000000292 .LASF103
     /tmp/ccHYiiCD.s:6309   .debug_str:0000000000000200 .LASF104
     /tmp/ccHYiiCD.s:6375   .debug_str:000000000000040c .LASF106
     /tmp/ccHYiiCD.s:6343   .debug_str:0000000000000336 .LASF108
     /tmp/ccHYiiCD.s:6395   .debug_str:00000000000004b5 .LASF109
     /tmp/ccHYiiCD.s:6303   .debug_str:00000000000001db .LASF110
     /tmp/ccHYiiCD.s:321    .text._ZN7WorkerAD0Ev:0000000000000000 .LVL21
     /tmp/ccHYiiCD.s:358    .text._ZN7WorkerAD0Ev:0000000000000044 .LVL25
     /tmp/ccHYiiCD.s:333    .text._ZN7WorkerAD0Ev:0000000000000018 .LVL22
     /tmp/ccHYiiCD.s:269    .text._ZN7WorkerAD2Ev:0000000000000000 .LVL18
     /tmp/ccHYiiCD.s:278    .text._ZN7WorkerAD2Ev:0000000000000010 .LVL19
     /tmp/ccHYiiCD.s:434    .text._ZN7WorkerBD0Ev:0000000000000000 .LVL29
     /tmp/ccHYiiCD.s:471    .text._ZN7WorkerBD0Ev:0000000000000044 .LVL33
     /tmp/ccHYiiCD.s:446    .text._ZN7WorkerBD0Ev:0000000000000018 .LVL30
     /tmp/ccHYiiCD.s:382    .text._ZN7WorkerBD2Ev:0000000000000000 .LVL26
     /tmp/ccHYiiCD.s:391    .text._ZN7WorkerBD2Ev:0000000000000010 .LVL27
GAS LISTING /tmp/ccHYiiCD.s 			page 61


     /tmp/ccHYiiCD.s:547    .text._ZN7WorkerCD0Ev:0000000000000000 .LVL37
     /tmp/ccHYiiCD.s:584    .text._ZN7WorkerCD0Ev:0000000000000044 .LVL41
     /tmp/ccHYiiCD.s:559    .text._ZN7WorkerCD0Ev:0000000000000018 .LVL38
     /tmp/ccHYiiCD.s:495    .text._ZN7WorkerCD2Ev:0000000000000000 .LVL34
     /tmp/ccHYiiCD.s:504    .text._ZN7WorkerCD2Ev:0000000000000010 .LVL35
     /tmp/ccHYiiCD.s:660    .text._ZN7WorkerDD0Ev:0000000000000000 .LVL45
     /tmp/ccHYiiCD.s:697    .text._ZN7WorkerDD0Ev:0000000000000044 .LVL49
     /tmp/ccHYiiCD.s:672    .text._ZN7WorkerDD0Ev:0000000000000018 .LVL46
     /tmp/ccHYiiCD.s:608    .text._ZN7WorkerDD2Ev:0000000000000000 .LVL42
     /tmp/ccHYiiCD.s:617    .text._ZN7WorkerDD2Ev:0000000000000010 .LVL43
     /tmp/ccHYiiCD.s:1633   .text:00000000000005bc .LVL159
     /tmp/ccHYiiCD.s:1711   .text:0000000000000648 .LVL167
     /tmp/ccHYiiCD.s:1642   .text:00000000000005cc .LVL160
     /tmp/ccHYiiCD.s:1662   .text:00000000000005f0 .LVL163
     /tmp/ccHYiiCD.s:1674   .text:0000000000000600 .LVL164
     /tmp/ccHYiiCD.s:1713   .text:000000000000064c .LVL168
     /tmp/ccHYiiCD.s:1718   .text:0000000000000650 .LVL169
     /tmp/ccHYiiCD.s:1725   .text:000000000000065c .LVL170
     /tmp/ccHYiiCD.s:1741   .text:0000000000000684 .LVL173
     /tmp/ccHYiiCD.s:1752   .text:0000000000000690 .LVL174
     /tmp/ccHYiiCD.s:1538   .text:0000000000000510 .LVL145
     /tmp/ccHYiiCD.s:1532   .text:0000000000000504 .LVL144
     /tmp/ccHYiiCD.s:1565   .text:0000000000000540 .LVL149
     /tmp/ccHYiiCD.s:1559   .text:0000000000000534 .LVL148
     /tmp/ccHYiiCD.s:1592   .text:0000000000000570 .LVL153
     /tmp/ccHYiiCD.s:1586   .text:0000000000000564 .LVL152
     /tmp/ccHYiiCD.s:1619   .text:00000000000005a0 .LVL157
     /tmp/ccHYiiCD.s:1613   .text:0000000000000594 .LVL156
     /tmp/ccHYiiCD.s:1302   .text:0000000000000394 .LVL116
     /tmp/ccHYiiCD.s:1320   .text:00000000000003b4 .LVL118
     /tmp/ccHYiiCD.s:1316   .text:00000000000003ac .LVL117
     /tmp/ccHYiiCD.s:1341   .text:00000000000003ec .LVL122
     /tmp/ccHYiiCD.s:1343   .text:00000000000003f0 .LVL123
     /tmp/ccHYiiCD.s:1411   .text:0000000000000494 .LVL135
     /tmp/ccHYiiCD.s:1413   .text:0000000000000498 .LVL136
     /tmp/ccHYiiCD.s:1440   .text:00000000000004d0 .LVL139
     /tmp/ccHYiiCD.s:1371   .text:0000000000000424 .LVL127
     /tmp/ccHYiiCD.s:1375   .text:000000000000042c .LVL128
     /tmp/ccHYiiCD.s:1443   .text:00000000000004d4 .LVL140
     /tmp/ccHYiiCD.s:1073   .text:0000000000000214 .LVL85
     /tmp/ccHYiiCD.s:1091   .text:0000000000000234 .LVL87
     /tmp/ccHYiiCD.s:1087   .text:000000000000022c .LVL86
     /tmp/ccHYiiCD.s:1112   .text:000000000000026c .LVL91
     /tmp/ccHYiiCD.s:1114   .text:0000000000000270 .LVL92
     /tmp/ccHYiiCD.s:1208   .text:000000000000034c .LVL108
     /tmp/ccHYiiCD.s:1210   .text:0000000000000350 .LVL109
     /tmp/ccHYiiCD.s:1237   .text:0000000000000388 .LVL112
     /tmp/ccHYiiCD.s:1143   .text:0000000000000298 .LVL95
     /tmp/ccHYiiCD.s:1168   .text:00000000000002dc .LVL100
     /tmp/ccHYiiCD.s:1172   .text:00000000000002e4 .LVL101
     /tmp/ccHYiiCD.s:1240   .text:000000000000038c .LVL113
     /tmp/ccHYiiCD.s:896    .text:0000000000000140 .LVL67
     /tmp/ccHYiiCD.s:915    .text:0000000000000160 .LVL69
     /tmp/ccHYiiCD.s:910    .text:0000000000000158 .LVL68
     /tmp/ccHYiiCD.s:1011   .text:000000000000020c .LVL82
     /tmp/ccHYiiCD.s:955    .text:0000000000000194 .LVL75
     /tmp/ccHYiiCD.s:983    .text:00000000000001d8 .LVL79
GAS LISTING /tmp/ccHYiiCD.s 			page 62


     /tmp/ccHYiiCD.s:938    .text:000000000000017c .LVL72
     /tmp/ccHYiiCD.s:947    .text:0000000000000190 .LVL74
     /tmp/ccHYiiCD.s:729    .text:0000000000000074 .LVL50
     /tmp/ccHYiiCD.s:748    .text:0000000000000094 .LVL52
     /tmp/ccHYiiCD.s:743    .text:000000000000008c .LVL51
     /tmp/ccHYiiCD.s:840    .text:0000000000000138 .LVL64
     /tmp/ccHYiiCD.s:788    .text:00000000000000c8 .LVL58
     /tmp/ccHYiiCD.s:816    .text:000000000000010c .LVL62
     /tmp/ccHYiiCD.s:771    .text:00000000000000b0 .LVL55
     /tmp/ccHYiiCD.s:780    .text:00000000000000c4 .LVL57
     /tmp/ccHYiiCD.s:1458   .text._ZN7WorkerD3runEv:0000000000000000 .LVL141
     /tmp/ccHYiiCD.s:1255   .text._ZN7WorkerC3runEv:0000000000000000 .LVL114
     /tmp/ccHYiiCD.s:1026   .text._ZN7WorkerB3runEv:0000000000000000 .LVL83
     /tmp/ccHYiiCD.s:855    .text._ZN7WorkerA3runEv:0000000000000000 .LVL65
     /tmp/ccHYiiCD.s:86     .text:0000000000000000 .LVL4
     /tmp/ccHYiiCD.s:109    .text:0000000000000030 .LVL5
     /tmp/ccHYiiCD.s:133    .text:000000000000005c .LVL8
     /tmp/ccHYiiCD.s:139    .text:0000000000000068 .LVL9
     /tmp/ccHYiiCD.s:43     .text._ZN6Thread13threadWrapperEPv:0000000000000000 .LVL1
     /tmp/ccHYiiCD.s:72     .text._ZN6Thread13threadWrapperEPv:0000000000000030 .LVL3
     /tmp/ccHYiiCD.s:210    .text._ZN6ThreadD0Ev:0000000000000000 .LVL13
     /tmp/ccHYiiCD.s:245    .text._ZN6ThreadD0Ev:0000000000000044 .LVL17
     /tmp/ccHYiiCD.s:222    .text._ZN6ThreadD0Ev:0000000000000018 .LVL14
     /tmp/ccHYiiCD.s:160    .text._ZN6ThreadD2Ev:0000000000000000 .LVL11
     /tmp/ccHYiiCD.s:1839   .debug_info:0000000000000000 .Ldebug_info0
     /tmp/ccHYiiCD.s:8      .text:0000000000000000 .Ltext0
     /tmp/ccHYiiCD.s:1834   .text:000000000000069c .Letext0
     /tmp/ccHYiiCD.s:751    .text:0000000000000094 .LBB110
     /tmp/ccHYiiCD.s:784    .text:00000000000000c4 .LBE110
     /tmp/ccHYiiCD.s:812    .text:0000000000000104 .LBB114
     /tmp/ccHYiiCD.s:818    .text:000000000000010c .LBE114
     /tmp/ccHYiiCD.s:918    .text:0000000000000160 .LBB118
     /tmp/ccHYiiCD.s:951    .text:0000000000000190 .LBE118
     /tmp/ccHYiiCD.s:979    .text:00000000000001d0 .LBB122
     /tmp/ccHYiiCD.s:985    .text:00000000000001d8 .LBE122
     /tmp/ccHYiiCD.s:1648   .text:00000000000005d4 .LBE167
     /tmp/ccHYiiCD.s:1663   .text:00000000000005f0 .LBB170
     /tmp/ccHYiiCD.s:1680   .text:000000000000060c .LBE170
     /tmp/ccHYiiCD.s:191    .gcc_except_table._ZN6ThreadD2Ev:0000000000000000 .LLSDA12
     /tmp/ccHYiiCD.s:252    .gcc_except_table._ZN6ThreadD0Ev:0000000000000000 .LLSDA14
     /tmp/ccHYiiCD.s:302    .gcc_except_table._ZN7WorkerAD2Ev:0000000000000000 .LLSDA57
     /tmp/ccHYiiCD.s:365    .gcc_except_table._ZN7WorkerAD0Ev:0000000000000000 .LLSDA59
     /tmp/ccHYiiCD.s:415    .gcc_except_table._ZN7WorkerBD2Ev:0000000000000000 .LLSDA53
     /tmp/ccHYiiCD.s:478    .gcc_except_table._ZN7WorkerBD0Ev:0000000000000000 .LLSDA55
     /tmp/ccHYiiCD.s:528    .gcc_except_table._ZN7WorkerCD2Ev:0000000000000000 .LLSDA49
     /tmp/ccHYiiCD.s:591    .gcc_except_table._ZN7WorkerCD0Ev:0000000000000000 .LLSDA51
     /tmp/ccHYiiCD.s:641    .gcc_except_table._ZN7WorkerDD2Ev:0000000000000000 .LLSDA45
     /tmp/ccHYiiCD.s:704    .gcc_except_table._ZN7WorkerDD0Ev:0000000000000000 .LLSDA47
                           .group:0000000000000000 _ZN6ThreadD5Ev
                           .group:0000000000000000 _ZN7WorkerAD5Ev
                           .group:0000000000000000 _ZN7WorkerBD5Ev
                           .group:0000000000000000 _ZN7WorkerCD5Ev
                           .group:0000000000000000 _ZN7WorkerDD5Ev

UNDEFINED SYMBOLS
_Z15thread_dispatchv
_Z11thread_exitv
GAS LISTING /tmp/ccHYiiCD.s 			page 63


__gxx_personality_v0
_ZdlPv
_Z11printStringPKc
_Z8printIntiii
_Znwm
_Z13thread_createPP7_threadPFvPvES2_
